Archive member included to satisfy reference by file (symbol)

/home/yul/toolchain/arm-gnu-toolchain-12.2.rel1-x86_64-arm-none-eabi/bin/../lib/gcc/arm-none-eabi/12.2.1/../../../../arm-none-eabi/lib/thumb/v8-m.main+fp/hard/libc_nano.a(libc_a-exit.o)
                              /home/yul/toolchain/arm-gnu-toolchain-12.2.rel1-x86_64-arm-none-eabi/bin/../lib/gcc/arm-none-eabi/12.2.1/../../../../arm-none-eabi/lib/thumb/v8-m.main+fp/hard/crt0.o (exit)
/home/yul/toolchain/arm-gnu-toolchain-12.2.rel1-x86_64-arm-none-eabi/bin/../lib/gcc/arm-none-eabi/12.2.1/../../../../arm-none-eabi/lib/thumb/v8-m.main+fp/hard/libc_nano.a(libc_a-init.o)
                              /home/yul/toolchain/arm-gnu-toolchain-12.2.rel1-x86_64-arm-none-eabi/bin/../lib/gcc/arm-none-eabi/12.2.1/../../../../arm-none-eabi/lib/thumb/v8-m.main+fp/hard/crt0.o (__libc_init_array)
/home/yul/toolchain/arm-gnu-toolchain-12.2.rel1-x86_64-arm-none-eabi/bin/../lib/gcc/arm-none-eabi/12.2.1/../../../../arm-none-eabi/lib/thumb/v8-m.main+fp/hard/libc_nano.a(libc_a-strcmp.o)
                              build/shell.o (strcmp)
/home/yul/toolchain/arm-gnu-toolchain-12.2.rel1-x86_64-arm-none-eabi/bin/../lib/gcc/arm-none-eabi/12.2.1/../../../../arm-none-eabi/lib/thumb/v8-m.main+fp/hard/libc_nano.a(libc_a-printf.o)
                              build/shell.o (printf)
/home/yul/toolchain/arm-gnu-toolchain-12.2.rel1-x86_64-arm-none-eabi/bin/../lib/gcc/arm-none-eabi/12.2.1/../../../../arm-none-eabi/lib/thumb/v8-m.main+fp/hard/libc_nano.a(libc_a-nano-vfprintf.o)
                              /home/yul/toolchain/arm-gnu-toolchain-12.2.rel1-x86_64-arm-none-eabi/bin/../lib/gcc/arm-none-eabi/12.2.1/../../../../arm-none-eabi/lib/thumb/v8-m.main+fp/hard/libc_nano.a(libc_a-printf.o) (_vfprintf_r)
/home/yul/toolchain/arm-gnu-toolchain-12.2.rel1-x86_64-arm-none-eabi/bin/../lib/gcc/arm-none-eabi/12.2.1/../../../../arm-none-eabi/lib/thumb/v8-m.main+fp/hard/libc_nano.a(libc_a-wbuf.o)
                              /home/yul/toolchain/arm-gnu-toolchain-12.2.rel1-x86_64-arm-none-eabi/bin/../lib/gcc/arm-none-eabi/12.2.1/../../../../arm-none-eabi/lib/thumb/v8-m.main+fp/hard/libc_nano.a(libc_a-nano-vfprintf.o) (__swbuf_r)
/home/yul/toolchain/arm-gnu-toolchain-12.2.rel1-x86_64-arm-none-eabi/bin/../lib/gcc/arm-none-eabi/12.2.1/../../../../arm-none-eabi/lib/thumb/v8-m.main+fp/hard/libc_nano.a(libc_a-wsetup.o)
                              /home/yul/toolchain/arm-gnu-toolchain-12.2.rel1-x86_64-arm-none-eabi/bin/../lib/gcc/arm-none-eabi/12.2.1/../../../../arm-none-eabi/lib/thumb/v8-m.main+fp/hard/libc_nano.a(libc_a-nano-vfprintf.o) (__swsetup_r)
/home/yul/toolchain/arm-gnu-toolchain-12.2.rel1-x86_64-arm-none-eabi/bin/../lib/gcc/arm-none-eabi/12.2.1/../../../../arm-none-eabi/lib/thumb/v8-m.main+fp/hard/libc_nano.a(libc_a-putchar.o)
                              build/shell.o (putchar)
/home/yul/toolchain/arm-gnu-toolchain-12.2.rel1-x86_64-arm-none-eabi/bin/../lib/gcc/arm-none-eabi/12.2.1/../../../../arm-none-eabi/lib/thumb/v8-m.main+fp/hard/libc_nano.a(libc_a-nano-vfprintf_i.o)
                              /home/yul/toolchain/arm-gnu-toolchain-12.2.rel1-x86_64-arm-none-eabi/bin/../lib/gcc/arm-none-eabi/12.2.1/../../../../arm-none-eabi/lib/thumb/v8-m.main+fp/hard/libc_nano.a(libc_a-nano-vfprintf.o) (_printf_i)
/home/yul/toolchain/arm-gnu-toolchain-12.2.rel1-x86_64-arm-none-eabi/bin/../lib/gcc/arm-none-eabi/12.2.1/../../../../arm-none-eabi/lib/thumb/v8-m.main+fp/hard/libc_nano.a(libc_a-puts.o)
                              build/main.o (puts)
/home/yul/toolchain/arm-gnu-toolchain-12.2.rel1-x86_64-arm-none-eabi/bin/../lib/gcc/arm-none-eabi/12.2.1/../../../../arm-none-eabi/lib/thumb/v8-m.main+fp/hard/libc_nano.a(libc_a-impure.o)
                              build/shell.o (_impure_ptr)
/home/yul/toolchain/arm-gnu-toolchain-12.2.rel1-x86_64-arm-none-eabi/bin/../lib/gcc/arm-none-eabi/12.2.1/../../../../arm-none-eabi/lib/thumb/v8-m.main+fp/hard/libc_nano.a(libc_a-fflush.o)
                              /home/yul/toolchain/arm-gnu-toolchain-12.2.rel1-x86_64-arm-none-eabi/bin/../lib/gcc/arm-none-eabi/12.2.1/../../../../arm-none-eabi/lib/thumb/v8-m.main+fp/hard/libc_nano.a(libc_a-wbuf.o) (_fflush_r)
/home/yul/toolchain/arm-gnu-toolchain-12.2.rel1-x86_64-arm-none-eabi/bin/../lib/gcc/arm-none-eabi/12.2.1/../../../../arm-none-eabi/lib/thumb/v8-m.main+fp/hard/libc_nano.a(libc_a-memchr-stub.o)
                              /home/yul/toolchain/arm-gnu-toolchain-12.2.rel1-x86_64-arm-none-eabi/bin/../lib/gcc/arm-none-eabi/12.2.1/../../../../arm-none-eabi/lib/thumb/v8-m.main+fp/hard/libc_nano.a(libc_a-nano-vfprintf.o) (memchr)
/home/yul/toolchain/arm-gnu-toolchain-12.2.rel1-x86_64-arm-none-eabi/bin/../lib/gcc/arm-none-eabi/12.2.1/../../../../arm-none-eabi/lib/thumb/v8-m.main+fp/hard/libc_nano.a(libc_a-memcpy-stub.o)
                              build/shell.o (memcpy)
/home/yul/toolchain/arm-gnu-toolchain-12.2.rel1-x86_64-arm-none-eabi/bin/../lib/gcc/arm-none-eabi/12.2.1/../../../../arm-none-eabi/lib/thumb/v8-m.main+fp/hard/libc_nano.a(libc_a-findfp.o)
                              /home/yul/toolchain/arm-gnu-toolchain-12.2.rel1-x86_64-arm-none-eabi/bin/../lib/gcc/arm-none-eabi/12.2.1/../../../../arm-none-eabi/lib/thumb/v8-m.main+fp/hard/libc_nano.a(libc_a-fflush.o) (__sglue)
/home/yul/toolchain/arm-gnu-toolchain-12.2.rel1-x86_64-arm-none-eabi/bin/../lib/gcc/arm-none-eabi/12.2.1/../../../../arm-none-eabi/lib/thumb/v8-m.main+fp/hard/libc_nano.a(libc_a-stdio.o)
                              /home/yul/toolchain/arm-gnu-toolchain-12.2.rel1-x86_64-arm-none-eabi/bin/../lib/gcc/arm-none-eabi/12.2.1/../../../../arm-none-eabi/lib/thumb/v8-m.main+fp/hard/libc_nano.a(libc_a-findfp.o) (__sread)
/home/yul/toolchain/arm-gnu-toolchain-12.2.rel1-x86_64-arm-none-eabi/bin/../lib/gcc/arm-none-eabi/12.2.1/../../../../arm-none-eabi/lib/thumb/v8-m.main+fp/hard/libc_nano.a(libc_a-atoi.o)
                              build/shell.o (atoi)
/home/yul/toolchain/arm-gnu-toolchain-12.2.rel1-x86_64-arm-none-eabi/bin/../lib/gcc/arm-none-eabi/12.2.1/../../../../arm-none-eabi/lib/thumb/v8-m.main+fp/hard/libc_nano.a(libc_a-writer.o)
                              /home/yul/toolchain/arm-gnu-toolchain-12.2.rel1-x86_64-arm-none-eabi/bin/../lib/gcc/arm-none-eabi/12.2.1/../../../../arm-none-eabi/lib/thumb/v8-m.main+fp/hard/libc_nano.a(libc_a-stdio.o) (_write_r)
/home/yul/toolchain/arm-gnu-toolchain-12.2.rel1-x86_64-arm-none-eabi/bin/../lib/gcc/arm-none-eabi/12.2.1/../../../../arm-none-eabi/lib/thumb/v8-m.main+fp/hard/libc_nano.a(libc_a-fvwrite.o)
                              /home/yul/toolchain/arm-gnu-toolchain-12.2.rel1-x86_64-arm-none-eabi/bin/../lib/gcc/arm-none-eabi/12.2.1/../../../../arm-none-eabi/lib/thumb/v8-m.main+fp/hard/libc_nano.a(libc_a-nano-vfprintf.o) (__sfvwrite_r)
/home/yul/toolchain/arm-gnu-toolchain-12.2.rel1-x86_64-arm-none-eabi/bin/../lib/gcc/arm-none-eabi/12.2.1/../../../../arm-none-eabi/lib/thumb/v8-m.main+fp/hard/libc_nano.a(libc_a-fwalk.o)
                              /home/yul/toolchain/arm-gnu-toolchain-12.2.rel1-x86_64-arm-none-eabi/bin/../lib/gcc/arm-none-eabi/12.2.1/../../../../arm-none-eabi/lib/thumb/v8-m.main+fp/hard/libc_nano.a(libc_a-fflush.o) (_fwalk_sglue)
/home/yul/toolchain/arm-gnu-toolchain-12.2.rel1-x86_64-arm-none-eabi/bin/../lib/gcc/arm-none-eabi/12.2.1/../../../../arm-none-eabi/lib/thumb/v8-m.main+fp/hard/libc_nano.a(libc_a-memmove.o)
                              /home/yul/toolchain/arm-gnu-toolchain-12.2.rel1-x86_64-arm-none-eabi/bin/../lib/gcc/arm-none-eabi/12.2.1/../../../../arm-none-eabi/lib/thumb/v8-m.main+fp/hard/libc_nano.a(libc_a-fvwrite.o) (memmove)
/home/yul/toolchain/arm-gnu-toolchain-12.2.rel1-x86_64-arm-none-eabi/bin/../lib/gcc/arm-none-eabi/12.2.1/../../../../arm-none-eabi/lib/thumb/v8-m.main+fp/hard/libc_nano.a(libc_a-memset.o)
                              /home/yul/toolchain/arm-gnu-toolchain-12.2.rel1-x86_64-arm-none-eabi/bin/../lib/gcc/arm-none-eabi/12.2.1/../../../../arm-none-eabi/lib/thumb/v8-m.main+fp/hard/crt0.o (memset)
/home/yul/toolchain/arm-gnu-toolchain-12.2.rel1-x86_64-arm-none-eabi/bin/../lib/gcc/arm-none-eabi/12.2.1/../../../../arm-none-eabi/lib/thumb/v8-m.main+fp/hard/libc_nano.a(libc_a-reallocr.o)
                              /home/yul/toolchain/arm-gnu-toolchain-12.2.rel1-x86_64-arm-none-eabi/bin/../lib/gcc/arm-none-eabi/12.2.1/../../../../arm-none-eabi/lib/thumb/v8-m.main+fp/hard/libc_nano.a(libc_a-fvwrite.o) (_realloc_r)
/home/yul/toolchain/arm-gnu-toolchain-12.2.rel1-x86_64-arm-none-eabi/bin/../lib/gcc/arm-none-eabi/12.2.1/../../../../arm-none-eabi/lib/thumb/v8-m.main+fp/hard/libc_nano.a(libc_a-freer.o)
                              /home/yul/toolchain/arm-gnu-toolchain-12.2.rel1-x86_64-arm-none-eabi/bin/../lib/gcc/arm-none-eabi/12.2.1/../../../../arm-none-eabi/lib/thumb/v8-m.main+fp/hard/libc_nano.a(libc_a-wsetup.o) (_free_r)
/home/yul/toolchain/arm-gnu-toolchain-12.2.rel1-x86_64-arm-none-eabi/bin/../lib/gcc/arm-none-eabi/12.2.1/../../../../arm-none-eabi/lib/thumb/v8-m.main+fp/hard/libc_nano.a(libc_a-strtol.o)
                              /home/yul/toolchain/arm-gnu-toolchain-12.2.rel1-x86_64-arm-none-eabi/bin/../lib/gcc/arm-none-eabi/12.2.1/../../../../arm-none-eabi/lib/thumb/v8-m.main+fp/hard/libc_nano.a(libc_a-atoi.o) (_strtol_r)
/home/yul/toolchain/arm-gnu-toolchain-12.2.rel1-x86_64-arm-none-eabi/bin/../lib/gcc/arm-none-eabi/12.2.1/../../../../arm-none-eabi/lib/thumb/v8-m.main+fp/hard/libc_nano.a(libc_a-lock.o)
                              /home/yul/toolchain/arm-gnu-toolchain-12.2.rel1-x86_64-arm-none-eabi/bin/../lib/gcc/arm-none-eabi/12.2.1/../../../../arm-none-eabi/lib/thumb/v8-m.main+fp/hard/libc_nano.a(libc_a-findfp.o) (__retarget_lock_init_recursive)
/home/yul/toolchain/arm-gnu-toolchain-12.2.rel1-x86_64-arm-none-eabi/bin/../lib/gcc/arm-none-eabi/12.2.1/../../../../arm-none-eabi/lib/thumb/v8-m.main+fp/hard/libc_nano.a(libc_a-makebuf.o)
                              /home/yul/toolchain/arm-gnu-toolchain-12.2.rel1-x86_64-arm-none-eabi/bin/../lib/gcc/arm-none-eabi/12.2.1/../../../../arm-none-eabi/lib/thumb/v8-m.main+fp/hard/libc_nano.a(libc_a-wsetup.o) (__smakebuf_r)
/home/yul/toolchain/arm-gnu-toolchain-12.2.rel1-x86_64-arm-none-eabi/bin/../lib/gcc/arm-none-eabi/12.2.1/../../../../arm-none-eabi/lib/thumb/v8-m.main+fp/hard/libc_nano.a(libc_a-putc.o)
                              /home/yul/toolchain/arm-gnu-toolchain-12.2.rel1-x86_64-arm-none-eabi/bin/../lib/gcc/arm-none-eabi/12.2.1/../../../../arm-none-eabi/lib/thumb/v8-m.main+fp/hard/libc_nano.a(libc_a-putchar.o) (_putc_r)
/home/yul/toolchain/arm-gnu-toolchain-12.2.rel1-x86_64-arm-none-eabi/bin/../lib/gcc/arm-none-eabi/12.2.1/../../../../arm-none-eabi/lib/thumb/v8-m.main+fp/hard/libc_nano.a(libc_a-closer.o)
                              /home/yul/toolchain/arm-gnu-toolchain-12.2.rel1-x86_64-arm-none-eabi/bin/../lib/gcc/arm-none-eabi/12.2.1/../../../../arm-none-eabi/lib/thumb/v8-m.main+fp/hard/libc_nano.a(libc_a-stdio.o) (_close_r)
/home/yul/toolchain/arm-gnu-toolchain-12.2.rel1-x86_64-arm-none-eabi/bin/../lib/gcc/arm-none-eabi/12.2.1/../../../../arm-none-eabi/lib/thumb/v8-m.main+fp/hard/libc_nano.a(libc_a-reent.o)
                              /home/yul/toolchain/arm-gnu-toolchain-12.2.rel1-x86_64-arm-none-eabi/bin/../lib/gcc/arm-none-eabi/12.2.1/../../../../arm-none-eabi/lib/thumb/v8-m.main+fp/hard/libc_nano.a(libc_a-writer.o) (errno)
/home/yul/toolchain/arm-gnu-toolchain-12.2.rel1-x86_64-arm-none-eabi/bin/../lib/gcc/arm-none-eabi/12.2.1/../../../../arm-none-eabi/lib/thumb/v8-m.main+fp/hard/libc_nano.a(libc_a-mallocr.o)
                              /home/yul/toolchain/arm-gnu-toolchain-12.2.rel1-x86_64-arm-none-eabi/bin/../lib/gcc/arm-none-eabi/12.2.1/../../../../arm-none-eabi/lib/thumb/v8-m.main+fp/hard/libc_nano.a(libc_a-findfp.o) (_malloc_r)
/home/yul/toolchain/arm-gnu-toolchain-12.2.rel1-x86_64-arm-none-eabi/bin/../lib/gcc/arm-none-eabi/12.2.1/../../../../arm-none-eabi/lib/thumb/v8-m.main+fp/hard/libc_nano.a(libc_a-fstatr.o)
                              /home/yul/toolchain/arm-gnu-toolchain-12.2.rel1-x86_64-arm-none-eabi/bin/../lib/gcc/arm-none-eabi/12.2.1/../../../../arm-none-eabi/lib/thumb/v8-m.main+fp/hard/libc_nano.a(libc_a-makebuf.o) (_fstat_r)
/home/yul/toolchain/arm-gnu-toolchain-12.2.rel1-x86_64-arm-none-eabi/bin/../lib/gcc/arm-none-eabi/12.2.1/../../../../arm-none-eabi/lib/thumb/v8-m.main+fp/hard/libc_nano.a(libc_a-isattyr.o)
                              /home/yul/toolchain/arm-gnu-toolchain-12.2.rel1-x86_64-arm-none-eabi/bin/../lib/gcc/arm-none-eabi/12.2.1/../../../../arm-none-eabi/lib/thumb/v8-m.main+fp/hard/libc_nano.a(libc_a-makebuf.o) (_isatty_r)
/home/yul/toolchain/arm-gnu-toolchain-12.2.rel1-x86_64-arm-none-eabi/bin/../lib/gcc/arm-none-eabi/12.2.1/../../../../arm-none-eabi/lib/thumb/v8-m.main+fp/hard/libc_nano.a(libc_a-lseekr.o)
                              /home/yul/toolchain/arm-gnu-toolchain-12.2.rel1-x86_64-arm-none-eabi/bin/../lib/gcc/arm-none-eabi/12.2.1/../../../../arm-none-eabi/lib/thumb/v8-m.main+fp/hard/libc_nano.a(libc_a-stdio.o) (_lseek_r)
/home/yul/toolchain/arm-gnu-toolchain-12.2.rel1-x86_64-arm-none-eabi/bin/../lib/gcc/arm-none-eabi/12.2.1/../../../../arm-none-eabi/lib/thumb/v8-m.main+fp/hard/libc_nano.a(libc_a-readr.o)
                              /home/yul/toolchain/arm-gnu-toolchain-12.2.rel1-x86_64-arm-none-eabi/bin/../lib/gcc/arm-none-eabi/12.2.1/../../../../arm-none-eabi/lib/thumb/v8-m.main+fp/hard/libc_nano.a(libc_a-stdio.o) (_read_r)
/home/yul/toolchain/arm-gnu-toolchain-12.2.rel1-x86_64-arm-none-eabi/bin/../lib/gcc/arm-none-eabi/12.2.1/../../../../arm-none-eabi/lib/thumb/v8-m.main+fp/hard/libc_nano.a(libc_a-mlock.o)
                              /home/yul/toolchain/arm-gnu-toolchain-12.2.rel1-x86_64-arm-none-eabi/bin/../lib/gcc/arm-none-eabi/12.2.1/../../../../arm-none-eabi/lib/thumb/v8-m.main+fp/hard/libc_nano.a(libc_a-freer.o) (__malloc_lock)
/home/yul/toolchain/arm-gnu-toolchain-12.2.rel1-x86_64-arm-none-eabi/bin/../lib/gcc/arm-none-eabi/12.2.1/../../../../arm-none-eabi/lib/thumb/v8-m.main+fp/hard/libc_nano.a(libc_a-msizer.o)
                              /home/yul/toolchain/arm-gnu-toolchain-12.2.rel1-x86_64-arm-none-eabi/bin/../lib/gcc/arm-none-eabi/12.2.1/../../../../arm-none-eabi/lib/thumb/v8-m.main+fp/hard/libc_nano.a(libc_a-reallocr.o) (_malloc_usable_size_r)
/home/yul/toolchain/arm-gnu-toolchain-12.2.rel1-x86_64-arm-none-eabi/bin/../lib/gcc/arm-none-eabi/12.2.1/../../../../arm-none-eabi/lib/thumb/v8-m.main+fp/hard/libc_nano.a(libc_a-ctype_.o)
                              /home/yul/toolchain/arm-gnu-toolchain-12.2.rel1-x86_64-arm-none-eabi/bin/../lib/gcc/arm-none-eabi/12.2.1/../../../../arm-none-eabi/lib/thumb/v8-m.main+fp/hard/libc_nano.a(libc_a-strtol.o) (_ctype_)
/home/yul/toolchain/arm-gnu-toolchain-12.2.rel1-x86_64-arm-none-eabi/bin/../lib/gcc/arm-none-eabi/12.2.1/../../../../arm-none-eabi/lib/thumb/v8-m.main+fp/hard/libc_nano.a(libc_a-sbrkr.o)
                              /home/yul/toolchain/arm-gnu-toolchain-12.2.rel1-x86_64-arm-none-eabi/bin/../lib/gcc/arm-none-eabi/12.2.1/../../../../arm-none-eabi/lib/thumb/v8-m.main+fp/hard/libc_nano.a(libc_a-mallocr.o) (_sbrk_r)
/home/yul/toolchain/arm-gnu-toolchain-12.2.rel1-x86_64-arm-none-eabi/bin/../lib/gcc/arm-none-eabi/12.2.1/../../../../arm-none-eabi/lib/thumb/v8-m.main+fp/hard/libc_nano.a(libc_a-errno.o)
                              /home/yul/toolchain/arm-gnu-toolchain-12.2.rel1-x86_64-arm-none-eabi/bin/../lib/gcc/arm-none-eabi/12.2.1/../../../../arm-none-eabi/lib/thumb/v8-m.main+fp/hard/libc_nano.a(libc_a-strtol.o) (__errno)
/home/yul/toolchain/arm-gnu-toolchain-12.2.rel1-x86_64-arm-none-eabi/bin/../lib/gcc/arm-none-eabi/12.2.1/../../../../arm-none-eabi/lib/thumb/v8-m.main+fp/hard/libnosys.a(close.o)
                              /home/yul/toolchain/arm-gnu-toolchain-12.2.rel1-x86_64-arm-none-eabi/bin/../lib/gcc/arm-none-eabi/12.2.1/../../../../arm-none-eabi/lib/thumb/v8-m.main+fp/hard/libc_nano.a(libc_a-closer.o) (_close)
/home/yul/toolchain/arm-gnu-toolchain-12.2.rel1-x86_64-arm-none-eabi/bin/../lib/gcc/arm-none-eabi/12.2.1/../../../../arm-none-eabi/lib/thumb/v8-m.main+fp/hard/libnosys.a(fstat.o)
                              /home/yul/toolchain/arm-gnu-toolchain-12.2.rel1-x86_64-arm-none-eabi/bin/../lib/gcc/arm-none-eabi/12.2.1/../../../../arm-none-eabi/lib/thumb/v8-m.main+fp/hard/libc_nano.a(libc_a-fstatr.o) (_fstat)
/home/yul/toolchain/arm-gnu-toolchain-12.2.rel1-x86_64-arm-none-eabi/bin/../lib/gcc/arm-none-eabi/12.2.1/../../../../arm-none-eabi/lib/thumb/v8-m.main+fp/hard/libnosys.a(isatty.o)
                              /home/yul/toolchain/arm-gnu-toolchain-12.2.rel1-x86_64-arm-none-eabi/bin/../lib/gcc/arm-none-eabi/12.2.1/../../../../arm-none-eabi/lib/thumb/v8-m.main+fp/hard/libc_nano.a(libc_a-isattyr.o) (_isatty)
/home/yul/toolchain/arm-gnu-toolchain-12.2.rel1-x86_64-arm-none-eabi/bin/../lib/gcc/arm-none-eabi/12.2.1/../../../../arm-none-eabi/lib/thumb/v8-m.main+fp/hard/libnosys.a(lseek.o)
                              /home/yul/toolchain/arm-gnu-toolchain-12.2.rel1-x86_64-arm-none-eabi/bin/../lib/gcc/arm-none-eabi/12.2.1/../../../../arm-none-eabi/lib/thumb/v8-m.main+fp/hard/libc_nano.a(libc_a-lseekr.o) (_lseek)
/home/yul/toolchain/arm-gnu-toolchain-12.2.rel1-x86_64-arm-none-eabi/bin/../lib/gcc/arm-none-eabi/12.2.1/../../../../arm-none-eabi/lib/thumb/v8-m.main+fp/hard/libnosys.a(read.o)
                              /home/yul/toolchain/arm-gnu-toolchain-12.2.rel1-x86_64-arm-none-eabi/bin/../lib/gcc/arm-none-eabi/12.2.1/../../../../arm-none-eabi/lib/thumb/v8-m.main+fp/hard/libc_nano.a(libc_a-readr.o) (_read)
/home/yul/toolchain/arm-gnu-toolchain-12.2.rel1-x86_64-arm-none-eabi/bin/../lib/gcc/arm-none-eabi/12.2.1/../../../../arm-none-eabi/lib/thumb/v8-m.main+fp/hard/libnosys.a(sbrk.o)
                              /home/yul/toolchain/arm-gnu-toolchain-12.2.rel1-x86_64-arm-none-eabi/bin/../lib/gcc/arm-none-eabi/12.2.1/../../../../arm-none-eabi/lib/thumb/v8-m.main+fp/hard/libc_nano.a(libc_a-sbrkr.o) (_sbrk)
/home/yul/toolchain/arm-gnu-toolchain-12.2.rel1-x86_64-arm-none-eabi/bin/../lib/gcc/arm-none-eabi/12.2.1/../../../../arm-none-eabi/lib/thumb/v8-m.main+fp/hard/libnosys.a(_exit.o)
                              /home/yul/toolchain/arm-gnu-toolchain-12.2.rel1-x86_64-arm-none-eabi/bin/../lib/gcc/arm-none-eabi/12.2.1/../../../../arm-none-eabi/lib/thumb/v8-m.main+fp/hard/libc_nano.a(libc_a-exit.o) (_exit)
/home/yul/toolchain/arm-gnu-toolchain-12.2.rel1-x86_64-arm-none-eabi/bin/../lib/gcc/arm-none-eabi/12.2.1/thumb/v8-m.main+fp/hard/libgcc.a(_aeabi_uldivmod.o)
                              build/stm32l5xx_hal_uart.o (__aeabi_uldivmod)
/home/yul/toolchain/arm-gnu-toolchain-12.2.rel1-x86_64-arm-none-eabi/bin/../lib/gcc/arm-none-eabi/12.2.1/thumb/v8-m.main+fp/hard/libgcc.a(_udivmoddi4.o)
                              /home/yul/toolchain/arm-gnu-toolchain-12.2.rel1-x86_64-arm-none-eabi/bin/../lib/gcc/arm-none-eabi/12.2.1/thumb/v8-m.main+fp/hard/libgcc.a(_aeabi_uldivmod.o) (__udivmoddi4)
/home/yul/toolchain/arm-gnu-toolchain-12.2.rel1-x86_64-arm-none-eabi/bin/../lib/gcc/arm-none-eabi/12.2.1/thumb/v8-m.main+fp/hard/libgcc.a(_dvmd_tls.o)
                              /home/yul/toolchain/arm-gnu-toolchain-12.2.rel1-x86_64-arm-none-eabi/bin/../lib/gcc/arm-none-eabi/12.2.1/thumb/v8-m.main+fp/hard/libgcc.a(_aeabi_uldivmod.o) (__aeabi_ldiv0)

Discarded input sections

 .text          0x0000000000000000        0x0 /home/yul/toolchain/arm-gnu-toolchain-12.2.rel1-x86_64-arm-none-eabi/bin/../lib/gcc/arm-none-eabi/12.2.1/thumb/v8-m.main+fp/hard/crti.o
 .data          0x0000000000000000        0x0 /home/yul/toolchain/arm-gnu-toolchain-12.2.rel1-x86_64-arm-none-eabi/bin/../lib/gcc/arm-none-eabi/12.2.1/thumb/v8-m.main+fp/hard/crti.o
 .bss           0x0000000000000000        0x0 /home/yul/toolchain/arm-gnu-toolchain-12.2.rel1-x86_64-arm-none-eabi/bin/../lib/gcc/arm-none-eabi/12.2.1/thumb/v8-m.main+fp/hard/crti.o
 .text          0x0000000000000000        0x0 /home/yul/toolchain/arm-gnu-toolchain-12.2.rel1-x86_64-arm-none-eabi/bin/../lib/gcc/arm-none-eabi/12.2.1/thumb/v8-m.main+fp/hard/crtbegin.o
 .data          0x0000000000000000        0x0 /home/yul/toolchain/arm-gnu-toolchain-12.2.rel1-x86_64-arm-none-eabi/bin/../lib/gcc/arm-none-eabi/12.2.1/thumb/v8-m.main+fp/hard/crtbegin.o
 .bss           0x0000000000000000        0x0 /home/yul/toolchain/arm-gnu-toolchain-12.2.rel1-x86_64-arm-none-eabi/bin/../lib/gcc/arm-none-eabi/12.2.1/thumb/v8-m.main+fp/hard/crtbegin.o
 .rodata.all_implied_fbits
                0x0000000000000000       0x24 /home/yul/toolchain/arm-gnu-toolchain-12.2.rel1-x86_64-arm-none-eabi/bin/../lib/gcc/arm-none-eabi/12.2.1/thumb/v8-m.main+fp/hard/crtbegin.o
 .data.__dso_handle
                0x0000000000000000        0x4 /home/yul/toolchain/arm-gnu-toolchain-12.2.rel1-x86_64-arm-none-eabi/bin/../lib/gcc/arm-none-eabi/12.2.1/thumb/v8-m.main+fp/hard/crtbegin.o
 .text          0x0000000000000000       0x7c /home/yul/toolchain/arm-gnu-toolchain-12.2.rel1-x86_64-arm-none-eabi/bin/../lib/gcc/arm-none-eabi/12.2.1/../../../../arm-none-eabi/lib/thumb/v8-m.main+fp/hard/crt0.o
 .data          0x0000000000000000        0x0 /home/yul/toolchain/arm-gnu-toolchain-12.2.rel1-x86_64-arm-none-eabi/bin/../lib/gcc/arm-none-eabi/12.2.1/../../../../arm-none-eabi/lib/thumb/v8-m.main+fp/hard/crt0.o
 .bss           0x0000000000000000        0x0 /home/yul/toolchain/arm-gnu-toolchain-12.2.rel1-x86_64-arm-none-eabi/bin/../lib/gcc/arm-none-eabi/12.2.1/../../../../arm-none-eabi/lib/thumb/v8-m.main+fp/hard/crt0.o
 .ARM.extab     0x0000000000000000        0x0 /home/yul/toolchain/arm-gnu-toolchain-12.2.rel1-x86_64-arm-none-eabi/bin/../lib/gcc/arm-none-eabi/12.2.1/../../../../arm-none-eabi/lib/thumb/v8-m.main+fp/hard/crt0.o
 .ARM.exidx     0x0000000000000000       0x10 /home/yul/toolchain/arm-gnu-toolchain-12.2.rel1-x86_64-arm-none-eabi/bin/../lib/gcc/arm-none-eabi/12.2.1/../../../../arm-none-eabi/lib/thumb/v8-m.main+fp/hard/crt0.o
 .debug_line_str
                0x0000000000000000       0xe0 /home/yul/toolchain/arm-gnu-toolchain-12.2.rel1-x86_64-arm-none-eabi/bin/../lib/gcc/arm-none-eabi/12.2.1/../../../../arm-none-eabi/lib/thumb/v8-m.main+fp/hard/crt0.o
 .ARM.attributes
                0x0000000000000000       0x24 /home/yul/toolchain/arm-gnu-toolchain-12.2.rel1-x86_64-arm-none-eabi/bin/../lib/gcc/arm-none-eabi/12.2.1/../../../../arm-none-eabi/lib/thumb/v8-m.main+fp/hard/crt0.o
 .text          0x0000000000000000        0x0 build/main.o
 .data          0x0000000000000000        0x0 build/main.o
 .bss           0x0000000000000000        0x0 build/main.o
 .text          0x0000000000000000        0x0 build/shell.o
 .data          0x0000000000000000        0x0 build/shell.o
 .bss           0x0000000000000000        0x0 build/shell.o
 .text          0x0000000000000000        0x0 build/is31fl3737.o
 .data          0x0000000000000000        0x0 build/is31fl3737.o
 .bss           0x0000000000000000        0x0 build/is31fl3737.o
 .rodata.IS31FL3737_write_pwm_buffer.str1.4
                0x0000000000000000       0x22 build/is31fl3737.o
 .text.IS31FL3737_write_pwm_buffer
                0x0000000000000000       0x64 build/is31fl3737.o
 .text.IS31FL3737_set_color
                0x0000000000000000       0x50 build/is31fl3737.o
 .text.IS31FL3737_set_color_all
                0x0000000000000000       0x20 build/is31fl3737.o
 .text.IS31FL3737_set_led_control_register
                0x0000000000000000      0x144 build/is31fl3737.o
 .text.IS31FL3737_update_pwm_buffers
                0x0000000000000000       0x4c build/is31fl3737.o
 .text.IS31FL3737_update_led_control_registers
                0x0000000000000000       0x54 build/is31fl3737.o
 .bss.g_led_control_registers_update_required
                0x0000000000000000        0x1 build/is31fl3737.o
 .bss.g_led_control_registers
                0x0000000000000000       0x30 build/is31fl3737.o
 .bss.g_pwm_buffer_update_required
                0x0000000000000000        0x1 build/is31fl3737.o
 .bss.g_pwm_buffer
                0x0000000000000000      0x180 build/is31fl3737.o
 .bss.g_is31_leds
                0x0000000000000000        0x8 build/is31fl3737.o
 .text          0x0000000000000000        0x0 build/keyboard.o
 .data          0x0000000000000000        0x0 build/keyboard.o
 .bss           0x0000000000000000        0x0 build/keyboard.o
 .bss.old_matrix
                0x0000000000000000        0xc build/keyboard.o
 .text          0x0000000000000000        0x0 build/stm32l5xx_it.o
 .data          0x0000000000000000        0x0 build/stm32l5xx_it.o
 .bss           0x0000000000000000        0x0 build/stm32l5xx_it.o
 .text          0x0000000000000000        0x0 build/stm32l5xx_hal_msp.o
 .data          0x0000000000000000        0x0 build/stm32l5xx_hal_msp.o
 .bss           0x0000000000000000        0x0 build/stm32l5xx_hal_msp.o
 .text.HAL_I2C_MspDeInit
                0x0000000000000000       0x68 build/stm32l5xx_hal_msp.o
 .text.HAL_UART_MspDeInit
                0x0000000000000000       0x30 build/stm32l5xx_hal_msp.o
 .text          0x0000000000000000        0x0 build/usbd_conf.o
 .data          0x0000000000000000        0x0 build/usbd_conf.o
 .bss           0x0000000000000000        0x0 build/usbd_conf.o
 .text.HAL_PCD_MspDeInit
                0x0000000000000000       0x34 build/usbd_conf.o
 .text.HAL_PCD_ISOOUTIncompleteCallback
                0x0000000000000000        0xc build/usbd_conf.o
 .text.HAL_PCD_ISOINIncompleteCallback
                0x0000000000000000        0xc build/usbd_conf.o
 .text.HAL_PCD_ConnectCallback
                0x0000000000000000        0xc build/usbd_conf.o
 .text.HAL_PCD_DisconnectCallback
                0x0000000000000000        0xc build/usbd_conf.o
 .text.USBD_LL_DeInit
                0x0000000000000000       0x10 build/usbd_conf.o
 .text.USBD_LL_Stop
                0x0000000000000000       0x10 build/usbd_conf.o
 .text.USBD_LL_FlushEP
                0x0000000000000000       0x10 build/usbd_conf.o
 .text.USBD_LL_Delay
                0x0000000000000000        0x8 build/usbd_conf.o
 .text          0x0000000000000000        0x0 build/usb_device.o
 .data          0x0000000000000000        0x0 build/usb_device.o
 .bss           0x0000000000000000        0x0 build/usb_device.o
 .text          0x0000000000000000        0x0 build/usbd_desc.o
 .data          0x0000000000000000        0x0 build/usbd_desc.o
 .bss           0x0000000000000000        0x0 build/usbd_desc.o
 .text          0x0000000000000000        0x0 build/usbd_cdc_if.o
 .data          0x0000000000000000        0x0 build/usbd_cdc_if.o
 .bss           0x0000000000000000        0x0 build/usbd_cdc_if.o
 .text          0x0000000000000000        0x0 build/stm32l5xx_hal_pcd.o
 .data          0x0000000000000000        0x0 build/stm32l5xx_hal_pcd.o
 .bss           0x0000000000000000        0x0 build/stm32l5xx_hal_pcd.o
 .text.HAL_PCD_MspInit
                0x0000000000000000        0x2 build/stm32l5xx_hal_pcd.o
 .text.HAL_PCD_MspDeInit
                0x0000000000000000        0x2 build/stm32l5xx_hal_pcd.o
 .text.HAL_PCD_DeInit
                0x0000000000000000       0x2e build/stm32l5xx_hal_pcd.o
 .text.HAL_PCD_Stop
                0x0000000000000000       0x2a build/stm32l5xx_hal_pcd.o
 .text.HAL_PCD_DataOutStageCallback
                0x0000000000000000        0x2 build/stm32l5xx_hal_pcd.o
 .text.HAL_PCD_DataInStageCallback
                0x0000000000000000        0x2 build/stm32l5xx_hal_pcd.o
 .text.HAL_PCD_SetupStageCallback
                0x0000000000000000        0x2 build/stm32l5xx_hal_pcd.o
 .text.HAL_PCD_SOFCallback
                0x0000000000000000        0x2 build/stm32l5xx_hal_pcd.o
 .text.HAL_PCD_ResetCallback
                0x0000000000000000        0x2 build/stm32l5xx_hal_pcd.o
 .text.HAL_PCD_SuspendCallback
                0x0000000000000000        0x2 build/stm32l5xx_hal_pcd.o
 .text.HAL_PCD_ResumeCallback
                0x0000000000000000        0x2 build/stm32l5xx_hal_pcd.o
 .text.HAL_PCD_ISOOUTIncompleteCallback
                0x0000000000000000        0x2 build/stm32l5xx_hal_pcd.o
 .text.HAL_PCD_ISOINIncompleteCallback
                0x0000000000000000        0x2 build/stm32l5xx_hal_pcd.o
 .text.HAL_PCD_ConnectCallback
                0x0000000000000000        0x2 build/stm32l5xx_hal_pcd.o
 .text.HAL_PCD_DisconnectCallback
                0x0000000000000000        0x2 build/stm32l5xx_hal_pcd.o
 .text.HAL_PCD_DevConnect
                0x0000000000000000       0x24 build/stm32l5xx_hal_pcd.o
 .text.HAL_PCD_DevDisconnect
                0x0000000000000000       0x24 build/stm32l5xx_hal_pcd.o
 .text.HAL_PCD_EP_Abort
                0x0000000000000000       0x30 build/stm32l5xx_hal_pcd.o
 .text.HAL_PCD_EP_Flush
                0x0000000000000000        0x4 build/stm32l5xx_hal_pcd.o
 .text.HAL_PCD_ActivateRemoteWakeup
                0x0000000000000000        0xa build/stm32l5xx_hal_pcd.o
 .text.HAL_PCD_DeActivateRemoteWakeup
                0x0000000000000000        0xa build/stm32l5xx_hal_pcd.o
 .text.HAL_PCD_GetState
                0x0000000000000000        0x6 build/stm32l5xx_hal_pcd.o
 .text          0x0000000000000000        0x0 build/stm32l5xx_hal_pcd_ex.o
 .data          0x0000000000000000        0x0 build/stm32l5xx_hal_pcd_ex.o
 .bss           0x0000000000000000        0x0 build/stm32l5xx_hal_pcd_ex.o
 .text.HAL_PCDEx_ActivateBCD
                0x0000000000000000       0x48 build/stm32l5xx_hal_pcd_ex.o
 .text.HAL_PCDEx_DeActivateBCD
                0x0000000000000000       0x1c build/stm32l5xx_hal_pcd_ex.o
 .text.HAL_PCDEx_DeActivateLPM
                0x0000000000000000       0x2c build/stm32l5xx_hal_pcd_ex.o
 .text.HAL_PCDEx_LPM_Callback
                0x0000000000000000        0x2 build/stm32l5xx_hal_pcd_ex.o
 .text.HAL_PCDEx_BCD_Callback
                0x0000000000000000        0x2 build/stm32l5xx_hal_pcd_ex.o
 .text.HAL_PCDEx_BCD_VBUSDetect
                0x0000000000000000       0xd2 build/stm32l5xx_hal_pcd_ex.o
 .text          0x0000000000000000        0x0 build/stm32l5xx_ll_usb.o
 .data          0x0000000000000000        0x0 build/stm32l5xx_ll_usb.o
 .bss           0x0000000000000000        0x0 build/stm32l5xx_ll_usb.o
 .text.USB_CoreInit
                0x0000000000000000        0xe build/stm32l5xx_ll_usb.o
 .text.USB_SetCurrentMode
                0x0000000000000000        0x4 build/stm32l5xx_ll_usb.o
 .text.USB_EPStopXfer
                0x0000000000000000       0x9e build/stm32l5xx_ll_usb.o
 .text.USB_StopDevice
                0x0000000000000000       0x16 build/stm32l5xx_ll_usb.o
 .text.USB_DevDisconnect
                0x0000000000000000       0x10 build/stm32l5xx_ll_usb.o
 .text.USB_ActivateRemoteWakeup
                0x0000000000000000       0x12 build/stm32l5xx_ll_usb.o
 .text.USB_DeActivateRemoteWakeup
                0x0000000000000000       0x14 build/stm32l5xx_ll_usb.o
 .text          0x0000000000000000        0x0 build/stm32l5xx_hal.o
 .data          0x0000000000000000        0x0 build/stm32l5xx_hal.o
 .bss           0x0000000000000000        0x0 build/stm32l5xx_hal.o
 .text.HAL_MspInit
                0x0000000000000000        0x2 build/stm32l5xx_hal.o
 .text.HAL_MspDeInit
                0x0000000000000000        0x2 build/stm32l5xx_hal.o
 .text.HAL_DeInit
                0x0000000000000000       0x30 build/stm32l5xx_hal.o
 .text.HAL_GetTickPrio
                0x0000000000000000        0xc build/stm32l5xx_hal.o
 .text.HAL_SetTickFreq
                0x0000000000000000       0x2c build/stm32l5xx_hal.o
 .text.HAL_GetTickFreq
                0x0000000000000000        0xc build/stm32l5xx_hal.o
 .text.HAL_SuspendTick
                0x0000000000000000        0xe build/stm32l5xx_hal.o
 .text.HAL_ResumeTick
                0x0000000000000000        0xe build/stm32l5xx_hal.o
 .text.HAL_GetHalVersion
                0x0000000000000000        0x8 build/stm32l5xx_hal.o
 .text.HAL_GetREVID
                0x0000000000000000        0xc build/stm32l5xx_hal.o
 .text.HAL_GetDEVID
                0x0000000000000000       0x10 build/stm32l5xx_hal.o
 .text.HAL_GetUIDw0
                0x0000000000000000        0xc build/stm32l5xx_hal.o
 .text.HAL_GetUIDw1
                0x0000000000000000        0xc build/stm32l5xx_hal.o
 .text.HAL_GetUIDw2
                0x0000000000000000        0xc build/stm32l5xx_hal.o
 .text.HAL_DBGMCU_EnableDBGStopMode
                0x0000000000000000       0x10 build/stm32l5xx_hal.o
 .text.HAL_DBGMCU_DisableDBGStopMode
                0x0000000000000000       0x10 build/stm32l5xx_hal.o
 .text.HAL_DBGMCU_EnableDBGStandbyMode
                0x0000000000000000       0x10 build/stm32l5xx_hal.o
 .text.HAL_DBGMCU_DisableDBGStandbyMode
                0x0000000000000000       0x10 build/stm32l5xx_hal.o
 .text.HAL_SYSCFG_SRAM2Erase
                0x0000000000000000       0x18 build/stm32l5xx_hal.o
 .text.HAL_SYSCFG_VREFBUF_HighImpedanceConfig
                0x0000000000000000       0x14 build/stm32l5xx_hal.o
 .text.HAL_SYSCFG_VREFBUF_TrimmingConfig
                0x0000000000000000       0x14 build/stm32l5xx_hal.o
 .text.HAL_SYSCFG_VREFBUF_VoltageScalingConfig
                0x0000000000000000       0x34 build/stm32l5xx_hal.o
 .text.HAL_SYSCFG_EnableVREFBUF
                0x0000000000000000       0x34 build/stm32l5xx_hal.o
 .text.HAL_SYSCFG_DisableVREFBUF
                0x0000000000000000       0x10 build/stm32l5xx_hal.o
 .text.HAL_SYSCFG_EnableIOAnalogBooster
                0x0000000000000000       0x14 build/stm32l5xx_hal.o
 .text.HAL_SYSCFG_DisableIOAnalogBooster
                0x0000000000000000       0x10 build/stm32l5xx_hal.o
 .text.HAL_SYSCFG_EnableIOAnalogSwitchVdd
                0x0000000000000000       0x14 build/stm32l5xx_hal.o
 .text.HAL_SYSCFG_DisableIOAnalogSwitchVdd
                0x0000000000000000       0x10 build/stm32l5xx_hal.o
 .text.HAL_SYSCFG_Lock
                0x0000000000000000        0xc build/stm32l5xx_hal.o
 .text.HAL_SYSCFG_GetLock
                0x0000000000000000       0x14 build/stm32l5xx_hal.o
 .text          0x0000000000000000        0x0 build/stm32l5xx_hal_i2c.o
 .data          0x0000000000000000        0x0 build/stm32l5xx_hal_i2c.o
 .bss           0x0000000000000000        0x0 build/stm32l5xx_hal_i2c.o
 .text.I2C_Enable_IRQ
                0x0000000000000000       0x7c build/stm32l5xx_hal_i2c.o
 .text.I2C_Disable_IRQ
                0x0000000000000000       0x70 build/stm32l5xx_hal_i2c.o
 .text.I2C_ConvertOtherXferOptions
                0x0000000000000000       0x1e build/stm32l5xx_hal_i2c.o
 .text.I2C_RequestMemoryWrite
                0x0000000000000000       0x7c build/stm32l5xx_hal_i2c.o
 .text.I2C_RequestMemoryRead
                0x0000000000000000       0x78 build/stm32l5xx_hal_i2c.o
 .text.I2C_WaitOnRXNEFlagUntilTimeout
                0x0000000000000000       0xba build/stm32l5xx_hal_i2c.o
 .text.HAL_I2C_MspInit
                0x0000000000000000        0x2 build/stm32l5xx_hal_i2c.o
 .text.HAL_I2C_MspDeInit
                0x0000000000000000        0x2 build/stm32l5xx_hal_i2c.o
 .text.HAL_I2C_DeInit
                0x0000000000000000       0x32 build/stm32l5xx_hal_i2c.o
 .text.HAL_I2C_Master_Receive
                0x0000000000000000      0x17c build/stm32l5xx_hal_i2c.o
 .text.HAL_I2C_Slave_Transmit
                0x0000000000000000      0x1d2 build/stm32l5xx_hal_i2c.o
 .text.HAL_I2C_Slave_Receive
                0x0000000000000000      0x17e build/stm32l5xx_hal_i2c.o
 .text.HAL_I2C_Master_Transmit_IT
                0x0000000000000000       0x98 build/stm32l5xx_hal_i2c.o
 .text.HAL_I2C_Master_Receive_IT
                0x0000000000000000       0x98 build/stm32l5xx_hal_i2c.o
 .text.HAL_I2C_Slave_Transmit_IT
                0x0000000000000000       0x8c build/stm32l5xx_hal_i2c.o
 .text.HAL_I2C_Slave_Receive_IT
                0x0000000000000000       0x64 build/stm32l5xx_hal_i2c.o
 .text.HAL_I2C_Master_Transmit_DMA
                0x0000000000000000      0x154 build/stm32l5xx_hal_i2c.o
 .text.HAL_I2C_Master_Receive_DMA
                0x0000000000000000      0x150 build/stm32l5xx_hal_i2c.o
 .text.HAL_I2C_Slave_Transmit_DMA
                0x0000000000000000      0x140 build/stm32l5xx_hal_i2c.o
 .text.HAL_I2C_Slave_Receive_DMA
                0x0000000000000000       0xf4 build/stm32l5xx_hal_i2c.o
 .text.HAL_I2C_Mem_Write
                0x0000000000000000      0x1a8 build/stm32l5xx_hal_i2c.o
 .text.HAL_I2C_Mem_Read
                0x0000000000000000      0x1b0 build/stm32l5xx_hal_i2c.o
 .text.HAL_I2C_Mem_Write_IT
                0x0000000000000000       0xb8 build/stm32l5xx_hal_i2c.o
 .text.HAL_I2C_Mem_Read_IT
                0x0000000000000000       0xb4 build/stm32l5xx_hal_i2c.o
 .text.HAL_I2C_Mem_Write_DMA
                0x0000000000000000      0x134 build/stm32l5xx_hal_i2c.o
 .text.HAL_I2C_Mem_Read_DMA
                0x0000000000000000      0x134 build/stm32l5xx_hal_i2c.o
 .text.HAL_I2C_Master_Seq_Transmit_IT
                0x0000000000000000       0xb4 build/stm32l5xx_hal_i2c.o
 .text.HAL_I2C_Master_Seq_Transmit_DMA
                0x0000000000000000      0x174 build/stm32l5xx_hal_i2c.o
 .text.HAL_I2C_Master_Seq_Receive_IT
                0x0000000000000000       0xb4 build/stm32l5xx_hal_i2c.o
 .text.HAL_I2C_Master_Seq_Receive_DMA
                0x0000000000000000      0x174 build/stm32l5xx_hal_i2c.o
 .text.HAL_I2C_Slave_Seq_Transmit_IT
                0x0000000000000000       0xe0 build/stm32l5xx_hal_i2c.o
 .text.HAL_I2C_Slave_Seq_Transmit_DMA
                0x0000000000000000      0x1ac build/stm32l5xx_hal_i2c.o
 .text.HAL_I2C_Slave_Seq_Receive_IT
                0x0000000000000000       0xe0 build/stm32l5xx_hal_i2c.o
 .text.HAL_I2C_Slave_Seq_Receive_DMA
                0x0000000000000000      0x1a8 build/stm32l5xx_hal_i2c.o
 .text.HAL_I2C_EnableListen_IT
                0x0000000000000000       0x2c build/stm32l5xx_hal_i2c.o
 .text.HAL_I2C_DisableListen_IT
                0x0000000000000000       0x3a build/stm32l5xx_hal_i2c.o
 .text.HAL_I2C_Master_Abort_IT
                0x0000000000000000       0x84 build/stm32l5xx_hal_i2c.o
 .text.HAL_I2C_EV_IRQHandler
                0x0000000000000000       0x10 build/stm32l5xx_hal_i2c.o
 .text.HAL_I2C_MasterTxCpltCallback
                0x0000000000000000        0x2 build/stm32l5xx_hal_i2c.o
 .text.HAL_I2C_MasterRxCpltCallback
                0x0000000000000000        0x2 build/stm32l5xx_hal_i2c.o
 .text.I2C_ITMasterSeqCplt
                0x0000000000000000       0x54 build/stm32l5xx_hal_i2c.o
 .text.HAL_I2C_SlaveTxCpltCallback
                0x0000000000000000        0x2 build/stm32l5xx_hal_i2c.o
 .text.HAL_I2C_SlaveRxCpltCallback
                0x0000000000000000        0x2 build/stm32l5xx_hal_i2c.o
 .text.I2C_ITSlaveSeqCplt
                0x0000000000000000       0x82 build/stm32l5xx_hal_i2c.o
 .text.I2C_DMASlaveTransmitCplt
                0x0000000000000000       0x1e build/stm32l5xx_hal_i2c.o
 .text.I2C_DMASlaveReceiveCplt
                0x0000000000000000       0x26 build/stm32l5xx_hal_i2c.o
 .text.HAL_I2C_AddrCallback
                0x0000000000000000        0x2 build/stm32l5xx_hal_i2c.o
 .text.I2C_ITAddrCplt
                0x0000000000000000       0xa0 build/stm32l5xx_hal_i2c.o
 .text.HAL_I2C_ListenCpltCallback
                0x0000000000000000        0x2 build/stm32l5xx_hal_i2c.o
 .text.I2C_ITListenCplt
                0x0000000000000000       0x68 build/stm32l5xx_hal_i2c.o
 .text.HAL_I2C_MemTxCpltCallback
                0x0000000000000000        0x2 build/stm32l5xx_hal_i2c.o
 .text.HAL_I2C_MemRxCpltCallback
                0x0000000000000000        0x2 build/stm32l5xx_hal_i2c.o
 .text.HAL_I2C_ErrorCallback
                0x0000000000000000        0x2 build/stm32l5xx_hal_i2c.o
 .text.HAL_I2C_AbortCpltCallback
                0x0000000000000000        0x2 build/stm32l5xx_hal_i2c.o
 .text.I2C_TreatErrorCallback
                0x0000000000000000       0x2e build/stm32l5xx_hal_i2c.o
 .text.I2C_ITError
                0x0000000000000000      0x130 build/stm32l5xx_hal_i2c.o
 .text.I2C_ITSlaveCplt
                0x0000000000000000      0x168 build/stm32l5xx_hal_i2c.o
 .text.I2C_Slave_ISR_IT
                0x0000000000000000      0x14e build/stm32l5xx_hal_i2c.o
 .text.I2C_ITMasterCplt
                0x0000000000000000      0x12e build/stm32l5xx_hal_i2c.o
 .text.I2C_Master_ISR_IT
                0x0000000000000000      0x180 build/stm32l5xx_hal_i2c.o
 .text.I2C_Slave_ISR_DMA
                0x0000000000000000      0x120 build/stm32l5xx_hal_i2c.o
 .text.I2C_Master_ISR_DMA
                0x0000000000000000      0x142 build/stm32l5xx_hal_i2c.o
 .text.I2C_DMAError
                0x0000000000000000       0x16 build/stm32l5xx_hal_i2c.o
 .text.I2C_DMAMasterTransmitCplt
                0x0000000000000000       0x5a build/stm32l5xx_hal_i2c.o
 .text.I2C_DMAMasterReceiveCplt
                0x0000000000000000       0x5a build/stm32l5xx_hal_i2c.o
 .text.I2C_Mem_ISR_IT
                0x0000000000000000      0x188 build/stm32l5xx_hal_i2c.o
 .text.I2C_Mem_ISR_DMA
                0x0000000000000000      0x194 build/stm32l5xx_hal_i2c.o
 .text.HAL_I2C_ER_IRQHandler
                0x0000000000000000       0x6a build/stm32l5xx_hal_i2c.o
 .text.I2C_DMAAbort
                0x0000000000000000       0x1a build/stm32l5xx_hal_i2c.o
 .text.HAL_I2C_GetState
                0x0000000000000000        0x6 build/stm32l5xx_hal_i2c.o
 .text.HAL_I2C_GetMode
                0x0000000000000000        0x6 build/stm32l5xx_hal_i2c.o
 .text.HAL_I2C_GetError
                0x0000000000000000        0x4 build/stm32l5xx_hal_i2c.o
 .text          0x0000000000000000        0x0 build/stm32l5xx_hal_i2c_ex.o
 .data          0x0000000000000000        0x0 build/stm32l5xx_hal_i2c_ex.o
 .bss           0x0000000000000000        0x0 build/stm32l5xx_hal_i2c_ex.o
 .text.HAL_I2CEx_EnableWakeUp
                0x0000000000000000       0x54 build/stm32l5xx_hal_i2c_ex.o
 .text.HAL_I2CEx_DisableWakeUp
                0x0000000000000000       0x54 build/stm32l5xx_hal_i2c_ex.o
 .text.HAL_I2CEx_EnableFastModePlus
                0x0000000000000000       0x2c build/stm32l5xx_hal_i2c_ex.o
 .text.HAL_I2CEx_DisableFastModePlus
                0x0000000000000000       0x2c build/stm32l5xx_hal_i2c_ex.o
 .text          0x0000000000000000        0x0 build/stm32l5xx_hal_rcc.o
 .data          0x0000000000000000        0x0 build/stm32l5xx_hal_rcc.o
 .bss           0x0000000000000000        0x0 build/stm32l5xx_hal_rcc.o
 .text.HAL_RCC_DeInit
                0x0000000000000000      0x1d0 build/stm32l5xx_hal_rcc.o
 .text.HAL_RCC_MCOConfig
                0x0000000000000000       0x50 build/stm32l5xx_hal_rcc.o
 .text.HAL_RCC_GetOscConfig
                0x0000000000000000      0x150 build/stm32l5xx_hal_rcc.o
 .text.HAL_RCC_GetClockConfig
                0x0000000000000000       0x3c build/stm32l5xx_hal_rcc.o
 .text.HAL_RCC_EnableCSS
                0x0000000000000000       0x10 build/stm32l5xx_hal_rcc.o
 .text.HAL_RCC_CSSCallback
                0x0000000000000000        0x2 build/stm32l5xx_hal_rcc.o
 .text.HAL_RCC_NMI_IRQHandler
                0x0000000000000000       0x20 build/stm32l5xx_hal_rcc.o
 .text.HAL_RCC_GetResetSource
                0x0000000000000000       0x1c build/stm32l5xx_hal_rcc.o
 .text.HAL_RCC_ConfigAttributes
                0x0000000000000000       0x2c build/stm32l5xx_hal_rcc.o
 .text.HAL_RCC_GetConfigAttributes
                0x0000000000000000       0x24 build/stm32l5xx_hal_rcc.o
 .text          0x0000000000000000        0x0 build/stm32l5xx_hal_rcc_ex.o
 .data          0x0000000000000000        0x0 build/stm32l5xx_hal_rcc_ex.o
 .bss           0x0000000000000000        0x0 build/stm32l5xx_hal_rcc_ex.o
 .text.RCCEx_PLLSAI1_GetVCOFreq
                0x0000000000000000       0x74 build/stm32l5xx_hal_rcc_ex.o
 .text.RCCEx_PLLSAI2_GetVCOFreq
                0x0000000000000000       0x74 build/stm32l5xx_hal_rcc_ex.o
 .text.RCCEx_GetSAIxPeriphCLKFreq
                0x0000000000000000      0x13c build/stm32l5xx_hal_rcc_ex.o
 .text.RCCEx_PLLSource_Enable
                0x0000000000000000       0xf4 build/stm32l5xx_hal_rcc_ex.o
 .text.HAL_RCCEx_GetPeriphCLKConfig
                0x0000000000000000      0x188 build/stm32l5xx_hal_rcc_ex.o
 .text.HAL_RCCEx_GetPeriphCLKFreq
                0x0000000000000000      0x9e8 build/stm32l5xx_hal_rcc_ex.o
 .text.HAL_RCCEx_EnablePLLSAI1
                0x0000000000000000       0xbc build/stm32l5xx_hal_rcc_ex.o
 .text.HAL_RCCEx_DisablePLLSAI1
                0x0000000000000000       0x50 build/stm32l5xx_hal_rcc_ex.o
 .text.HAL_RCCEx_EnablePLLSAI2
                0x0000000000000000       0xa8 build/stm32l5xx_hal_rcc_ex.o
 .text.HAL_RCCEx_DisablePLLSAI2
                0x0000000000000000       0x50 build/stm32l5xx_hal_rcc_ex.o
 .text.HAL_RCCEx_WakeUpStopCLKConfig
                0x0000000000000000       0x14 build/stm32l5xx_hal_rcc_ex.o
 .text.HAL_RCCEx_StandbyMSIRangeConfig
                0x0000000000000000       0x18 build/stm32l5xx_hal_rcc_ex.o
 .text.HAL_RCCEx_EnableLSECSS
                0x0000000000000000       0x14 build/stm32l5xx_hal_rcc_ex.o
 .text.HAL_RCCEx_DisableLSECSS
                0x0000000000000000       0x14 build/stm32l5xx_hal_rcc_ex.o
 .text.HAL_RCCEx_LSECSS_Callback
                0x0000000000000000        0x2 build/stm32l5xx_hal_rcc_ex.o
 .text.HAL_RCCEx_LSECSS_IRQHandler
                0x0000000000000000       0x1c build/stm32l5xx_hal_rcc_ex.o
 .text.HAL_RCCEx_EnableLSCO
                0x0000000000000000       0xa0 build/stm32l5xx_hal_rcc_ex.o
 .text.HAL_RCCEx_DisableLSCO
                0x0000000000000000       0x6c build/stm32l5xx_hal_rcc_ex.o
 .text.HAL_RCCEx_EnableMSIPLLMode
                0x0000000000000000       0x10 build/stm32l5xx_hal_rcc_ex.o
 .text.HAL_RCCEx_DisableMSIPLLMode
                0x0000000000000000       0x10 build/stm32l5xx_hal_rcc_ex.o
 .text.HAL_RCCEx_CRSConfig
                0x0000000000000000       0x4c build/stm32l5xx_hal_rcc_ex.o
 .text.HAL_RCCEx_CRSSoftwareSynchronizationGenerate
                0x0000000000000000       0x10 build/stm32l5xx_hal_rcc_ex.o
 .text.HAL_RCCEx_CRSGetSynchronizationInfo
                0x0000000000000000       0x24 build/stm32l5xx_hal_rcc_ex.o
 .text.HAL_RCCEx_CRSWaitSynchronization
                0x0000000000000000       0xb4 build/stm32l5xx_hal_rcc_ex.o
 .text.HAL_RCCEx_CRS_SyncOkCallback
                0x0000000000000000        0x2 build/stm32l5xx_hal_rcc_ex.o
 .text.HAL_RCCEx_CRS_SyncWarnCallback
                0x0000000000000000        0x2 build/stm32l5xx_hal_rcc_ex.o
 .text.HAL_RCCEx_CRS_ExpectedSyncCallback
                0x0000000000000000        0x2 build/stm32l5xx_hal_rcc_ex.o
 .text.HAL_RCCEx_CRS_ErrorCallback
                0x0000000000000000        0x2 build/stm32l5xx_hal_rcc_ex.o
 .text.HAL_RCCEx_CRS_IRQHandler
                0x0000000000000000       0x88 build/stm32l5xx_hal_rcc_ex.o
 .text          0x0000000000000000        0x0 build/stm32l5xx_hal_flash.o
 .data          0x0000000000000000        0x0 build/stm32l5xx_hal_flash.o
 .bss           0x0000000000000000        0x0 build/stm32l5xx_hal_flash.o
 .text.FLASH_Program_DoubleWord
                0x0000000000000000       0x28 build/stm32l5xx_hal_flash.o
 .text.HAL_FLASH_EndOfOperationCallback
                0x0000000000000000        0x2 build/stm32l5xx_hal_flash.o
 .text.HAL_FLASH_OperationErrorCallback
                0x0000000000000000        0x2 build/stm32l5xx_hal_flash.o
 .text.HAL_FLASH_IRQHandler
                0x0000000000000000       0xc8 build/stm32l5xx_hal_flash.o
 .text.HAL_FLASH_Unlock
                0x0000000000000000       0x30 build/stm32l5xx_hal_flash.o
 .text.HAL_FLASH_Lock
                0x0000000000000000       0x1c build/stm32l5xx_hal_flash.o
 .text.HAL_FLASH_OB_Unlock
                0x0000000000000000       0x34 build/stm32l5xx_hal_flash.o
 .text.HAL_FLASH_OB_Lock
                0x0000000000000000       0x20 build/stm32l5xx_hal_flash.o
 .text.HAL_FLASH_OB_Launch
                0x0000000000000000       0x14 build/stm32l5xx_hal_flash.o
 .text.HAL_FLASH_GetError
                0x0000000000000000        0xc build/stm32l5xx_hal_flash.o
 .text.FLASH_WaitForLastOperation
                0x0000000000000000       0x64 build/stm32l5xx_hal_flash.o
 .text.HAL_FLASH_Program
                0x0000000000000000       0x6c build/stm32l5xx_hal_flash.o
 .text.HAL_FLASH_Program_IT
                0x0000000000000000       0x60 build/stm32l5xx_hal_flash.o
 .data.pFlash   0x0000000000000000       0x1c build/stm32l5xx_hal_flash.o
 .debug_info    0x0000000000000000      0x989 build/stm32l5xx_hal_flash.o
 .debug_abbrev  0x0000000000000000      0x38f build/stm32l5xx_hal_flash.o
 .debug_loc     0x0000000000000000      0x499 build/stm32l5xx_hal_flash.o
 .debug_aranges
                0x0000000000000000       0x80 build/stm32l5xx_hal_flash.o
 .debug_ranges  0x0000000000000000       0x70 build/stm32l5xx_hal_flash.o
 .debug_line    0x0000000000000000      0x683 build/stm32l5xx_hal_flash.o
 .debug_str     0x0000000000000000      0x596 build/stm32l5xx_hal_flash.o
 .comment       0x0000000000000000       0x46 build/stm32l5xx_hal_flash.o
 .debug_frame   0x0000000000000000      0x124 build/stm32l5xx_hal_flash.o
 .ARM.attributes
                0x0000000000000000       0x3a build/stm32l5xx_hal_flash.o
 .text          0x0000000000000000        0x0 build/stm32l5xx_hal_flash_ex.o
 .data          0x0000000000000000        0x0 build/stm32l5xx_hal_flash_ex.o
 .bss           0x0000000000000000        0x0 build/stm32l5xx_hal_flash_ex.o
 .text.FLASH_MassErase
                0x0000000000000000       0x4c build/stm32l5xx_hal_flash_ex.o
 .text.FLASH_OB_WRPConfig
                0x0000000000000000       0x60 build/stm32l5xx_hal_flash_ex.o
 .text.FLASH_OB_RDPConfig
                0x0000000000000000       0x14 build/stm32l5xx_hal_flash_ex.o
 .text.FLASH_OB_UserConfig
                0x0000000000000000      0x13c build/stm32l5xx_hal_flash_ex.o
 .text.FLASH_OB_BootAddrConfig
                0x0000000000000000       0x2c build/stm32l5xx_hal_flash_ex.o
 .text.FLASH_OB_GetWRP
                0x0000000000000000       0x68 build/stm32l5xx_hal_flash_ex.o
 .text.FLASH_OB_GetRDP
                0x0000000000000000       0x1c build/stm32l5xx_hal_flash_ex.o
 .text.FLASH_OB_GetUser
                0x0000000000000000       0x10 build/stm32l5xx_hal_flash_ex.o
 .text.FLASH_OB_GetBootAddr
                0x0000000000000000       0x28 build/stm32l5xx_hal_flash_ex.o
 .text.HAL_FLASHEx_OBProgram
                0x0000000000000000       0x90 build/stm32l5xx_hal_flash_ex.o
 .text.HAL_FLASHEx_OBGetConfig
                0x0000000000000000       0x50 build/stm32l5xx_hal_flash_ex.o
 .text.HAL_FLASHEx_ConfigPrivMode
                0x0000000000000000       0x18 build/stm32l5xx_hal_flash_ex.o
 .text.HAL_FLASHEx_GetPrivMode
                0x0000000000000000       0x10 build/stm32l5xx_hal_flash_ex.o
 .text.HAL_FLASHEx_ConfigLVEPin
                0x0000000000000000       0x6c build/stm32l5xx_hal_flash_ex.o
 .text.HAL_FLASHEx_GetLVEPin
                0x0000000000000000       0x10 build/stm32l5xx_hal_flash_ex.o
 .text.FLASH_PageErase
                0x0000000000000000       0x58 build/stm32l5xx_hal_flash_ex.o
 .text.HAL_FLASHEx_Erase
                0x0000000000000000       0xa0 build/stm32l5xx_hal_flash_ex.o
 .text.HAL_FLASHEx_Erase_IT
                0x0000000000000000       0x74 build/stm32l5xx_hal_flash_ex.o
 .debug_info    0x0000000000000000      0xb32 build/stm32l5xx_hal_flash_ex.o
 .debug_abbrev  0x0000000000000000      0x2d0 build/stm32l5xx_hal_flash_ex.o
 .debug_loc     0x0000000000000000      0x53d build/stm32l5xx_hal_flash_ex.o
 .debug_aranges
                0x0000000000000000       0xa8 build/stm32l5xx_hal_flash_ex.o
 .debug_ranges  0x0000000000000000       0x98 build/stm32l5xx_hal_flash_ex.o
 .debug_line    0x0000000000000000      0x9a5 build/stm32l5xx_hal_flash_ex.o
 .debug_str     0x0000000000000000      0x68c build/stm32l5xx_hal_flash_ex.o
 .comment       0x0000000000000000       0x46 build/stm32l5xx_hal_flash_ex.o
 .debug_frame   0x0000000000000000      0x178 build/stm32l5xx_hal_flash_ex.o
 .ARM.attributes
                0x0000000000000000       0x3a build/stm32l5xx_hal_flash_ex.o
 .text          0x0000000000000000        0x0 build/stm32l5xx_hal_flash_ramfunc.o
 .data          0x0000000000000000        0x0 build/stm32l5xx_hal_flash_ramfunc.o
 .bss           0x0000000000000000        0x0 build/stm32l5xx_hal_flash_ramfunc.o
 .RamFunc       0x0000000000000000      0x154 build/stm32l5xx_hal_flash_ramfunc.o
 .debug_info    0x0000000000000000      0x4e9 build/stm32l5xx_hal_flash_ramfunc.o
 .debug_abbrev  0x0000000000000000      0x17d build/stm32l5xx_hal_flash_ramfunc.o
 .debug_loc     0x0000000000000000       0x93 build/stm32l5xx_hal_flash_ramfunc.o
 .debug_aranges
                0x0000000000000000       0x30 build/stm32l5xx_hal_flash_ramfunc.o
 .debug_ranges  0x0000000000000000       0x20 build/stm32l5xx_hal_flash_ramfunc.o
 .debug_line    0x0000000000000000      0x340 build/stm32l5xx_hal_flash_ramfunc.o
 .debug_str     0x0000000000000000      0x434 build/stm32l5xx_hal_flash_ramfunc.o
 .comment       0x0000000000000000       0x46 build/stm32l5xx_hal_flash_ramfunc.o
 .debug_frame   0x0000000000000000       0x40 build/stm32l5xx_hal_flash_ramfunc.o
 .ARM.attributes
                0x0000000000000000       0x3a build/stm32l5xx_hal_flash_ramfunc.o
 .text          0x0000000000000000        0x0 build/stm32l5xx_hal_gpio.o
 .data          0x0000000000000000        0x0 build/stm32l5xx_hal_gpio.o
 .bss           0x0000000000000000        0x0 build/stm32l5xx_hal_gpio.o
 .text.HAL_GPIO_DeInit
                0x0000000000000000      0x128 build/stm32l5xx_hal_gpio.o
 .text.HAL_GPIO_TogglePin
                0x0000000000000000       0x12 build/stm32l5xx_hal_gpio.o
 .text.HAL_GPIO_LockPin
                0x0000000000000000       0x2e build/stm32l5xx_hal_gpio.o
 .text.HAL_GPIO_EXTI_Rising_Callback
                0x0000000000000000        0x2 build/stm32l5xx_hal_gpio.o
 .text.HAL_GPIO_EXTI_Falling_Callback
                0x0000000000000000        0x2 build/stm32l5xx_hal_gpio.o
 .text.HAL_GPIO_EXTI_IRQHandler
                0x0000000000000000       0x30 build/stm32l5xx_hal_gpio.o
 .text          0x0000000000000000        0x0 build/stm32l5xx_hal_dma.o
 .data          0x0000000000000000        0x0 build/stm32l5xx_hal_dma.o
 .bss           0x0000000000000000        0x0 build/stm32l5xx_hal_dma.o
 .text.DMA_SetConfig
                0x0000000000000000       0x42 build/stm32l5xx_hal_dma.o
 .text.DMA_CalcDMAMUXChannelBaseAndMask
                0x0000000000000000       0x54 build/stm32l5xx_hal_dma.o
 .text.DMA_CalcDMAMUXRequestGenBaseAndMask
                0x0000000000000000       0x28 build/stm32l5xx_hal_dma.o
 .text.HAL_DMA_Init
                0x0000000000000000       0xd8 build/stm32l5xx_hal_dma.o
 .text.HAL_DMA_DeInit
                0x0000000000000000       0xbc build/stm32l5xx_hal_dma.o
 .text.HAL_DMA_Start
                0x0000000000000000       0x52 build/stm32l5xx_hal_dma.o
 .text.HAL_DMA_Start_IT
                0x0000000000000000       0x94 build/stm32l5xx_hal_dma.o
 .text.HAL_DMA_Abort
                0x0000000000000000       0x6c build/stm32l5xx_hal_dma.o
 .text.HAL_DMA_Abort_IT
                0x0000000000000000       0x72 build/stm32l5xx_hal_dma.o
 .text.HAL_DMA_PollForTransfer
                0x0000000000000000      0x11c build/stm32l5xx_hal_dma.o
 .text.HAL_DMA_IRQHandler
                0x0000000000000000      0x10e build/stm32l5xx_hal_dma.o
 .text.HAL_DMA_RegisterCallback
                0x0000000000000000       0x5a build/stm32l5xx_hal_dma.o
 .text.HAL_DMA_UnRegisterCallback
                0x0000000000000000       0x6e build/stm32l5xx_hal_dma.o
 .text.HAL_DMA_GetState
                0x0000000000000000        0x6 build/stm32l5xx_hal_dma.o
 .text.HAL_DMA_GetError
                0x0000000000000000        0x4 build/stm32l5xx_hal_dma.o
 .text.HAL_DMA_ConfigChannelAttributes
                0x0000000000000000       0x26 build/stm32l5xx_hal_dma.o
 .text.HAL_DMA_GetConfigChannelAttributes
                0x0000000000000000       0x24 build/stm32l5xx_hal_dma.o
 .debug_info    0x0000000000000000      0xc17 build/stm32l5xx_hal_dma.o
 .debug_abbrev  0x0000000000000000      0x275 build/stm32l5xx_hal_dma.o
 .debug_loc     0x0000000000000000      0xb24 build/stm32l5xx_hal_dma.o
 .debug_aranges
                0x0000000000000000       0xa0 build/stm32l5xx_hal_dma.o
 .debug_ranges  0x0000000000000000       0x90 build/stm32l5xx_hal_dma.o
 .debug_line    0x0000000000000000      0xdcd build/stm32l5xx_hal_dma.o
 .debug_str     0x0000000000000000      0x83a build/stm32l5xx_hal_dma.o
 .comment       0x0000000000000000       0x46 build/stm32l5xx_hal_dma.o
 .debug_frame   0x0000000000000000      0x190 build/stm32l5xx_hal_dma.o
 .ARM.attributes
                0x0000000000000000       0x3a build/stm32l5xx_hal_dma.o
 .text          0x0000000000000000        0x0 build/stm32l5xx_hal_dma_ex.o
 .data          0x0000000000000000        0x0 build/stm32l5xx_hal_dma_ex.o
 .bss           0x0000000000000000        0x0 build/stm32l5xx_hal_dma_ex.o
 .text.DMA_MultiBufferSetConfig
                0x0000000000000000       0x24 build/stm32l5xx_hal_dma_ex.o
 .text.HAL_DMAEx_MultiBufferStart
                0x0000000000000000       0x8c build/stm32l5xx_hal_dma_ex.o
 .text.HAL_DMAEx_MultiBufferStart_IT
                0x0000000000000000       0xd8 build/stm32l5xx_hal_dma_ex.o
 .text.HAL_DMAEx_ChangeMemory
                0x0000000000000000       0x10 build/stm32l5xx_hal_dma_ex.o
 .text.HAL_DMAEx_ConfigMuxSync
                0x0000000000000000       0x56 build/stm32l5xx_hal_dma_ex.o
 .text.HAL_DMAEx_ConfigMuxRequestGenerator
                0x0000000000000000       0x44 build/stm32l5xx_hal_dma_ex.o
 .text.HAL_DMAEx_EnableMuxRequestGenerator
                0x0000000000000000       0x1e build/stm32l5xx_hal_dma_ex.o
 .text.HAL_DMAEx_DisableMuxRequestGenerator
                0x0000000000000000       0x1e build/stm32l5xx_hal_dma_ex.o
 .text.HAL_DMAEx_MUX_IRQHandler
                0x0000000000000000       0x5a build/stm32l5xx_hal_dma_ex.o
 .debug_info    0x0000000000000000      0x8f5 build/stm32l5xx_hal_dma_ex.o
 .debug_abbrev  0x0000000000000000      0x213 build/stm32l5xx_hal_dma_ex.o
 .debug_loc     0x0000000000000000      0x680 build/stm32l5xx_hal_dma_ex.o
 .debug_aranges
                0x0000000000000000       0x60 build/stm32l5xx_hal_dma_ex.o
 .debug_ranges  0x0000000000000000       0x50 build/stm32l5xx_hal_dma_ex.o
 .debug_line    0x0000000000000000      0x6d0 build/stm32l5xx_hal_dma_ex.o
 .debug_str     0x0000000000000000      0x73f build/stm32l5xx_hal_dma_ex.o
 .comment       0x0000000000000000       0x46 build/stm32l5xx_hal_dma_ex.o
 .debug_frame   0x0000000000000000       0xe8 build/stm32l5xx_hal_dma_ex.o
 .ARM.attributes
                0x0000000000000000       0x3a build/stm32l5xx_hal_dma_ex.o
 .text          0x0000000000000000        0x0 build/stm32l5xx_hal_exti.o
 .data          0x0000000000000000        0x0 build/stm32l5xx_hal_exti.o
 .bss           0x0000000000000000        0x0 build/stm32l5xx_hal_exti.o
 .text.HAL_EXTI_SetConfigLine
                0x0000000000000000       0xdc build/stm32l5xx_hal_exti.o
 .text.HAL_EXTI_GetConfigLine
                0x0000000000000000       0xc0 build/stm32l5xx_hal_exti.o
 .text.HAL_EXTI_ClearConfigLine
                0x0000000000000000       0x9c build/stm32l5xx_hal_exti.o
 .text.HAL_EXTI_RegisterCallback
                0x0000000000000000       0x22 build/stm32l5xx_hal_exti.o
 .text.HAL_EXTI_GetHandle
                0x0000000000000000        0xc build/stm32l5xx_hal_exti.o
 .text.HAL_EXTI_IRQHandler
                0x0000000000000000       0x40 build/stm32l5xx_hal_exti.o
 .text.HAL_EXTI_GetPending
                0x0000000000000000       0x30 build/stm32l5xx_hal_exti.o
 .text.HAL_EXTI_ClearPending
                0x0000000000000000       0x30 build/stm32l5xx_hal_exti.o
 .text.HAL_EXTI_GenerateSWI
                0x0000000000000000       0x1c build/stm32l5xx_hal_exti.o
 .text.HAL_EXTI_ConfigLineAttributes
                0x0000000000000000       0x38 build/stm32l5xx_hal_exti.o
 .text.HAL_EXTI_GetConfigLineAttributes
                0x0000000000000000       0x34 build/stm32l5xx_hal_exti.o
 .debug_info    0x0000000000000000      0x9b1 build/stm32l5xx_hal_exti.o
 .debug_abbrev  0x0000000000000000      0x1dc build/stm32l5xx_hal_exti.o
 .debug_loc     0x0000000000000000      0xf28 build/stm32l5xx_hal_exti.o
 .debug_aranges
                0x0000000000000000       0x70 build/stm32l5xx_hal_exti.o
 .debug_ranges  0x0000000000000000       0x60 build/stm32l5xx_hal_exti.o
 .debug_line    0x0000000000000000      0x8a6 build/stm32l5xx_hal_exti.o
 .debug_str     0x0000000000000000      0x4e3 build/stm32l5xx_hal_exti.o
 .comment       0x0000000000000000       0x46 build/stm32l5xx_hal_exti.o
 .debug_frame   0x0000000000000000      0x128 build/stm32l5xx_hal_exti.o
 .ARM.attributes
                0x0000000000000000       0x3a build/stm32l5xx_hal_exti.o
 .text          0x0000000000000000        0x0 build/stm32l5xx_hal_pwr.o
 .data          0x0000000000000000        0x0 build/stm32l5xx_hal_pwr.o
 .bss           0x0000000000000000        0x0 build/stm32l5xx_hal_pwr.o
 .text.HAL_PWR_DeInit
                0x0000000000000000       0x18 build/stm32l5xx_hal_pwr.o
 .text.HAL_PWR_EnableBkUpAccess
                0x0000000000000000       0x10 build/stm32l5xx_hal_pwr.o
 .text.HAL_PWR_DisableBkUpAccess
                0x0000000000000000       0x10 build/stm32l5xx_hal_pwr.o
 .text.HAL_PWR_ConfigPVD
                0x0000000000000000       0x94 build/stm32l5xx_hal_pwr.o
 .text.HAL_PWR_EnablePVD
                0x0000000000000000       0x10 build/stm32l5xx_hal_pwr.o
 .text.HAL_PWR_DisablePVD
                0x0000000000000000       0x10 build/stm32l5xx_hal_pwr.o
 .text.HAL_PWR_EnableWakeUpPin
                0x0000000000000000       0x20 build/stm32l5xx_hal_pwr.o
 .text.HAL_PWR_DisableWakeUpPin
                0x0000000000000000       0x14 build/stm32l5xx_hal_pwr.o
 .text.HAL_PWR_EnterSLEEPMode
                0x0000000000000000       0x4c build/stm32l5xx_hal_pwr.o
 .text.HAL_PWR_EnterSTOPMode
                0x0000000000000000       0x18 build/stm32l5xx_hal_pwr.o
 .text.HAL_PWR_EnterSTANDBYMode
                0x0000000000000000       0x24 build/stm32l5xx_hal_pwr.o
 .text.HAL_PWR_EnableSleepOnExit
                0x0000000000000000       0x10 build/stm32l5xx_hal_pwr.o
 .text.HAL_PWR_DisableSleepOnExit
                0x0000000000000000       0x10 build/stm32l5xx_hal_pwr.o
 .text.HAL_PWR_EnableSEVOnPend
                0x0000000000000000       0x10 build/stm32l5xx_hal_pwr.o
 .text.HAL_PWR_DisableSEVOnPend
                0x0000000000000000       0x10 build/stm32l5xx_hal_pwr.o
 .text.HAL_PWR_PVDCallback
                0x0000000000000000        0x2 build/stm32l5xx_hal_pwr.o
 .text.HAL_PWR_ConfigAttributes
                0x0000000000000000       0x34 build/stm32l5xx_hal_pwr.o
 .text.HAL_PWR_GetConfigAttributes
                0x0000000000000000       0x28 build/stm32l5xx_hal_pwr.o
 .debug_info    0x0000000000000000      0xef9 build/stm32l5xx_hal_pwr.o
 .debug_abbrev  0x0000000000000000      0x20a build/stm32l5xx_hal_pwr.o
 .debug_loc     0x0000000000000000      0x248 build/stm32l5xx_hal_pwr.o
 .debug_aranges
                0x0000000000000000       0xa8 build/stm32l5xx_hal_pwr.o
 .debug_ranges  0x0000000000000000       0x98 build/stm32l5xx_hal_pwr.o
 .debug_line    0x0000000000000000      0x4c6 build/stm32l5xx_hal_pwr.o
 .debug_str     0x0000000000000000      0x840 build/stm32l5xx_hal_pwr.o
 .comment       0x0000000000000000       0x46 build/stm32l5xx_hal_pwr.o
 .debug_frame   0x0000000000000000      0x140 build/stm32l5xx_hal_pwr.o
 .ARM.attributes
                0x0000000000000000       0x3a build/stm32l5xx_hal_pwr.o
 .text          0x0000000000000000        0x0 build/stm32l5xx_hal_pwr_ex.o
 .data          0x0000000000000000        0x0 build/stm32l5xx_hal_pwr_ex.o
 .bss           0x0000000000000000        0x0 build/stm32l5xx_hal_pwr_ex.o
 .text.HAL_PWREx_EnableBatteryCharging
                0x0000000000000000       0x1c build/stm32l5xx_hal_pwr_ex.o
 .text.HAL_PWREx_DisableBatteryCharging
                0x0000000000000000       0x10 build/stm32l5xx_hal_pwr_ex.o
 .text.HAL_PWREx_DisableVddUSB
                0x0000000000000000       0x10 build/stm32l5xx_hal_pwr_ex.o
 .text.HAL_PWREx_EnableVddIO2
                0x0000000000000000       0x10 build/stm32l5xx_hal_pwr_ex.o
 .text.HAL_PWREx_DisableVddIO2
                0x0000000000000000       0x10 build/stm32l5xx_hal_pwr_ex.o
 .text.HAL_PWREx_EnableGPIOPullUp
                0x0000000000000000       0xc8 build/stm32l5xx_hal_pwr_ex.o
 .text.HAL_PWREx_DisableGPIOPullUp
                0x0000000000000000       0x90 build/stm32l5xx_hal_pwr_ex.o
 .text.HAL_PWREx_EnableGPIOPullDown
                0x0000000000000000       0xc8 build/stm32l5xx_hal_pwr_ex.o
 .text.HAL_PWREx_DisableGPIOPullDown
                0x0000000000000000       0x94 build/stm32l5xx_hal_pwr_ex.o
 .text.HAL_PWREx_EnablePullUpPullDownConfig
                0x0000000000000000       0x10 build/stm32l5xx_hal_pwr_ex.o
 .text.HAL_PWREx_DisablePullUpPullDownConfig
                0x0000000000000000       0x10 build/stm32l5xx_hal_pwr_ex.o
 .text.HAL_PWREx_ConfigSRAM2ContentRetention
                0x0000000000000000       0x14 build/stm32l5xx_hal_pwr_ex.o
 .text.HAL_PWREx_EnableSRAM2ContentRetention
                0x0000000000000000        0xc build/stm32l5xx_hal_pwr_ex.o
 .text.HAL_PWREx_DisableSRAM2ContentRetention
                0x0000000000000000        0xa build/stm32l5xx_hal_pwr_ex.o
 .text.HAL_PWREx_EnablePVM1
                0x0000000000000000       0x10 build/stm32l5xx_hal_pwr_ex.o
 .text.HAL_PWREx_DisablePVM1
                0x0000000000000000       0x10 build/stm32l5xx_hal_pwr_ex.o
 .text.HAL_PWREx_EnablePVM2
                0x0000000000000000       0x10 build/stm32l5xx_hal_pwr_ex.o
 .text.HAL_PWREx_DisablePVM2
                0x0000000000000000       0x10 build/stm32l5xx_hal_pwr_ex.o
 .text.HAL_PWREx_EnablePVM3
                0x0000000000000000       0x10 build/stm32l5xx_hal_pwr_ex.o
 .text.HAL_PWREx_DisablePVM3
                0x0000000000000000       0x10 build/stm32l5xx_hal_pwr_ex.o
 .text.HAL_PWREx_EnablePVM4
                0x0000000000000000       0x10 build/stm32l5xx_hal_pwr_ex.o
 .text.HAL_PWREx_DisablePVM4
                0x0000000000000000       0x10 build/stm32l5xx_hal_pwr_ex.o
 .text.HAL_PWREx_ConfigPVM
                0x0000000000000000      0x230 build/stm32l5xx_hal_pwr_ex.o
 .text.HAL_PWREx_EnableLowPowerRunMode
                0x0000000000000000       0x10 build/stm32l5xx_hal_pwr_ex.o
 .text.HAL_PWREx_DisableLowPowerRunMode
                0x0000000000000000       0x60 build/stm32l5xx_hal_pwr_ex.o
 .text.HAL_PWREx_EnterSTOP0Mode
                0x0000000000000000       0x38 build/stm32l5xx_hal_pwr_ex.o
 .text.HAL_PWREx_EnterSTOP1Mode
                0x0000000000000000       0x3c build/stm32l5xx_hal_pwr_ex.o
 .text.HAL_PWREx_EnterSTOP2Mode
                0x0000000000000000       0x3c build/stm32l5xx_hal_pwr_ex.o
 .text.HAL_PWREx_EnterSHUTDOWNMode
                0x0000000000000000       0x24 build/stm32l5xx_hal_pwr_ex.o
 .text.HAL_PWREx_PVM1Callback
                0x0000000000000000        0x2 build/stm32l5xx_hal_pwr_ex.o
 .text.HAL_PWREx_PVM2Callback
                0x0000000000000000        0x2 build/stm32l5xx_hal_pwr_ex.o
 .text.HAL_PWREx_PVM3Callback
                0x0000000000000000        0x2 build/stm32l5xx_hal_pwr_ex.o
 .text.HAL_PWREx_PVM4Callback
                0x0000000000000000        0x2 build/stm32l5xx_hal_pwr_ex.o
 .text.HAL_PWREx_PVD_PVM_IRQHandler
                0x0000000000000000       0x80 build/stm32l5xx_hal_pwr_ex.o
 .text.HAL_PWREx_EnableUCPDStandbyMode
                0x0000000000000000       0x10 build/stm32l5xx_hal_pwr_ex.o
 .text.HAL_PWREx_DisableUCPDStandbyMode
                0x0000000000000000       0x10 build/stm32l5xx_hal_pwr_ex.o
 .text.HAL_PWREx_EnableUCPDDeadBattery
                0x0000000000000000       0x10 build/stm32l5xx_hal_pwr_ex.o
 .text.HAL_PWREx_EnableUltraLowPowerMode
                0x0000000000000000       0x10 build/stm32l5xx_hal_pwr_ex.o
 .text.HAL_PWREx_DisableUltraLowPowerMode
                0x0000000000000000       0x10 build/stm32l5xx_hal_pwr_ex.o
 .text.HAL_PWREx_SMPS_EnableFastStart
                0x0000000000000000       0x10 build/stm32l5xx_hal_pwr_ex.o
 .text.HAL_PWREx_SMPS_DisableFastStart
                0x0000000000000000       0x10 build/stm32l5xx_hal_pwr_ex.o
 .text.HAL_PWREx_SMPS_DisableBypassMode
                0x0000000000000000       0x10 build/stm32l5xx_hal_pwr_ex.o
 .text.HAL_PWREx_SMPS_EnableBypassMode
                0x0000000000000000       0x10 build/stm32l5xx_hal_pwr_ex.o
 .text.HAL_PWREx_SMPS_SetMode
                0x0000000000000000       0x94 build/stm32l5xx_hal_pwr_ex.o
 .text.HAL_PWREx_SMPS_EnableExternal
                0x0000000000000000       0x10 build/stm32l5xx_hal_pwr_ex.o
 .text.HAL_PWREx_SMPS_DisableExternal
                0x0000000000000000       0x10 build/stm32l5xx_hal_pwr_ex.o
 .text.HAL_PWREx_SMPS_GetMainRegulatorExtSMPSReadyStatus
                0x0000000000000000       0x18 build/stm32l5xx_hal_pwr_ex.o
 .text          0x0000000000000000        0x0 build/stm32l5xx_hal_cortex.o
 .data          0x0000000000000000        0x0 build/stm32l5xx_hal_cortex.o
 .bss           0x0000000000000000        0x0 build/stm32l5xx_hal_cortex.o
 .text.__NVIC_DisableIRQ
                0x0000000000000000       0x24 build/stm32l5xx_hal_cortex.o
 .text.__NVIC_GetPriority
                0x0000000000000000       0x24 build/stm32l5xx_hal_cortex.o
 .text.NVIC_DecodePriority
                0x0000000000000000       0x3e build/stm32l5xx_hal_cortex.o
 .text.__NVIC_SystemReset
                0x0000000000000000       0x24 build/stm32l5xx_hal_cortex.o
 .text.MPU_ConfigRegion
                0x0000000000000000       0x40 build/stm32l5xx_hal_cortex.o
 .text.MPU_ConfigMemoryAttributes
                0x0000000000000000       0x30 build/stm32l5xx_hal_cortex.o
 .text.HAL_NVIC_DisableIRQ
                0x0000000000000000        0x8 build/stm32l5xx_hal_cortex.o
 .text.HAL_NVIC_SystemReset
                0x0000000000000000        0x6 build/stm32l5xx_hal_cortex.o
 .text.HAL_NVIC_GetPriorityGrouping
                0x0000000000000000       0x10 build/stm32l5xx_hal_cortex.o
 .text.HAL_NVIC_GetPriority
                0x0000000000000000       0x18 build/stm32l5xx_hal_cortex.o
 .text.HAL_NVIC_SetPendingIRQ
                0x0000000000000000       0x1c build/stm32l5xx_hal_cortex.o
 .text.HAL_NVIC_GetPendingIRQ
                0x0000000000000000       0x24 build/stm32l5xx_hal_cortex.o
 .text.HAL_NVIC_ClearPendingIRQ
                0x0000000000000000       0x1c build/stm32l5xx_hal_cortex.o
 .text.HAL_NVIC_GetActive
                0x0000000000000000       0x24 build/stm32l5xx_hal_cortex.o
 .text.HAL_SYSTICK_CLKSourceConfig
                0x0000000000000000       0x20 build/stm32l5xx_hal_cortex.o
 .text.HAL_SYSTICK_Callback
                0x0000000000000000        0x2 build/stm32l5xx_hal_cortex.o
 .text.HAL_SYSTICK_IRQHandler
                0x0000000000000000        0x8 build/stm32l5xx_hal_cortex.o
 .text.HAL_MPU_Enable
                0x0000000000000000       0x20 build/stm32l5xx_hal_cortex.o
 .text.HAL_MPU_Disable
                0x0000000000000000       0x18 build/stm32l5xx_hal_cortex.o
 .text.HAL_MPU_ConfigRegion
                0x0000000000000000       0x10 build/stm32l5xx_hal_cortex.o
 .text.HAL_MPU_ConfigMemoryAttributes
                0x0000000000000000       0x10 build/stm32l5xx_hal_cortex.o
 .text          0x0000000000000000        0x0 build/stm32l5xx_hal_icache.o
 .data          0x0000000000000000        0x0 build/stm32l5xx_hal_icache.o
 .bss           0x0000000000000000        0x0 build/stm32l5xx_hal_icache.o
 .text.HAL_ICACHE_Disable
                0x0000000000000000       0x40 build/stm32l5xx_hal_icache.o
 .text.HAL_ICACHE_IsEnabled
                0x0000000000000000       0x10 build/stm32l5xx_hal_icache.o
 .text.HAL_ICACHE_Invalidate_IT
                0x0000000000000000       0x2c build/stm32l5xx_hal_icache.o
 .text.HAL_ICACHE_WaitForInvalidateComplete
                0x0000000000000000       0x4c build/stm32l5xx_hal_icache.o
 .text.HAL_ICACHE_Invalidate
                0x0000000000000000       0x28 build/stm32l5xx_hal_icache.o
 .text.HAL_ICACHE_Monitor_Start
                0x0000000000000000       0x10 build/stm32l5xx_hal_icache.o
 .text.HAL_ICACHE_Monitor_Stop
                0x0000000000000000       0x14 build/stm32l5xx_hal_icache.o
 .text.HAL_ICACHE_Monitor_Reset
                0x0000000000000000       0x1c build/stm32l5xx_hal_icache.o
 .text.HAL_ICACHE_Monitor_GetHitValue
                0x0000000000000000        0xc build/stm32l5xx_hal_icache.o
 .text.HAL_ICACHE_Monitor_GetMissValue
                0x0000000000000000        0xc build/stm32l5xx_hal_icache.o
 .text.HAL_ICACHE_InvalidateCompleteCallback
                0x0000000000000000        0x2 build/stm32l5xx_hal_icache.o
 .text.HAL_ICACHE_ErrorCallback
                0x0000000000000000        0x2 build/stm32l5xx_hal_icache.o
 .text.HAL_ICACHE_IRQHandler
                0x0000000000000000       0x44 build/stm32l5xx_hal_icache.o
 .text.HAL_ICACHE_EnableRemapRegion
                0x0000000000000000       0x5c build/stm32l5xx_hal_icache.o
 .text.HAL_ICACHE_DisableRemapRegion
                0x0000000000000000       0x28 build/stm32l5xx_hal_icache.o
 .text.HAL_ICACHE_DeInit
                0x0000000000000000       0x40 build/stm32l5xx_hal_icache.o
 .text          0x0000000000000000        0x0 build/stm32l5xx_hal_tim.o
 .data          0x0000000000000000        0x0 build/stm32l5xx_hal_tim.o
 .bss           0x0000000000000000        0x0 build/stm32l5xx_hal_tim.o
 .debug_info    0x0000000000000000       0x6b build/stm32l5xx_hal_tim.o
 .debug_abbrev  0x0000000000000000       0x26 build/stm32l5xx_hal_tim.o
 .debug_aranges
                0x0000000000000000       0x18 build/stm32l5xx_hal_tim.o
 .debug_line    0x0000000000000000       0x55 build/stm32l5xx_hal_tim.o
 .debug_str     0x0000000000000000      0x191 build/stm32l5xx_hal_tim.o
 .comment       0x0000000000000000       0x46 build/stm32l5xx_hal_tim.o
 .ARM.attributes
                0x0000000000000000       0x3a build/stm32l5xx_hal_tim.o
 .text          0x0000000000000000        0x0 build/stm32l5xx_hal_tim_ex.o
 .data          0x0000000000000000        0x0 build/stm32l5xx_hal_tim_ex.o
 .bss           0x0000000000000000        0x0 build/stm32l5xx_hal_tim_ex.o
 .debug_info    0x0000000000000000       0x6b build/stm32l5xx_hal_tim_ex.o
 .debug_abbrev  0x0000000000000000       0x26 build/stm32l5xx_hal_tim_ex.o
 .debug_aranges
                0x0000000000000000       0x18 build/stm32l5xx_hal_tim_ex.o
 .debug_line    0x0000000000000000       0x58 build/stm32l5xx_hal_tim_ex.o
 .debug_str     0x0000000000000000      0x194 build/stm32l5xx_hal_tim_ex.o
 .comment       0x0000000000000000       0x46 build/stm32l5xx_hal_tim_ex.o
 .ARM.attributes
                0x0000000000000000       0x3a build/stm32l5xx_hal_tim_ex.o
 .text          0x0000000000000000        0x0 build/stm32l5xx_hal_uart.o
 .data          0x0000000000000000        0x0 build/stm32l5xx_hal_uart.o
 .bss           0x0000000000000000        0x0 build/stm32l5xx_hal_uart.o
 .text.UART_EndTxTransfer
                0x0000000000000000       0x32 build/stm32l5xx_hal_uart.o
 .text.UART_TxISR_8BIT
                0x0000000000000000       0x56 build/stm32l5xx_hal_uart.o
 .text.UART_TxISR_16BIT
                0x0000000000000000       0x5a build/stm32l5xx_hal_uart.o
 .text.UART_TxISR_8BIT_FIFOEN
                0x0000000000000000       0x74 build/stm32l5xx_hal_uart.o
 .text.UART_TxISR_16BIT_FIFOEN
                0x0000000000000000       0x78 build/stm32l5xx_hal_uart.o
 .text.HAL_UART_MspInit
                0x0000000000000000        0x2 build/stm32l5xx_hal_uart.o
 .text.HAL_UART_MspDeInit
                0x0000000000000000        0x2 build/stm32l5xx_hal_uart.o
 .text.HAL_UART_DeInit
                0x0000000000000000       0x44 build/stm32l5xx_hal_uart.o
 .text.HAL_UART_Transmit_IT
                0x0000000000000000       0xac build/stm32l5xx_hal_uart.o
 .text.HAL_UART_Transmit_DMA
                0x0000000000000000       0xa0 build/stm32l5xx_hal_uart.o
 .text.HAL_UART_DMAPause
                0x0000000000000000       0x8c build/stm32l5xx_hal_uart.o
 .text.HAL_UART_DMAResume
                0x0000000000000000       0x7c build/stm32l5xx_hal_uart.o
 .text.HAL_UART_DMAStop
                0x0000000000000000       0xb2 build/stm32l5xx_hal_uart.o
 .text.HAL_UART_Abort
                0x0000000000000000      0x122 build/stm32l5xx_hal_uart.o
 .text.HAL_UART_AbortTransmit
                0x0000000000000000       0x98 build/stm32l5xx_hal_uart.o
 .text.HAL_UART_AbortReceive
                0x0000000000000000       0xb8 build/stm32l5xx_hal_uart.o
 .text.HAL_UART_TxCpltCallback
                0x0000000000000000        0x2 build/stm32l5xx_hal_uart.o
 .text.UART_DMATransmitCplt
                0x0000000000000000       0x48 build/stm32l5xx_hal_uart.o
 .text.UART_EndTransmit_IT
                0x0000000000000000       0x24 build/stm32l5xx_hal_uart.o
 .text.HAL_UART_TxHalfCpltCallback
                0x0000000000000000        0x2 build/stm32l5xx_hal_uart.o
 .text.UART_DMATxHalfCplt
                0x0000000000000000        0xa build/stm32l5xx_hal_uart.o
 .text.HAL_UART_RxCpltCallback
                0x0000000000000000        0x2 build/stm32l5xx_hal_uart.o
 .text.HAL_UART_RxHalfCpltCallback
                0x0000000000000000        0x2 build/stm32l5xx_hal_uart.o
 .text.HAL_UART_ErrorCallback
                0x0000000000000000        0x2 build/stm32l5xx_hal_uart.o
 .text.UART_DMAError
                0x0000000000000000       0x58 build/stm32l5xx_hal_uart.o
 .text.UART_DMAAbortOnError
                0x0000000000000000       0x14 build/stm32l5xx_hal_uart.o
 .text.HAL_UART_AbortCpltCallback
                0x0000000000000000        0x2 build/stm32l5xx_hal_uart.o
 .text.HAL_UART_Abort_IT
                0x0000000000000000      0x150 build/stm32l5xx_hal_uart.o
 .text.UART_DMARxAbortCallback
                0x0000000000000000       0x44 build/stm32l5xx_hal_uart.o
 .text.UART_DMATxAbortCallback
                0x0000000000000000       0x50 build/stm32l5xx_hal_uart.o
 .text.HAL_UART_AbortTransmitCpltCallback
                0x0000000000000000        0x2 build/stm32l5xx_hal_uart.o
 .text.HAL_UART_AbortTransmit_IT
                0x0000000000000000       0xac build/stm32l5xx_hal_uart.o
 .text.UART_DMATxOnlyAbortCallback
                0x0000000000000000       0x2a build/stm32l5xx_hal_uart.o
 .text.HAL_UART_AbortReceiveCpltCallback
                0x0000000000000000        0x2 build/stm32l5xx_hal_uart.o
 .text.HAL_UART_AbortReceive_IT
                0x0000000000000000       0xd8 build/stm32l5xx_hal_uart.o
 .text.UART_DMARxOnlyAbortCallback
                0x0000000000000000       0x28 build/stm32l5xx_hal_uart.o
 .text.HAL_UARTEx_RxEventCallback
                0x0000000000000000        0x2 build/stm32l5xx_hal_uart.o
 .text.HAL_UART_IRQHandler
                0x0000000000000000      0x344 build/stm32l5xx_hal_uart.o
 .text.UART_RxISR_8BIT
                0x0000000000000000       0xdc build/stm32l5xx_hal_uart.o
 .text.UART_RxISR_16BIT
                0x0000000000000000       0xd8 build/stm32l5xx_hal_uart.o
 .text.UART_RxISR_8BIT_FIFOEN
                0x0000000000000000      0x1cc build/stm32l5xx_hal_uart.o
 .text.UART_RxISR_16BIT_FIFOEN
                0x0000000000000000      0x1c8 build/stm32l5xx_hal_uart.o
 .text.UART_DMARxHalfCplt
                0x0000000000000000       0x20 build/stm32l5xx_hal_uart.o
 .text.UART_DMAReceiveCplt
                0x0000000000000000       0x92 build/stm32l5xx_hal_uart.o
 .text.HAL_UART_ReceiverTimeout_Config
                0x0000000000000000       0x18 build/stm32l5xx_hal_uart.o
 .text.HAL_UART_EnableReceiverTimeout
                0x0000000000000000       0x4c build/stm32l5xx_hal_uart.o
 .text.HAL_UART_DisableReceiverTimeout
                0x0000000000000000       0x4c build/stm32l5xx_hal_uart.o
 .text.HAL_MultiProcessor_EnterMuteMode
                0x0000000000000000        0xc build/stm32l5xx_hal_uart.o
 .text.HAL_HalfDuplex_EnableTransmitter
                0x0000000000000000       0x4c build/stm32l5xx_hal_uart.o
 .text.HAL_HalfDuplex_EnableReceiver
                0x0000000000000000       0x4c build/stm32l5xx_hal_uart.o
 .text.HAL_LIN_SendBreak
                0x0000000000000000       0x32 build/stm32l5xx_hal_uart.o
 .text.HAL_UART_GetState
                0x0000000000000000        0xc build/stm32l5xx_hal_uart.o
 .text.HAL_UART_GetError
                0x0000000000000000        0x6 build/stm32l5xx_hal_uart.o
 .text.HAL_UART_Transmit
                0x0000000000000000       0xd2 build/stm32l5xx_hal_uart.o
 .text.HAL_UART_Receive
                0x0000000000000000      0x118 build/stm32l5xx_hal_uart.o
 .text.HAL_HalfDuplex_Init
                0x0000000000000000       0x72 build/stm32l5xx_hal_uart.o
 .text.HAL_LIN_Init
                0x0000000000000000       0x96 build/stm32l5xx_hal_uart.o
 .text.HAL_MultiProcessor_Init
                0x0000000000000000       0x8e build/stm32l5xx_hal_uart.o
 .text.HAL_MultiProcessor_EnableMuteMode
                0x0000000000000000       0x38 build/stm32l5xx_hal_uart.o
 .text.HAL_MultiProcessor_DisableMuteMode
                0x0000000000000000       0x38 build/stm32l5xx_hal_uart.o
 .text.UART_Start_Receive_IT
                0x0000000000000000      0x13c build/stm32l5xx_hal_uart.o
 .text.HAL_UART_Receive_IT
                0x0000000000000000       0x4c build/stm32l5xx_hal_uart.o
 .text.UART_Start_Receive_DMA
                0x0000000000000000       0xb0 build/stm32l5xx_hal_uart.o
 .text.HAL_UART_Receive_DMA
                0x0000000000000000       0x4c build/stm32l5xx_hal_uart.o
 .text          0x0000000000000000        0x0 build/stm32l5xx_hal_uart_ex.o
 .data          0x0000000000000000        0x0 build/stm32l5xx_hal_uart_ex.o
 .bss           0x0000000000000000        0x0 build/stm32l5xx_hal_uart_ex.o
 .text.UARTEx_Wakeup_AddressConfig
                0x0000000000000000       0x2e build/stm32l5xx_hal_uart_ex.o
 .text.HAL_RS485Ex_Init
                0x0000000000000000       0x86 build/stm32l5xx_hal_uart_ex.o
 .text.HAL_UARTEx_WakeupCallback
                0x0000000000000000        0x2 build/stm32l5xx_hal_uart_ex.o
 .text.HAL_UARTEx_RxFifoFullCallback
                0x0000000000000000        0x2 build/stm32l5xx_hal_uart_ex.o
 .text.HAL_UARTEx_TxFifoEmptyCallback
                0x0000000000000000        0x2 build/stm32l5xx_hal_uart_ex.o
 .text.HAL_MultiProcessorEx_AddressLength_Set
                0x0000000000000000       0x38 build/stm32l5xx_hal_uart_ex.o
 .text.HAL_UARTEx_StopModeWakeUpSourceConfig
                0x0000000000000000       0x82 build/stm32l5xx_hal_uart_ex.o
 .text.HAL_UARTEx_EnableStopMode
                0x0000000000000000       0x2e build/stm32l5xx_hal_uart_ex.o
 .text.HAL_UARTEx_DisableStopMode
                0x0000000000000000       0x2e build/stm32l5xx_hal_uart_ex.o
 .text.HAL_UARTEx_EnableFifoMode
                0x0000000000000000       0x48 build/stm32l5xx_hal_uart_ex.o
 .text.HAL_UARTEx_ReceiveToIdle
                0x0000000000000000      0x162 build/stm32l5xx_hal_uart_ex.o
 .text.HAL_UARTEx_ReceiveToIdle_IT
                0x0000000000000000       0x50 build/stm32l5xx_hal_uart_ex.o
 .text.HAL_UARTEx_ReceiveToIdle_DMA
                0x0000000000000000       0x50 build/stm32l5xx_hal_uart_ex.o
 .text.HAL_UARTEx_GetRxEventType
                0x0000000000000000        0x4 build/stm32l5xx_hal_uart_ex.o
 .text          0x0000000000000000        0x0 build/system_stm32l5xx.o
 .data          0x0000000000000000        0x0 build/system_stm32l5xx.o
 .bss           0x0000000000000000        0x0 build/system_stm32l5xx.o
 .text          0x0000000000000000        0x0 build/usbd_core.o
 .data          0x0000000000000000        0x0 build/usbd_core.o
 .bss           0x0000000000000000        0x0 build/usbd_core.o
 .text.USBD_DeInit
                0x0000000000000000       0x32 build/usbd_core.o
 .text.USBD_Stop
                0x0000000000000000       0x1a build/usbd_core.o
 .text.USBD_RunTestMode
                0x0000000000000000        0x4 build/usbd_core.o
 .text.USBD_LL_IsoINIncomplete
                0x0000000000000000       0x2e build/usbd_core.o
 .text.USBD_LL_IsoOUTIncomplete
                0x0000000000000000       0x2e build/usbd_core.o
 .text.USBD_LL_DevConnected
                0x0000000000000000        0x4 build/usbd_core.o
 .text.USBD_LL_DevDisconnected
                0x0000000000000000       0x20 build/usbd_core.o
 .text          0x0000000000000000        0x0 build/usbd_ctlreq.o
 .data          0x0000000000000000        0x0 build/usbd_ctlreq.o
 .bss           0x0000000000000000        0x0 build/usbd_ctlreq.o
 .text          0x0000000000000000        0x0 build/usbd_ioreq.o
 .data          0x0000000000000000        0x0 build/usbd_ioreq.o
 .bss           0x0000000000000000        0x0 build/usbd_ioreq.o
 .text.USBD_GetRxCount
                0x0000000000000000        0x8 build/usbd_ioreq.o
 .text          0x0000000000000000        0x0 build/usbd_cdc.o
 .data          0x0000000000000000        0x0 build/usbd_cdc.o
 .bss           0x0000000000000000        0x0 build/usbd_cdc.o
 .text          0x0000000000000000       0x14 build/startup_stm32l562xx.o
 .data          0x0000000000000000        0x0 build/startup_stm32l562xx.o
 .bss           0x0000000000000000        0x0 build/startup_stm32l562xx.o
 .text          0x0000000000000000        0x0 /home/yul/toolchain/arm-gnu-toolchain-12.2.rel1-x86_64-arm-none-eabi/bin/../lib/gcc/arm-none-eabi/12.2.1/../../../../arm-none-eabi/lib/thumb/v8-m.main+fp/hard/libc_nano.a(libc_a-exit.o)
 .data          0x0000000000000000        0x0 /home/yul/toolchain/arm-gnu-toolchain-12.2.rel1-x86_64-arm-none-eabi/bin/../lib/gcc/arm-none-eabi/12.2.1/../../../../arm-none-eabi/lib/thumb/v8-m.main+fp/hard/libc_nano.a(libc_a-exit.o)
 .bss           0x0000000000000000        0x0 /home/yul/toolchain/arm-gnu-toolchain-12.2.rel1-x86_64-arm-none-eabi/bin/../lib/gcc/arm-none-eabi/12.2.1/../../../../arm-none-eabi/lib/thumb/v8-m.main+fp/hard/libc_nano.a(libc_a-exit.o)
 .text.exit     0x0000000000000000       0x24 /home/yul/toolchain/arm-gnu-toolchain-12.2.rel1-x86_64-arm-none-eabi/bin/../lib/gcc/arm-none-eabi/12.2.1/../../../../arm-none-eabi/lib/thumb/v8-m.main+fp/hard/libc_nano.a(libc_a-exit.o)
 .debug_frame   0x0000000000000000       0x28 /home/yul/toolchain/arm-gnu-toolchain-12.2.rel1-x86_64-arm-none-eabi/bin/../lib/gcc/arm-none-eabi/12.2.1/../../../../arm-none-eabi/lib/thumb/v8-m.main+fp/hard/libc_nano.a(libc_a-exit.o)
 .ARM.attributes
                0x0000000000000000       0x38 /home/yul/toolchain/arm-gnu-toolchain-12.2.rel1-x86_64-arm-none-eabi/bin/../lib/gcc/arm-none-eabi/12.2.1/../../../../arm-none-eabi/lib/thumb/v8-m.main+fp/hard/libc_nano.a(libc_a-exit.o)
 .text          0x0000000000000000        0x0 /home/yul/toolchain/arm-gnu-toolchain-12.2.rel1-x86_64-arm-none-eabi/bin/../lib/gcc/arm-none-eabi/12.2.1/../../../../arm-none-eabi/lib/thumb/v8-m.main+fp/hard/libc_nano.a(libc_a-init.o)
 .data          0x0000000000000000        0x0 /home/yul/toolchain/arm-gnu-toolchain-12.2.rel1-x86_64-arm-none-eabi/bin/../lib/gcc/arm-none-eabi/12.2.1/../../../../arm-none-eabi/lib/thumb/v8-m.main+fp/hard/libc_nano.a(libc_a-init.o)
 .bss           0x0000000000000000        0x0 /home/yul/toolchain/arm-gnu-toolchain-12.2.rel1-x86_64-arm-none-eabi/bin/../lib/gcc/arm-none-eabi/12.2.1/../../../../arm-none-eabi/lib/thumb/v8-m.main+fp/hard/libc_nano.a(libc_a-init.o)
 .data          0x0000000000000000        0x0 /home/yul/toolchain/arm-gnu-toolchain-12.2.rel1-x86_64-arm-none-eabi/bin/../lib/gcc/arm-none-eabi/12.2.1/../../../../arm-none-eabi/lib/thumb/v8-m.main+fp/hard/libc_nano.a(libc_a-strcmp.o)
 .bss           0x0000000000000000        0x0 /home/yul/toolchain/arm-gnu-toolchain-12.2.rel1-x86_64-arm-none-eabi/bin/../lib/gcc/arm-none-eabi/12.2.1/../../../../arm-none-eabi/lib/thumb/v8-m.main+fp/hard/libc_nano.a(libc_a-strcmp.o)
 .text          0x0000000000000000        0x0 /home/yul/toolchain/arm-gnu-toolchain-12.2.rel1-x86_64-arm-none-eabi/bin/../lib/gcc/arm-none-eabi/12.2.1/../../../../arm-none-eabi/lib/thumb/v8-m.main+fp/hard/libc_nano.a(libc_a-printf.o)
 .data          0x0000000000000000        0x0 /home/yul/toolchain/arm-gnu-toolchain-12.2.rel1-x86_64-arm-none-eabi/bin/../lib/gcc/arm-none-eabi/12.2.1/../../../../arm-none-eabi/lib/thumb/v8-m.main+fp/hard/libc_nano.a(libc_a-printf.o)
 .bss           0x0000000000000000        0x0 /home/yul/toolchain/arm-gnu-toolchain-12.2.rel1-x86_64-arm-none-eabi/bin/../lib/gcc/arm-none-eabi/12.2.1/../../../../arm-none-eabi/lib/thumb/v8-m.main+fp/hard/libc_nano.a(libc_a-printf.o)
 .text._printf_r
                0x0000000000000000       0x1c /home/yul/toolchain/arm-gnu-toolchain-12.2.rel1-x86_64-arm-none-eabi/bin/../lib/gcc/arm-none-eabi/12.2.1/../../../../arm-none-eabi/lib/thumb/v8-m.main+fp/hard/libc_nano.a(libc_a-printf.o)
 .text          0x0000000000000000        0x0 /home/yul/toolchain/arm-gnu-toolchain-12.2.rel1-x86_64-arm-none-eabi/bin/../lib/gcc/arm-none-eabi/12.2.1/../../../../arm-none-eabi/lib/thumb/v8-m.main+fp/hard/libc_nano.a(libc_a-nano-vfprintf.o)
 .data          0x0000000000000000        0x0 /home/yul/toolchain/arm-gnu-toolchain-12.2.rel1-x86_64-arm-none-eabi/bin/../lib/gcc/arm-none-eabi/12.2.1/../../../../arm-none-eabi/lib/thumb/v8-m.main+fp/hard/libc_nano.a(libc_a-nano-vfprintf.o)
 .bss           0x0000000000000000        0x0 /home/yul/toolchain/arm-gnu-toolchain-12.2.rel1-x86_64-arm-none-eabi/bin/../lib/gcc/arm-none-eabi/12.2.1/../../../../arm-none-eabi/lib/thumb/v8-m.main+fp/hard/libc_nano.a(libc_a-nano-vfprintf.o)
 .text.__sprint_r
                0x0000000000000000       0x1a /home/yul/toolchain/arm-gnu-toolchain-12.2.rel1-x86_64-arm-none-eabi/bin/../lib/gcc/arm-none-eabi/12.2.1/../../../../arm-none-eabi/lib/thumb/v8-m.main+fp/hard/libc_nano.a(libc_a-nano-vfprintf.o)
 .text.vfprintf
                0x0000000000000000       0x14 /home/yul/toolchain/arm-gnu-toolchain-12.2.rel1-x86_64-arm-none-eabi/bin/../lib/gcc/arm-none-eabi/12.2.1/../../../../arm-none-eabi/lib/thumb/v8-m.main+fp/hard/libc_nano.a(libc_a-nano-vfprintf.o)
 .text          0x0000000000000000        0x0 /home/yul/toolchain/arm-gnu-toolchain-12.2.rel1-x86_64-arm-none-eabi/bin/../lib/gcc/arm-none-eabi/12.2.1/../../../../arm-none-eabi/lib/thumb/v8-m.main+fp/hard/libc_nano.a(libc_a-wbuf.o)
 .data          0x0000000000000000        0x0 /home/yul/toolchain/arm-gnu-toolchain-12.2.rel1-x86_64-arm-none-eabi/bin/../lib/gcc/arm-none-eabi/12.2.1/../../../../arm-none-eabi/lib/thumb/v8-m.main+fp/hard/libc_nano.a(libc_a-wbuf.o)
 .bss           0x0000000000000000        0x0 /home/yul/toolchain/arm-gnu-toolchain-12.2.rel1-x86_64-arm-none-eabi/bin/../lib/gcc/arm-none-eabi/12.2.1/../../../../arm-none-eabi/lib/thumb/v8-m.main+fp/hard/libc_nano.a(libc_a-wbuf.o)
 .text.__swbuf  0x0000000000000000       0x10 /home/yul/toolchain/arm-gnu-toolchain-12.2.rel1-x86_64-arm-none-eabi/bin/../lib/gcc/arm-none-eabi/12.2.1/../../../../arm-none-eabi/lib/thumb/v8-m.main+fp/hard/libc_nano.a(libc_a-wbuf.o)
 .text          0x0000000000000000        0x0 /home/yul/toolchain/arm-gnu-toolchain-12.2.rel1-x86_64-arm-none-eabi/bin/../lib/gcc/arm-none-eabi/12.2.1/../../../../arm-none-eabi/lib/thumb/v8-m.main+fp/hard/libc_nano.a(libc_a-wsetup.o)
 .data          0x0000000000000000        0x0 /home/yul/toolchain/arm-gnu-toolchain-12.2.rel1-x86_64-arm-none-eabi/bin/../lib/gcc/arm-none-eabi/12.2.1/../../../../arm-none-eabi/lib/thumb/v8-m.main+fp/hard/libc_nano.a(libc_a-wsetup.o)
 .bss           0x0000000000000000        0x0 /home/yul/toolchain/arm-gnu-toolchain-12.2.rel1-x86_64-arm-none-eabi/bin/../lib/gcc/arm-none-eabi/12.2.1/../../../../arm-none-eabi/lib/thumb/v8-m.main+fp/hard/libc_nano.a(libc_a-wsetup.o)
 .text          0x0000000000000000        0x0 /home/yul/toolchain/arm-gnu-toolchain-12.2.rel1-x86_64-arm-none-eabi/bin/../lib/gcc/arm-none-eabi/12.2.1/../../../../arm-none-eabi/lib/thumb/v8-m.main+fp/hard/libc_nano.a(libc_a-putchar.o)
 .data          0x0000000000000000        0x0 /home/yul/toolchain/arm-gnu-toolchain-12.2.rel1-x86_64-arm-none-eabi/bin/../lib/gcc/arm-none-eabi/12.2.1/../../../../arm-none-eabi/lib/thumb/v8-m.main+fp/hard/libc_nano.a(libc_a-putchar.o)
 .bss           0x0000000000000000        0x0 /home/yul/toolchain/arm-gnu-toolchain-12.2.rel1-x86_64-arm-none-eabi/bin/../lib/gcc/arm-none-eabi/12.2.1/../../../../arm-none-eabi/lib/thumb/v8-m.main+fp/hard/libc_nano.a(libc_a-putchar.o)
 .text._putchar_r
                0x0000000000000000        0x6 /home/yul/toolchain/arm-gnu-toolchain-12.2.rel1-x86_64-arm-none-eabi/bin/../lib/gcc/arm-none-eabi/12.2.1/../../../../arm-none-eabi/lib/thumb/v8-m.main+fp/hard/libc_nano.a(libc_a-putchar.o)
 .text          0x0000000000000000        0x0 /home/yul/toolchain/arm-gnu-toolchain-12.2.rel1-x86_64-arm-none-eabi/bin/../lib/gcc/arm-none-eabi/12.2.1/../../../../arm-none-eabi/lib/thumb/v8-m.main+fp/hard/libc_nano.a(libc_a-nano-vfprintf_i.o)
 .data          0x0000000000000000        0x0 /home/yul/toolchain/arm-gnu-toolchain-12.2.rel1-x86_64-arm-none-eabi/bin/../lib/gcc/arm-none-eabi/12.2.1/../../../../arm-none-eabi/lib/thumb/v8-m.main+fp/hard/libc_nano.a(libc_a-nano-vfprintf_i.o)
 .bss           0x0000000000000000        0x0 /home/yul/toolchain/arm-gnu-toolchain-12.2.rel1-x86_64-arm-none-eabi/bin/../lib/gcc/arm-none-eabi/12.2.1/../../../../arm-none-eabi/lib/thumb/v8-m.main+fp/hard/libc_nano.a(libc_a-nano-vfprintf_i.o)
 .text          0x0000000000000000        0x0 /home/yul/toolchain/arm-gnu-toolchain-12.2.rel1-x86_64-arm-none-eabi/bin/../lib/gcc/arm-none-eabi/12.2.1/../../../../arm-none-eabi/lib/thumb/v8-m.main+fp/hard/libc_nano.a(libc_a-puts.o)
 .data          0x0000000000000000        0x0 /home/yul/toolchain/arm-gnu-toolchain-12.2.rel1-x86_64-arm-none-eabi/bin/../lib/gcc/arm-none-eabi/12.2.1/../../../../arm-none-eabi/lib/thumb/v8-m.main+fp/hard/libc_nano.a(libc_a-puts.o)
 .bss           0x0000000000000000        0x0 /home/yul/toolchain/arm-gnu-toolchain-12.2.rel1-x86_64-arm-none-eabi/bin/../lib/gcc/arm-none-eabi/12.2.1/../../../../arm-none-eabi/lib/thumb/v8-m.main+fp/hard/libc_nano.a(libc_a-puts.o)
 .text          0x0000000000000000        0x0 /home/yul/toolchain/arm-gnu-toolchain-12.2.rel1-x86_64-arm-none-eabi/bin/../lib/gcc/arm-none-eabi/12.2.1/../../../../arm-none-eabi/lib/thumb/v8-m.main+fp/hard/libc_nano.a(libc_a-impure.o)
 .data          0x0000000000000000        0x0 /home/yul/toolchain/arm-gnu-toolchain-12.2.rel1-x86_64-arm-none-eabi/bin/../lib/gcc/arm-none-eabi/12.2.1/../../../../arm-none-eabi/lib/thumb/v8-m.main+fp/hard/libc_nano.a(libc_a-impure.o)
 .bss           0x0000000000000000        0x0 /home/yul/toolchain/arm-gnu-toolchain-12.2.rel1-x86_64-arm-none-eabi/bin/../lib/gcc/arm-none-eabi/12.2.1/../../../../arm-none-eabi/lib/thumb/v8-m.main+fp/hard/libc_nano.a(libc_a-impure.o)
 .text          0x0000000000000000        0x0 /home/yul/toolchain/arm-gnu-toolchain-12.2.rel1-x86_64-arm-none-eabi/bin/../lib/gcc/arm-none-eabi/12.2.1/../../../../arm-none-eabi/lib/thumb/v8-m.main+fp/hard/libc_nano.a(libc_a-fflush.o)
 .data          0x0000000000000000        0x0 /home/yul/toolchain/arm-gnu-toolchain-12.2.rel1-x86_64-arm-none-eabi/bin/../lib/gcc/arm-none-eabi/12.2.1/../../../../arm-none-eabi/lib/thumb/v8-m.main+fp/hard/libc_nano.a(libc_a-fflush.o)
 .bss           0x0000000000000000        0x0 /home/yul/toolchain/arm-gnu-toolchain-12.2.rel1-x86_64-arm-none-eabi/bin/../lib/gcc/arm-none-eabi/12.2.1/../../../../arm-none-eabi/lib/thumb/v8-m.main+fp/hard/libc_nano.a(libc_a-fflush.o)
 .text          0x0000000000000000        0x0 /home/yul/toolchain/arm-gnu-toolchain-12.2.rel1-x86_64-arm-none-eabi/bin/../lib/gcc/arm-none-eabi/12.2.1/../../../../arm-none-eabi/lib/thumb/v8-m.main+fp/hard/libc_nano.a(libc_a-memchr-stub.o)
 .data          0x0000000000000000        0x0 /home/yul/toolchain/arm-gnu-toolchain-12.2.rel1-x86_64-arm-none-eabi/bin/../lib/gcc/arm-none-eabi/12.2.1/../../../../arm-none-eabi/lib/thumb/v8-m.main+fp/hard/libc_nano.a(libc_a-memchr-stub.o)
 .bss           0x0000000000000000        0x0 /home/yul/toolchain/arm-gnu-toolchain-12.2.rel1-x86_64-arm-none-eabi/bin/../lib/gcc/arm-none-eabi/12.2.1/../../../../arm-none-eabi/lib/thumb/v8-m.main+fp/hard/libc_nano.a(libc_a-memchr-stub.o)
 .text          0x0000000000000000        0x0 /home/yul/toolchain/arm-gnu-toolchain-12.2.rel1-x86_64-arm-none-eabi/bin/../lib/gcc/arm-none-eabi/12.2.1/../../../../arm-none-eabi/lib/thumb/v8-m.main+fp/hard/libc_nano.a(libc_a-memcpy-stub.o)
 .data          0x0000000000000000        0x0 /home/yul/toolchain/arm-gnu-toolchain-12.2.rel1-x86_64-arm-none-eabi/bin/../lib/gcc/arm-none-eabi/12.2.1/../../../../arm-none-eabi/lib/thumb/v8-m.main+fp/hard/libc_nano.a(libc_a-memcpy-stub.o)
 .bss           0x0000000000000000        0x0 /home/yul/toolchain/arm-gnu-toolchain-12.2.rel1-x86_64-arm-none-eabi/bin/../lib/gcc/arm-none-eabi/12.2.1/../../../../arm-none-eabi/lib/thumb/v8-m.main+fp/hard/libc_nano.a(libc_a-memcpy-stub.o)
 .text          0x0000000000000000        0x0 /home/yul/toolchain/arm-gnu-toolchain-12.2.rel1-x86_64-arm-none-eabi/bin/../lib/gcc/arm-none-eabi/12.2.1/../../../../arm-none-eabi/lib/thumb/v8-m.main+fp/hard/libc_nano.a(libc_a-findfp.o)
 .data          0x0000000000000000        0x0 /home/yul/toolchain/arm-gnu-toolchain-12.2.rel1-x86_64-arm-none-eabi/bin/../lib/gcc/arm-none-eabi/12.2.1/../../../../arm-none-eabi/lib/thumb/v8-m.main+fp/hard/libc_nano.a(libc_a-findfp.o)
 .bss           0x0000000000000000        0x0 /home/yul/toolchain/arm-gnu-toolchain-12.2.rel1-x86_64-arm-none-eabi/bin/../lib/gcc/arm-none-eabi/12.2.1/../../../../arm-none-eabi/lib/thumb/v8-m.main+fp/hard/libc_nano.a(libc_a-findfp.o)
 .text.__fp_lock
                0x0000000000000000       0x18 /home/yul/toolchain/arm-gnu-toolchain-12.2.rel1-x86_64-arm-none-eabi/bin/../lib/gcc/arm-none-eabi/12.2.1/../../../../arm-none-eabi/lib/thumb/v8-m.main+fp/hard/libc_nano.a(libc_a-findfp.o)
 .text.__fp_unlock
                0x0000000000000000       0x18 /home/yul/toolchain/arm-gnu-toolchain-12.2.rel1-x86_64-arm-none-eabi/bin/../lib/gcc/arm-none-eabi/12.2.1/../../../../arm-none-eabi/lib/thumb/v8-m.main+fp/hard/libc_nano.a(libc_a-findfp.o)
 .text.__sfp    0x0000000000000000       0xa4 /home/yul/toolchain/arm-gnu-toolchain-12.2.rel1-x86_64-arm-none-eabi/bin/../lib/gcc/arm-none-eabi/12.2.1/../../../../arm-none-eabi/lib/thumb/v8-m.main+fp/hard/libc_nano.a(libc_a-findfp.o)
 .text.__fp_lock_all
                0x0000000000000000       0x1c /home/yul/toolchain/arm-gnu-toolchain-12.2.rel1-x86_64-arm-none-eabi/bin/../lib/gcc/arm-none-eabi/12.2.1/../../../../arm-none-eabi/lib/thumb/v8-m.main+fp/hard/libc_nano.a(libc_a-findfp.o)
 .text.__fp_unlock_all
                0x0000000000000000       0x1c /home/yul/toolchain/arm-gnu-toolchain-12.2.rel1-x86_64-arm-none-eabi/bin/../lib/gcc/arm-none-eabi/12.2.1/../../../../arm-none-eabi/lib/thumb/v8-m.main+fp/hard/libc_nano.a(libc_a-findfp.o)
 .text          0x0000000000000000        0x0 /home/yul/toolchain/arm-gnu-toolchain-12.2.rel1-x86_64-arm-none-eabi/bin/../lib/gcc/arm-none-eabi/12.2.1/../../../../arm-none-eabi/lib/thumb/v8-m.main+fp/hard/libc_nano.a(libc_a-stdio.o)
 .data          0x0000000000000000        0x0 /home/yul/toolchain/arm-gnu-toolchain-12.2.rel1-x86_64-arm-none-eabi/bin/../lib/gcc/arm-none-eabi/12.2.1/../../../../arm-none-eabi/lib/thumb/v8-m.main+fp/hard/libc_nano.a(libc_a-stdio.o)
 .bss           0x0000000000000000        0x0 /home/yul/toolchain/arm-gnu-toolchain-12.2.rel1-x86_64-arm-none-eabi/bin/../lib/gcc/arm-none-eabi/12.2.1/../../../../arm-none-eabi/lib/thumb/v8-m.main+fp/hard/libc_nano.a(libc_a-stdio.o)
 .text.__seofread
                0x0000000000000000        0x4 /home/yul/toolchain/arm-gnu-toolchain-12.2.rel1-x86_64-arm-none-eabi/bin/../lib/gcc/arm-none-eabi/12.2.1/../../../../arm-none-eabi/lib/thumb/v8-m.main+fp/hard/libc_nano.a(libc_a-stdio.o)
 .text          0x0000000000000000        0x0 /home/yul/toolchain/arm-gnu-toolchain-12.2.rel1-x86_64-arm-none-eabi/bin/../lib/gcc/arm-none-eabi/12.2.1/../../../../arm-none-eabi/lib/thumb/v8-m.main+fp/hard/libc_nano.a(libc_a-atoi.o)
 .data          0x0000000000000000        0x0 /home/yul/toolchain/arm-gnu-toolchain-12.2.rel1-x86_64-arm-none-eabi/bin/../lib/gcc/arm-none-eabi/12.2.1/../../../../arm-none-eabi/lib/thumb/v8-m.main+fp/hard/libc_nano.a(libc_a-atoi.o)
 .bss           0x0000000000000000        0x0 /home/yul/toolchain/arm-gnu-toolchain-12.2.rel1-x86_64-arm-none-eabi/bin/../lib/gcc/arm-none-eabi/12.2.1/../../../../arm-none-eabi/lib/thumb/v8-m.main+fp/hard/libc_nano.a(libc_a-atoi.o)
 .text._atoi_r  0x0000000000000000        0x8 /home/yul/toolchain/arm-gnu-toolchain-12.2.rel1-x86_64-arm-none-eabi/bin/../lib/gcc/arm-none-eabi/12.2.1/../../../../arm-none-eabi/lib/thumb/v8-m.main+fp/hard/libc_nano.a(libc_a-atoi.o)
 .text          0x0000000000000000        0x0 /home/yul/toolchain/arm-gnu-toolchain-12.2.rel1-x86_64-arm-none-eabi/bin/../lib/gcc/arm-none-eabi/12.2.1/../../../../arm-none-eabi/lib/thumb/v8-m.main+fp/hard/libc_nano.a(libc_a-writer.o)
 .data          0x0000000000000000        0x0 /home/yul/toolchain/arm-gnu-toolchain-12.2.rel1-x86_64-arm-none-eabi/bin/../lib/gcc/arm-none-eabi/12.2.1/../../../../arm-none-eabi/lib/thumb/v8-m.main+fp/hard/libc_nano.a(libc_a-writer.o)
 .bss           0x0000000000000000        0x0 /home/yul/toolchain/arm-gnu-toolchain-12.2.rel1-x86_64-arm-none-eabi/bin/../lib/gcc/arm-none-eabi/12.2.1/../../../../arm-none-eabi/lib/thumb/v8-m.main+fp/hard/libc_nano.a(libc_a-writer.o)
 .text          0x0000000000000000        0x0 /home/yul/toolchain/arm-gnu-toolchain-12.2.rel1-x86_64-arm-none-eabi/bin/../lib/gcc/arm-none-eabi/12.2.1/../../../../arm-none-eabi/lib/thumb/v8-m.main+fp/hard/libc_nano.a(libc_a-fvwrite.o)
 .data          0x0000000000000000        0x0 /home/yul/toolchain/arm-gnu-toolchain-12.2.rel1-x86_64-arm-none-eabi/bin/../lib/gcc/arm-none-eabi/12.2.1/../../../../arm-none-eabi/lib/thumb/v8-m.main+fp/hard/libc_nano.a(libc_a-fvwrite.o)
 .bss           0x0000000000000000        0x0 /home/yul/toolchain/arm-gnu-toolchain-12.2.rel1-x86_64-arm-none-eabi/bin/../lib/gcc/arm-none-eabi/12.2.1/../../../../arm-none-eabi/lib/thumb/v8-m.main+fp/hard/libc_nano.a(libc_a-fvwrite.o)
 .text.__sfvwrite_r
                0x0000000000000000      0x2a0 /home/yul/toolchain/arm-gnu-toolchain-12.2.rel1-x86_64-arm-none-eabi/bin/../lib/gcc/arm-none-eabi/12.2.1/../../../../arm-none-eabi/lib/thumb/v8-m.main+fp/hard/libc_nano.a(libc_a-fvwrite.o)
 .debug_frame   0x0000000000000000       0x3c /home/yul/toolchain/arm-gnu-toolchain-12.2.rel1-x86_64-arm-none-eabi/bin/../lib/gcc/arm-none-eabi/12.2.1/../../../../arm-none-eabi/lib/thumb/v8-m.main+fp/hard/libc_nano.a(libc_a-fvwrite.o)
 .ARM.attributes
                0x0000000000000000       0x38 /home/yul/toolchain/arm-gnu-toolchain-12.2.rel1-x86_64-arm-none-eabi/bin/../lib/gcc/arm-none-eabi/12.2.1/../../../../arm-none-eabi/lib/thumb/v8-m.main+fp/hard/libc_nano.a(libc_a-fvwrite.o)
 .text          0x0000000000000000        0x0 /home/yul/toolchain/arm-gnu-toolchain-12.2.rel1-x86_64-arm-none-eabi/bin/../lib/gcc/arm-none-eabi/12.2.1/../../../../arm-none-eabi/lib/thumb/v8-m.main+fp/hard/libc_nano.a(libc_a-fwalk.o)
 .data          0x0000000000000000        0x0 /home/yul/toolchain/arm-gnu-toolchain-12.2.rel1-x86_64-arm-none-eabi/bin/../lib/gcc/arm-none-eabi/12.2.1/../../../../arm-none-eabi/lib/thumb/v8-m.main+fp/hard/libc_nano.a(libc_a-fwalk.o)
 .bss           0x0000000000000000        0x0 /home/yul/toolchain/arm-gnu-toolchain-12.2.rel1-x86_64-arm-none-eabi/bin/../lib/gcc/arm-none-eabi/12.2.1/../../../../arm-none-eabi/lib/thumb/v8-m.main+fp/hard/libc_nano.a(libc_a-fwalk.o)
 .text          0x0000000000000000        0x0 /home/yul/toolchain/arm-gnu-toolchain-12.2.rel1-x86_64-arm-none-eabi/bin/../lib/gcc/arm-none-eabi/12.2.1/../../../../arm-none-eabi/lib/thumb/v8-m.main+fp/hard/libc_nano.a(libc_a-memmove.o)
 .data          0x0000000000000000        0x0 /home/yul/toolchain/arm-gnu-toolchain-12.2.rel1-x86_64-arm-none-eabi/bin/../lib/gcc/arm-none-eabi/12.2.1/../../../../arm-none-eabi/lib/thumb/v8-m.main+fp/hard/libc_nano.a(libc_a-memmove.o)
 .bss           0x0000000000000000        0x0 /home/yul/toolchain/arm-gnu-toolchain-12.2.rel1-x86_64-arm-none-eabi/bin/../lib/gcc/arm-none-eabi/12.2.1/../../../../arm-none-eabi/lib/thumb/v8-m.main+fp/hard/libc_nano.a(libc_a-memmove.o)
 .text.memmove  0x0000000000000000       0x34 /home/yul/toolchain/arm-gnu-toolchain-12.2.rel1-x86_64-arm-none-eabi/bin/../lib/gcc/arm-none-eabi/12.2.1/../../../../arm-none-eabi/lib/thumb/v8-m.main+fp/hard/libc_nano.a(libc_a-memmove.o)
 .debug_frame   0x0000000000000000       0x28 /home/yul/toolchain/arm-gnu-toolchain-12.2.rel1-x86_64-arm-none-eabi/bin/../lib/gcc/arm-none-eabi/12.2.1/../../../../arm-none-eabi/lib/thumb/v8-m.main+fp/hard/libc_nano.a(libc_a-memmove.o)
 .ARM.attributes
                0x0000000000000000       0x38 /home/yul/toolchain/arm-gnu-toolchain-12.2.rel1-x86_64-arm-none-eabi/bin/../lib/gcc/arm-none-eabi/12.2.1/../../../../arm-none-eabi/lib/thumb/v8-m.main+fp/hard/libc_nano.a(libc_a-memmove.o)
 .text          0x0000000000000000        0x0 /home/yul/toolchain/arm-gnu-toolchain-12.2.rel1-x86_64-arm-none-eabi/bin/../lib/gcc/arm-none-eabi/12.2.1/../../../../arm-none-eabi/lib/thumb/v8-m.main+fp/hard/libc_nano.a(libc_a-memset.o)
 .data          0x0000000000000000        0x0 /home/yul/toolchain/arm-gnu-toolchain-12.2.rel1-x86_64-arm-none-eabi/bin/../lib/gcc/arm-none-eabi/12.2.1/../../../../arm-none-eabi/lib/thumb/v8-m.main+fp/hard/libc_nano.a(libc_a-memset.o)
 .bss           0x0000000000000000        0x0 /home/yul/toolchain/arm-gnu-toolchain-12.2.rel1-x86_64-arm-none-eabi/bin/../lib/gcc/arm-none-eabi/12.2.1/../../../../arm-none-eabi/lib/thumb/v8-m.main+fp/hard/libc_nano.a(libc_a-memset.o)
 .text          0x0000000000000000        0x0 /home/yul/toolchain/arm-gnu-toolchain-12.2.rel1-x86_64-arm-none-eabi/bin/../lib/gcc/arm-none-eabi/12.2.1/../../../../arm-none-eabi/lib/thumb/v8-m.main+fp/hard/libc_nano.a(libc_a-reallocr.o)
 .data          0x0000000000000000        0x0 /home/yul/toolchain/arm-gnu-toolchain-12.2.rel1-x86_64-arm-none-eabi/bin/../lib/gcc/arm-none-eabi/12.2.1/../../../../arm-none-eabi/lib/thumb/v8-m.main+fp/hard/libc_nano.a(libc_a-reallocr.o)
 .bss           0x0000000000000000        0x0 /home/yul/toolchain/arm-gnu-toolchain-12.2.rel1-x86_64-arm-none-eabi/bin/../lib/gcc/arm-none-eabi/12.2.1/../../../../arm-none-eabi/lib/thumb/v8-m.main+fp/hard/libc_nano.a(libc_a-reallocr.o)
 .text._realloc_r
                0x0000000000000000       0x5c /home/yul/toolchain/arm-gnu-toolchain-12.2.rel1-x86_64-arm-none-eabi/bin/../lib/gcc/arm-none-eabi/12.2.1/../../../../arm-none-eabi/lib/thumb/v8-m.main+fp/hard/libc_nano.a(libc_a-reallocr.o)
 .debug_frame   0x0000000000000000       0x3c /home/yul/toolchain/arm-gnu-toolchain-12.2.rel1-x86_64-arm-none-eabi/bin/../lib/gcc/arm-none-eabi/12.2.1/../../../../arm-none-eabi/lib/thumb/v8-m.main+fp/hard/libc_nano.a(libc_a-reallocr.o)
 .ARM.attributes
                0x0000000000000000       0x38 /home/yul/toolchain/arm-gnu-toolchain-12.2.rel1-x86_64-arm-none-eabi/bin/../lib/gcc/arm-none-eabi/12.2.1/../../../../arm-none-eabi/lib/thumb/v8-m.main+fp/hard/libc_nano.a(libc_a-reallocr.o)
 .text          0x0000000000000000        0x0 /home/yul/toolchain/arm-gnu-toolchain-12.2.rel1-x86_64-arm-none-eabi/bin/../lib/gcc/arm-none-eabi/12.2.1/../../../../arm-none-eabi/lib/thumb/v8-m.main+fp/hard/libc_nano.a(libc_a-freer.o)
 .data          0x0000000000000000        0x0 /home/yul/toolchain/arm-gnu-toolchain-12.2.rel1-x86_64-arm-none-eabi/bin/../lib/gcc/arm-none-eabi/12.2.1/../../../../arm-none-eabi/lib/thumb/v8-m.main+fp/hard/libc_nano.a(libc_a-freer.o)
 .bss           0x0000000000000000        0x0 /home/yul/toolchain/arm-gnu-toolchain-12.2.rel1-x86_64-arm-none-eabi/bin/../lib/gcc/arm-none-eabi/12.2.1/../../../../arm-none-eabi/lib/thumb/v8-m.main+fp/hard/libc_nano.a(libc_a-freer.o)
 .text          0x0000000000000000        0x0 /home/yul/toolchain/arm-gnu-toolchain-12.2.rel1-x86_64-arm-none-eabi/bin/../lib/gcc/arm-none-eabi/12.2.1/../../../../arm-none-eabi/lib/thumb/v8-m.main+fp/hard/libc_nano.a(libc_a-strtol.o)
 .data          0x0000000000000000        0x0 /home/yul/toolchain/arm-gnu-toolchain-12.2.rel1-x86_64-arm-none-eabi/bin/../lib/gcc/arm-none-eabi/12.2.1/../../../../arm-none-eabi/lib/thumb/v8-m.main+fp/hard/libc_nano.a(libc_a-strtol.o)
 .bss           0x0000000000000000        0x0 /home/yul/toolchain/arm-gnu-toolchain-12.2.rel1-x86_64-arm-none-eabi/bin/../lib/gcc/arm-none-eabi/12.2.1/../../../../arm-none-eabi/lib/thumb/v8-m.main+fp/hard/libc_nano.a(libc_a-strtol.o)
 .text._strtol_r
                0x0000000000000000        0x4 /home/yul/toolchain/arm-gnu-toolchain-12.2.rel1-x86_64-arm-none-eabi/bin/../lib/gcc/arm-none-eabi/12.2.1/../../../../arm-none-eabi/lib/thumb/v8-m.main+fp/hard/libc_nano.a(libc_a-strtol.o)
 .text.strtol_l
                0x0000000000000000       0x14 /home/yul/toolchain/arm-gnu-toolchain-12.2.rel1-x86_64-arm-none-eabi/bin/../lib/gcc/arm-none-eabi/12.2.1/../../../../arm-none-eabi/lib/thumb/v8-m.main+fp/hard/libc_nano.a(libc_a-strtol.o)
 .text          0x0000000000000000        0x0 /home/yul/toolchain/arm-gnu-toolchain-12.2.rel1-x86_64-arm-none-eabi/bin/../lib/gcc/arm-none-eabi/12.2.1/../../../../arm-none-eabi/lib/thumb/v8-m.main+fp/hard/libc_nano.a(libc_a-lock.o)
 .data          0x0000000000000000        0x0 /home/yul/toolchain/arm-gnu-toolchain-12.2.rel1-x86_64-arm-none-eabi/bin/../lib/gcc/arm-none-eabi/12.2.1/../../../../arm-none-eabi/lib/thumb/v8-m.main+fp/hard/libc_nano.a(libc_a-lock.o)
 .bss           0x0000000000000000        0x0 /home/yul/toolchain/arm-gnu-toolchain-12.2.rel1-x86_64-arm-none-eabi/bin/../lib/gcc/arm-none-eabi/12.2.1/../../../../arm-none-eabi/lib/thumb/v8-m.main+fp/hard/libc_nano.a(libc_a-lock.o)
 .text.__retarget_lock_init
                0x0000000000000000        0x2 /home/yul/toolchain/arm-gnu-toolchain-12.2.rel1-x86_64-arm-none-eabi/bin/../lib/gcc/arm-none-eabi/12.2.1/../../../../arm-none-eabi/lib/thumb/v8-m.main+fp/hard/libc_nano.a(libc_a-lock.o)
 .text.__retarget_lock_close
                0x0000000000000000        0x2 /home/yul/toolchain/arm-gnu-toolchain-12.2.rel1-x86_64-arm-none-eabi/bin/../lib/gcc/arm-none-eabi/12.2.1/../../../../arm-none-eabi/lib/thumb/v8-m.main+fp/hard/libc_nano.a(libc_a-lock.o)
 .text.__retarget_lock_close_recursive
                0x0000000000000000        0x2 /home/yul/toolchain/arm-gnu-toolchain-12.2.rel1-x86_64-arm-none-eabi/bin/../lib/gcc/arm-none-eabi/12.2.1/../../../../arm-none-eabi/lib/thumb/v8-m.main+fp/hard/libc_nano.a(libc_a-lock.o)
 .text.__retarget_lock_acquire
                0x0000000000000000        0x2 /home/yul/toolchain/arm-gnu-toolchain-12.2.rel1-x86_64-arm-none-eabi/bin/../lib/gcc/arm-none-eabi/12.2.1/../../../../arm-none-eabi/lib/thumb/v8-m.main+fp/hard/libc_nano.a(libc_a-lock.o)
 .text.__retarget_lock_try_acquire
                0x0000000000000000        0x4 /home/yul/toolchain/arm-gnu-toolchain-12.2.rel1-x86_64-arm-none-eabi/bin/../lib/gcc/arm-none-eabi/12.2.1/../../../../arm-none-eabi/lib/thumb/v8-m.main+fp/hard/libc_nano.a(libc_a-lock.o)
 .text.__retarget_lock_try_acquire_recursive
                0x0000000000000000        0x4 /home/yul/toolchain/arm-gnu-toolchain-12.2.rel1-x86_64-arm-none-eabi/bin/../lib/gcc/arm-none-eabi/12.2.1/../../../../arm-none-eabi/lib/thumb/v8-m.main+fp/hard/libc_nano.a(libc_a-lock.o)
 .text.__retarget_lock_release
                0x0000000000000000        0x2 /home/yul/toolchain/arm-gnu-toolchain-12.2.rel1-x86_64-arm-none-eabi/bin/../lib/gcc/arm-none-eabi/12.2.1/../../../../arm-none-eabi/lib/thumb/v8-m.main+fp/hard/libc_nano.a(libc_a-lock.o)
 .bss.__lock___arc4random_mutex
                0x0000000000000000        0x1 /home/yul/toolchain/arm-gnu-toolchain-12.2.rel1-x86_64-arm-none-eabi/bin/../lib/gcc/arm-none-eabi/12.2.1/../../../../arm-none-eabi/lib/thumb/v8-m.main+fp/hard/libc_nano.a(libc_a-lock.o)
 .bss.__lock___dd_hash_mutex
                0x0000000000000000        0x1 /home/yul/toolchain/arm-gnu-toolchain-12.2.rel1-x86_64-arm-none-eabi/bin/../lib/gcc/arm-none-eabi/12.2.1/../../../../arm-none-eabi/lib/thumb/v8-m.main+fp/hard/libc_nano.a(libc_a-lock.o)
 .bss.__lock___tz_mutex
                0x0000000000000000        0x1 /home/yul/toolchain/arm-gnu-toolchain-12.2.rel1-x86_64-arm-none-eabi/bin/../lib/gcc/arm-none-eabi/12.2.1/../../../../arm-none-eabi/lib/thumb/v8-m.main+fp/hard/libc_nano.a(libc_a-lock.o)
 .bss.__lock___env_recursive_mutex
                0x0000000000000000        0x1 /home/yul/toolchain/arm-gnu-toolchain-12.2.rel1-x86_64-arm-none-eabi/bin/../lib/gcc/arm-none-eabi/12.2.1/../../../../arm-none-eabi/lib/thumb/v8-m.main+fp/hard/libc_nano.a(libc_a-lock.o)
 .bss.__lock___at_quick_exit_mutex
                0x0000000000000000        0x1 /home/yul/toolchain/arm-gnu-toolchain-12.2.rel1-x86_64-arm-none-eabi/bin/../lib/gcc/arm-none-eabi/12.2.1/../../../../arm-none-eabi/lib/thumb/v8-m.main+fp/hard/libc_nano.a(libc_a-lock.o)
 .bss.__lock___atexit_recursive_mutex
                0x0000000000000000        0x1 /home/yul/toolchain/arm-gnu-toolchain-12.2.rel1-x86_64-arm-none-eabi/bin/../lib/gcc/arm-none-eabi/12.2.1/../../../../arm-none-eabi/lib/thumb/v8-m.main+fp/hard/libc_nano.a(libc_a-lock.o)
 .text          0x0000000000000000        0x0 /home/yul/toolchain/arm-gnu-toolchain-12.2.rel1-x86_64-arm-none-eabi/bin/../lib/gcc/arm-none-eabi/12.2.1/../../../../arm-none-eabi/lib/thumb/v8-m.main+fp/hard/libc_nano.a(libc_a-makebuf.o)
 .data          0x0000000000000000        0x0 /home/yul/toolchain/arm-gnu-toolchain-12.2.rel1-x86_64-arm-none-eabi/bin/../lib/gcc/arm-none-eabi/12.2.1/../../../../arm-none-eabi/lib/thumb/v8-m.main+fp/hard/libc_nano.a(libc_a-makebuf.o)
 .bss           0x0000000000000000        0x0 /home/yul/toolchain/arm-gnu-toolchain-12.2.rel1-x86_64-arm-none-eabi/bin/../lib/gcc/arm-none-eabi/12.2.1/../../../../arm-none-eabi/lib/thumb/v8-m.main+fp/hard/libc_nano.a(libc_a-makebuf.o)
 .text          0x0000000000000000        0x0 /home/yul/toolchain/arm-gnu-toolchain-12.2.rel1-x86_64-arm-none-eabi/bin/../lib/gcc/arm-none-eabi/12.2.1/../../../../arm-none-eabi/lib/thumb/v8-m.main+fp/hard/libc_nano.a(libc_a-putc.o)
 .data          0x0000000000000000        0x0 /home/yul/toolchain/arm-gnu-toolchain-12.2.rel1-x86_64-arm-none-eabi/bin/../lib/gcc/arm-none-eabi/12.2.1/../../../../arm-none-eabi/lib/thumb/v8-m.main+fp/hard/libc_nano.a(libc_a-putc.o)
 .bss           0x0000000000000000        0x0 /home/yul/toolchain/arm-gnu-toolchain-12.2.rel1-x86_64-arm-none-eabi/bin/../lib/gcc/arm-none-eabi/12.2.1/../../../../arm-none-eabi/lib/thumb/v8-m.main+fp/hard/libc_nano.a(libc_a-putc.o)
 .text.putc     0x0000000000000000       0x10 /home/yul/toolchain/arm-gnu-toolchain-12.2.rel1-x86_64-arm-none-eabi/bin/../lib/gcc/arm-none-eabi/12.2.1/../../../../arm-none-eabi/lib/thumb/v8-m.main+fp/hard/libc_nano.a(libc_a-putc.o)
 .text          0x0000000000000000        0x0 /home/yul/toolchain/arm-gnu-toolchain-12.2.rel1-x86_64-arm-none-eabi/bin/../lib/gcc/arm-none-eabi/12.2.1/../../../../arm-none-eabi/lib/thumb/v8-m.main+fp/hard/libc_nano.a(libc_a-closer.o)
 .data          0x0000000000000000        0x0 /home/yul/toolchain/arm-gnu-toolchain-12.2.rel1-x86_64-arm-none-eabi/bin/../lib/gcc/arm-none-eabi/12.2.1/../../../../arm-none-eabi/lib/thumb/v8-m.main+fp/hard/libc_nano.a(libc_a-closer.o)
 .bss           0x0000000000000000        0x0 /home/yul/toolchain/arm-gnu-toolchain-12.2.rel1-x86_64-arm-none-eabi/bin/../lib/gcc/arm-none-eabi/12.2.1/../../../../arm-none-eabi/lib/thumb/v8-m.main+fp/hard/libc_nano.a(libc_a-closer.o)
 .text          0x0000000000000000        0x0 /home/yul/toolchain/arm-gnu-toolchain-12.2.rel1-x86_64-arm-none-eabi/bin/../lib/gcc/arm-none-eabi/12.2.1/../../../../arm-none-eabi/lib/thumb/v8-m.main+fp/hard/libc_nano.a(libc_a-reent.o)
 .data          0x0000000000000000        0x0 /home/yul/toolchain/arm-gnu-toolchain-12.2.rel1-x86_64-arm-none-eabi/bin/../lib/gcc/arm-none-eabi/12.2.1/../../../../arm-none-eabi/lib/thumb/v8-m.main+fp/hard/libc_nano.a(libc_a-reent.o)
 .bss           0x0000000000000000        0x0 /home/yul/toolchain/arm-gnu-toolchain-12.2.rel1-x86_64-arm-none-eabi/bin/../lib/gcc/arm-none-eabi/12.2.1/../../../../arm-none-eabi/lib/thumb/v8-m.main+fp/hard/libc_nano.a(libc_a-reent.o)
 .text._reclaim_reent
                0x0000000000000000       0xac /home/yul/toolchain/arm-gnu-toolchain-12.2.rel1-x86_64-arm-none-eabi/bin/../lib/gcc/arm-none-eabi/12.2.1/../../../../arm-none-eabi/lib/thumb/v8-m.main+fp/hard/libc_nano.a(libc_a-reent.o)
 .text          0x0000000000000000        0x0 /home/yul/toolchain/arm-gnu-toolchain-12.2.rel1-x86_64-arm-none-eabi/bin/../lib/gcc/arm-none-eabi/12.2.1/../../../../arm-none-eabi/lib/thumb/v8-m.main+fp/hard/libc_nano.a(libc_a-mallocr.o)
 .data          0x0000000000000000        0x0 /home/yul/toolchain/arm-gnu-toolchain-12.2.rel1-x86_64-arm-none-eabi/bin/../lib/gcc/arm-none-eabi/12.2.1/../../../../arm-none-eabi/lib/thumb/v8-m.main+fp/hard/libc_nano.a(libc_a-mallocr.o)
 .bss           0x0000000000000000        0x0 /home/yul/toolchain/arm-gnu-toolchain-12.2.rel1-x86_64-arm-none-eabi/bin/../lib/gcc/arm-none-eabi/12.2.1/../../../../arm-none-eabi/lib/thumb/v8-m.main+fp/hard/libc_nano.a(libc_a-mallocr.o)
 .text          0x0000000000000000        0x0 /home/yul/toolchain/arm-gnu-toolchain-12.2.rel1-x86_64-arm-none-eabi/bin/../lib/gcc/arm-none-eabi/12.2.1/../../../../arm-none-eabi/lib/thumb/v8-m.main+fp/hard/libc_nano.a(libc_a-fstatr.o)
 .data          0x0000000000000000        0x0 /home/yul/toolchain/arm-gnu-toolchain-12.2.rel1-x86_64-arm-none-eabi/bin/../lib/gcc/arm-none-eabi/12.2.1/../../../../arm-none-eabi/lib/thumb/v8-m.main+fp/hard/libc_nano.a(libc_a-fstatr.o)
 .bss           0x0000000000000000        0x0 /home/yul/toolchain/arm-gnu-toolchain-12.2.rel1-x86_64-arm-none-eabi/bin/../lib/gcc/arm-none-eabi/12.2.1/../../../../arm-none-eabi/lib/thumb/v8-m.main+fp/hard/libc_nano.a(libc_a-fstatr.o)
 .text          0x0000000000000000        0x0 /home/yul/toolchain/arm-gnu-toolchain-12.2.rel1-x86_64-arm-none-eabi/bin/../lib/gcc/arm-none-eabi/12.2.1/../../../../arm-none-eabi/lib/thumb/v8-m.main+fp/hard/libc_nano.a(libc_a-isattyr.o)
 .data          0x0000000000000000        0x0 /home/yul/toolchain/arm-gnu-toolchain-12.2.rel1-x86_64-arm-none-eabi/bin/../lib/gcc/arm-none-eabi/12.2.1/../../../../arm-none-eabi/lib/thumb/v8-m.main+fp/hard/libc_nano.a(libc_a-isattyr.o)
 .bss           0x0000000000000000        0x0 /home/yul/toolchain/arm-gnu-toolchain-12.2.rel1-x86_64-arm-none-eabi/bin/../lib/gcc/arm-none-eabi/12.2.1/../../../../arm-none-eabi/lib/thumb/v8-m.main+fp/hard/libc_nano.a(libc_a-isattyr.o)
 .text          0x0000000000000000        0x0 /home/yul/toolchain/arm-gnu-toolchain-12.2.rel1-x86_64-arm-none-eabi/bin/../lib/gcc/arm-none-eabi/12.2.1/../../../../arm-none-eabi/lib/thumb/v8-m.main+fp/hard/libc_nano.a(libc_a-lseekr.o)
 .data          0x0000000000000000        0x0 /home/yul/toolchain/arm-gnu-toolchain-12.2.rel1-x86_64-arm-none-eabi/bin/../lib/gcc/arm-none-eabi/12.2.1/../../../../arm-none-eabi/lib/thumb/v8-m.main+fp/hard/libc_nano.a(libc_a-lseekr.o)
 .bss           0x0000000000000000        0x0 /home/yul/toolchain/arm-gnu-toolchain-12.2.rel1-x86_64-arm-none-eabi/bin/../lib/gcc/arm-none-eabi/12.2.1/../../../../arm-none-eabi/lib/thumb/v8-m.main+fp/hard/libc_nano.a(libc_a-lseekr.o)
 .text          0x0000000000000000        0x0 /home/yul/toolchain/arm-gnu-toolchain-12.2.rel1-x86_64-arm-none-eabi/bin/../lib/gcc/arm-none-eabi/12.2.1/../../../../arm-none-eabi/lib/thumb/v8-m.main+fp/hard/libc_nano.a(libc_a-readr.o)
 .data          0x0000000000000000        0x0 /home/yul/toolchain/arm-gnu-toolchain-12.2.rel1-x86_64-arm-none-eabi/bin/../lib/gcc/arm-none-eabi/12.2.1/../../../../arm-none-eabi/lib/thumb/v8-m.main+fp/hard/libc_nano.a(libc_a-readr.o)
 .bss           0x0000000000000000        0x0 /home/yul/toolchain/arm-gnu-toolchain-12.2.rel1-x86_64-arm-none-eabi/bin/../lib/gcc/arm-none-eabi/12.2.1/../../../../arm-none-eabi/lib/thumb/v8-m.main+fp/hard/libc_nano.a(libc_a-readr.o)
 .text          0x0000000000000000        0x0 /home/yul/toolchain/arm-gnu-toolchain-12.2.rel1-x86_64-arm-none-eabi/bin/../lib/gcc/arm-none-eabi/12.2.1/../../../../arm-none-eabi/lib/thumb/v8-m.main+fp/hard/libc_nano.a(libc_a-mlock.o)
 .data          0x0000000000000000        0x0 /home/yul/toolchain/arm-gnu-toolchain-12.2.rel1-x86_64-arm-none-eabi/bin/../lib/gcc/arm-none-eabi/12.2.1/../../../../arm-none-eabi/lib/thumb/v8-m.main+fp/hard/libc_nano.a(libc_a-mlock.o)
 .bss           0x0000000000000000        0x0 /home/yul/toolchain/arm-gnu-toolchain-12.2.rel1-x86_64-arm-none-eabi/bin/../lib/gcc/arm-none-eabi/12.2.1/../../../../arm-none-eabi/lib/thumb/v8-m.main+fp/hard/libc_nano.a(libc_a-mlock.o)
 .text          0x0000000000000000        0x0 /home/yul/toolchain/arm-gnu-toolchain-12.2.rel1-x86_64-arm-none-eabi/bin/../lib/gcc/arm-none-eabi/12.2.1/../../../../arm-none-eabi/lib/thumb/v8-m.main+fp/hard/libc_nano.a(libc_a-msizer.o)
 .data          0x0000000000000000        0x0 /home/yul/toolchain/arm-gnu-toolchain-12.2.rel1-x86_64-arm-none-eabi/bin/../lib/gcc/arm-none-eabi/12.2.1/../../../../arm-none-eabi/lib/thumb/v8-m.main+fp/hard/libc_nano.a(libc_a-msizer.o)
 .bss           0x0000000000000000        0x0 /home/yul/toolchain/arm-gnu-toolchain-12.2.rel1-x86_64-arm-none-eabi/bin/../lib/gcc/arm-none-eabi/12.2.1/../../../../arm-none-eabi/lib/thumb/v8-m.main+fp/hard/libc_nano.a(libc_a-msizer.o)
 .text._malloc_usable_size_r
                0x0000000000000000       0x10 /home/yul/toolchain/arm-gnu-toolchain-12.2.rel1-x86_64-arm-none-eabi/bin/../lib/gcc/arm-none-eabi/12.2.1/../../../../arm-none-eabi/lib/thumb/v8-m.main+fp/hard/libc_nano.a(libc_a-msizer.o)
 .debug_frame   0x0000000000000000       0x20 /home/yul/toolchain/arm-gnu-toolchain-12.2.rel1-x86_64-arm-none-eabi/bin/../lib/gcc/arm-none-eabi/12.2.1/../../../../arm-none-eabi/lib/thumb/v8-m.main+fp/hard/libc_nano.a(libc_a-msizer.o)
 .ARM.attributes
                0x0000000000000000       0x38 /home/yul/toolchain/arm-gnu-toolchain-12.2.rel1-x86_64-arm-none-eabi/bin/../lib/gcc/arm-none-eabi/12.2.1/../../../../arm-none-eabi/lib/thumb/v8-m.main+fp/hard/libc_nano.a(libc_a-msizer.o)
 .text          0x0000000000000000        0x0 /home/yul/toolchain/arm-gnu-toolchain-12.2.rel1-x86_64-arm-none-eabi/bin/../lib/gcc/arm-none-eabi/12.2.1/../../../../arm-none-eabi/lib/thumb/v8-m.main+fp/hard/libc_nano.a(libc_a-ctype_.o)
 .data          0x0000000000000000        0x0 /home/yul/toolchain/arm-gnu-toolchain-12.2.rel1-x86_64-arm-none-eabi/bin/../lib/gcc/arm-none-eabi/12.2.1/../../../../arm-none-eabi/lib/thumb/v8-m.main+fp/hard/libc_nano.a(libc_a-ctype_.o)
 .bss           0x0000000000000000        0x0 /home/yul/toolchain/arm-gnu-toolchain-12.2.rel1-x86_64-arm-none-eabi/bin/../lib/gcc/arm-none-eabi/12.2.1/../../../../arm-none-eabi/lib/thumb/v8-m.main+fp/hard/libc_nano.a(libc_a-ctype_.o)
 .text          0x0000000000000000        0x0 /home/yul/toolchain/arm-gnu-toolchain-12.2.rel1-x86_64-arm-none-eabi/bin/../lib/gcc/arm-none-eabi/12.2.1/../../../../arm-none-eabi/lib/thumb/v8-m.main+fp/hard/libc_nano.a(libc_a-sbrkr.o)
 .data          0x0000000000000000        0x0 /home/yul/toolchain/arm-gnu-toolchain-12.2.rel1-x86_64-arm-none-eabi/bin/../lib/gcc/arm-none-eabi/12.2.1/../../../../arm-none-eabi/lib/thumb/v8-m.main+fp/hard/libc_nano.a(libc_a-sbrkr.o)
 .bss           0x0000000000000000        0x0 /home/yul/toolchain/arm-gnu-toolchain-12.2.rel1-x86_64-arm-none-eabi/bin/../lib/gcc/arm-none-eabi/12.2.1/../../../../arm-none-eabi/lib/thumb/v8-m.main+fp/hard/libc_nano.a(libc_a-sbrkr.o)
 .text          0x0000000000000000        0x0 /home/yul/toolchain/arm-gnu-toolchain-12.2.rel1-x86_64-arm-none-eabi/bin/../lib/gcc/arm-none-eabi/12.2.1/../../../../arm-none-eabi/lib/thumb/v8-m.main+fp/hard/libc_nano.a(libc_a-errno.o)
 .data          0x0000000000000000        0x0 /home/yul/toolchain/arm-gnu-toolchain-12.2.rel1-x86_64-arm-none-eabi/bin/../lib/gcc/arm-none-eabi/12.2.1/../../../../arm-none-eabi/lib/thumb/v8-m.main+fp/hard/libc_nano.a(libc_a-errno.o)
 .bss           0x0000000000000000        0x0 /home/yul/toolchain/arm-gnu-toolchain-12.2.rel1-x86_64-arm-none-eabi/bin/../lib/gcc/arm-none-eabi/12.2.1/../../../../arm-none-eabi/lib/thumb/v8-m.main+fp/hard/libc_nano.a(libc_a-errno.o)
 .text          0x0000000000000000        0x0 /home/yul/toolchain/arm-gnu-toolchain-12.2.rel1-x86_64-arm-none-eabi/bin/../lib/gcc/arm-none-eabi/12.2.1/../../../../arm-none-eabi/lib/thumb/v8-m.main+fp/hard/libnosys.a(close.o)
 .data          0x0000000000000000        0x0 /home/yul/toolchain/arm-gnu-toolchain-12.2.rel1-x86_64-arm-none-eabi/bin/../lib/gcc/arm-none-eabi/12.2.1/../../../../arm-none-eabi/lib/thumb/v8-m.main+fp/hard/libnosys.a(close.o)
 .bss           0x0000000000000000        0x0 /home/yul/toolchain/arm-gnu-toolchain-12.2.rel1-x86_64-arm-none-eabi/bin/../lib/gcc/arm-none-eabi/12.2.1/../../../../arm-none-eabi/lib/thumb/v8-m.main+fp/hard/libnosys.a(close.o)
 .gnu.warning._close
                0x0000000000000000        0x0 /home/yul/toolchain/arm-gnu-toolchain-12.2.rel1-x86_64-arm-none-eabi/bin/../lib/gcc/arm-none-eabi/12.2.1/../../../../arm-none-eabi/lib/thumb/v8-m.main+fp/hard/libnosys.a(close.o)
 .text          0x0000000000000000        0x0 /home/yul/toolchain/arm-gnu-toolchain-12.2.rel1-x86_64-arm-none-eabi/bin/../lib/gcc/arm-none-eabi/12.2.1/../../../../arm-none-eabi/lib/thumb/v8-m.main+fp/hard/libnosys.a(fstat.o)
 .data          0x0000000000000000        0x0 /home/yul/toolchain/arm-gnu-toolchain-12.2.rel1-x86_64-arm-none-eabi/bin/../lib/gcc/arm-none-eabi/12.2.1/../../../../arm-none-eabi/lib/thumb/v8-m.main+fp/hard/libnosys.a(fstat.o)
 .bss           0x0000000000000000        0x0 /home/yul/toolchain/arm-gnu-toolchain-12.2.rel1-x86_64-arm-none-eabi/bin/../lib/gcc/arm-none-eabi/12.2.1/../../../../arm-none-eabi/lib/thumb/v8-m.main+fp/hard/libnosys.a(fstat.o)
 .gnu.warning._fstat
                0x0000000000000000        0x0 /home/yul/toolchain/arm-gnu-toolchain-12.2.rel1-x86_64-arm-none-eabi/bin/../lib/gcc/arm-none-eabi/12.2.1/../../../../arm-none-eabi/lib/thumb/v8-m.main+fp/hard/libnosys.a(fstat.o)
 .text          0x0000000000000000        0x0 /home/yul/toolchain/arm-gnu-toolchain-12.2.rel1-x86_64-arm-none-eabi/bin/../lib/gcc/arm-none-eabi/12.2.1/../../../../arm-none-eabi/lib/thumb/v8-m.main+fp/hard/libnosys.a(isatty.o)
 .data          0x0000000000000000        0x0 /home/yul/toolchain/arm-gnu-toolchain-12.2.rel1-x86_64-arm-none-eabi/bin/../lib/gcc/arm-none-eabi/12.2.1/../../../../arm-none-eabi/lib/thumb/v8-m.main+fp/hard/libnosys.a(isatty.o)
 .bss           0x0000000000000000        0x0 /home/yul/toolchain/arm-gnu-toolchain-12.2.rel1-x86_64-arm-none-eabi/bin/../lib/gcc/arm-none-eabi/12.2.1/../../../../arm-none-eabi/lib/thumb/v8-m.main+fp/hard/libnosys.a(isatty.o)
 .gnu.warning._isatty
                0x0000000000000000        0x0 /home/yul/toolchain/arm-gnu-toolchain-12.2.rel1-x86_64-arm-none-eabi/bin/../lib/gcc/arm-none-eabi/12.2.1/../../../../arm-none-eabi/lib/thumb/v8-m.main+fp/hard/libnosys.a(isatty.o)
 .text          0x0000000000000000        0x0 /home/yul/toolchain/arm-gnu-toolchain-12.2.rel1-x86_64-arm-none-eabi/bin/../lib/gcc/arm-none-eabi/12.2.1/../../../../arm-none-eabi/lib/thumb/v8-m.main+fp/hard/libnosys.a(lseek.o)
 .data          0x0000000000000000        0x0 /home/yul/toolchain/arm-gnu-toolchain-12.2.rel1-x86_64-arm-none-eabi/bin/../lib/gcc/arm-none-eabi/12.2.1/../../../../arm-none-eabi/lib/thumb/v8-m.main+fp/hard/libnosys.a(lseek.o)
 .bss           0x0000000000000000        0x0 /home/yul/toolchain/arm-gnu-toolchain-12.2.rel1-x86_64-arm-none-eabi/bin/../lib/gcc/arm-none-eabi/12.2.1/../../../../arm-none-eabi/lib/thumb/v8-m.main+fp/hard/libnosys.a(lseek.o)
 .gnu.warning._lseek
                0x0000000000000000        0x0 /home/yul/toolchain/arm-gnu-toolchain-12.2.rel1-x86_64-arm-none-eabi/bin/../lib/gcc/arm-none-eabi/12.2.1/../../../../arm-none-eabi/lib/thumb/v8-m.main+fp/hard/libnosys.a(lseek.o)
 .text          0x0000000000000000        0x0 /home/yul/toolchain/arm-gnu-toolchain-12.2.rel1-x86_64-arm-none-eabi/bin/../lib/gcc/arm-none-eabi/12.2.1/../../../../arm-none-eabi/lib/thumb/v8-m.main+fp/hard/libnosys.a(read.o)
 .data          0x0000000000000000        0x0 /home/yul/toolchain/arm-gnu-toolchain-12.2.rel1-x86_64-arm-none-eabi/bin/../lib/gcc/arm-none-eabi/12.2.1/../../../../arm-none-eabi/lib/thumb/v8-m.main+fp/hard/libnosys.a(read.o)
 .bss           0x0000000000000000        0x0 /home/yul/toolchain/arm-gnu-toolchain-12.2.rel1-x86_64-arm-none-eabi/bin/../lib/gcc/arm-none-eabi/12.2.1/../../../../arm-none-eabi/lib/thumb/v8-m.main+fp/hard/libnosys.a(read.o)
 .gnu.warning._read
                0x0000000000000000        0x0 /home/yul/toolchain/arm-gnu-toolchain-12.2.rel1-x86_64-arm-none-eabi/bin/../lib/gcc/arm-none-eabi/12.2.1/../../../../arm-none-eabi/lib/thumb/v8-m.main+fp/hard/libnosys.a(read.o)
 .text          0x0000000000000000        0x0 /home/yul/toolchain/arm-gnu-toolchain-12.2.rel1-x86_64-arm-none-eabi/bin/../lib/gcc/arm-none-eabi/12.2.1/../../../../arm-none-eabi/lib/thumb/v8-m.main+fp/hard/libnosys.a(sbrk.o)
 .data          0x0000000000000000        0x0 /home/yul/toolchain/arm-gnu-toolchain-12.2.rel1-x86_64-arm-none-eabi/bin/../lib/gcc/arm-none-eabi/12.2.1/../../../../arm-none-eabi/lib/thumb/v8-m.main+fp/hard/libnosys.a(sbrk.o)
 .bss           0x0000000000000000        0x0 /home/yul/toolchain/arm-gnu-toolchain-12.2.rel1-x86_64-arm-none-eabi/bin/../lib/gcc/arm-none-eabi/12.2.1/../../../../arm-none-eabi/lib/thumb/v8-m.main+fp/hard/libnosys.a(sbrk.o)
 .text          0x0000000000000000        0x0 /home/yul/toolchain/arm-gnu-toolchain-12.2.rel1-x86_64-arm-none-eabi/bin/../lib/gcc/arm-none-eabi/12.2.1/../../../../arm-none-eabi/lib/thumb/v8-m.main+fp/hard/libnosys.a(_exit.o)
 .data          0x0000000000000000        0x0 /home/yul/toolchain/arm-gnu-toolchain-12.2.rel1-x86_64-arm-none-eabi/bin/../lib/gcc/arm-none-eabi/12.2.1/../../../../arm-none-eabi/lib/thumb/v8-m.main+fp/hard/libnosys.a(_exit.o)
 .bss           0x0000000000000000        0x0 /home/yul/toolchain/arm-gnu-toolchain-12.2.rel1-x86_64-arm-none-eabi/bin/../lib/gcc/arm-none-eabi/12.2.1/../../../../arm-none-eabi/lib/thumb/v8-m.main+fp/hard/libnosys.a(_exit.o)
 .text._exit    0x0000000000000000        0x4 /home/yul/toolchain/arm-gnu-toolchain-12.2.rel1-x86_64-arm-none-eabi/bin/../lib/gcc/arm-none-eabi/12.2.1/../../../../arm-none-eabi/lib/thumb/v8-m.main+fp/hard/libnosys.a(_exit.o)
 .debug_frame   0x0000000000000000       0x20 /home/yul/toolchain/arm-gnu-toolchain-12.2.rel1-x86_64-arm-none-eabi/bin/../lib/gcc/arm-none-eabi/12.2.1/../../../../arm-none-eabi/lib/thumb/v8-m.main+fp/hard/libnosys.a(_exit.o)
 .ARM.attributes
                0x0000000000000000       0x38 /home/yul/toolchain/arm-gnu-toolchain-12.2.rel1-x86_64-arm-none-eabi/bin/../lib/gcc/arm-none-eabi/12.2.1/../../../../arm-none-eabi/lib/thumb/v8-m.main+fp/hard/libnosys.a(_exit.o)
 .data          0x0000000000000000        0x0 /home/yul/toolchain/arm-gnu-toolchain-12.2.rel1-x86_64-arm-none-eabi/bin/../lib/gcc/arm-none-eabi/12.2.1/thumb/v8-m.main+fp/hard/libgcc.a(_aeabi_uldivmod.o)
 .bss           0x0000000000000000        0x0 /home/yul/toolchain/arm-gnu-toolchain-12.2.rel1-x86_64-arm-none-eabi/bin/../lib/gcc/arm-none-eabi/12.2.1/thumb/v8-m.main+fp/hard/libgcc.a(_aeabi_uldivmod.o)
 .text          0x0000000000000000        0x0 /home/yul/toolchain/arm-gnu-toolchain-12.2.rel1-x86_64-arm-none-eabi/bin/../lib/gcc/arm-none-eabi/12.2.1/thumb/v8-m.main+fp/hard/libgcc.a(_udivmoddi4.o)
 .data          0x0000000000000000        0x0 /home/yul/toolchain/arm-gnu-toolchain-12.2.rel1-x86_64-arm-none-eabi/bin/../lib/gcc/arm-none-eabi/12.2.1/thumb/v8-m.main+fp/hard/libgcc.a(_udivmoddi4.o)
 .bss           0x0000000000000000        0x0 /home/yul/toolchain/arm-gnu-toolchain-12.2.rel1-x86_64-arm-none-eabi/bin/../lib/gcc/arm-none-eabi/12.2.1/thumb/v8-m.main+fp/hard/libgcc.a(_udivmoddi4.o)
 .ARM.extab.text.__udivmoddi4
                0x0000000000000000        0x0 /home/yul/toolchain/arm-gnu-toolchain-12.2.rel1-x86_64-arm-none-eabi/bin/../lib/gcc/arm-none-eabi/12.2.1/thumb/v8-m.main+fp/hard/libgcc.a(_udivmoddi4.o)
 .data          0x0000000000000000        0x0 /home/yul/toolchain/arm-gnu-toolchain-12.2.rel1-x86_64-arm-none-eabi/bin/../lib/gcc/arm-none-eabi/12.2.1/thumb/v8-m.main+fp/hard/libgcc.a(_dvmd_tls.o)
 .bss           0x0000000000000000        0x0 /home/yul/toolchain/arm-gnu-toolchain-12.2.rel1-x86_64-arm-none-eabi/bin/../lib/gcc/arm-none-eabi/12.2.1/thumb/v8-m.main+fp/hard/libgcc.a(_dvmd_tls.o)
 .text          0x0000000000000000        0x0 /home/yul/toolchain/arm-gnu-toolchain-12.2.rel1-x86_64-arm-none-eabi/bin/../lib/gcc/arm-none-eabi/12.2.1/thumb/v8-m.main+fp/hard/crtend.o
 .data          0x0000000000000000        0x0 /home/yul/toolchain/arm-gnu-toolchain-12.2.rel1-x86_64-arm-none-eabi/bin/../lib/gcc/arm-none-eabi/12.2.1/thumb/v8-m.main+fp/hard/crtend.o
 .bss           0x0000000000000000        0x0 /home/yul/toolchain/arm-gnu-toolchain-12.2.rel1-x86_64-arm-none-eabi/bin/../lib/gcc/arm-none-eabi/12.2.1/thumb/v8-m.main+fp/hard/crtend.o
 .rodata.all_implied_fbits
                0x0000000000000000       0x24 /home/yul/toolchain/arm-gnu-toolchain-12.2.rel1-x86_64-arm-none-eabi/bin/../lib/gcc/arm-none-eabi/12.2.1/thumb/v8-m.main+fp/hard/crtend.o
 .eh_frame      0x0000000000000000        0x4 /home/yul/toolchain/arm-gnu-toolchain-12.2.rel1-x86_64-arm-none-eabi/bin/../lib/gcc/arm-none-eabi/12.2.1/thumb/v8-m.main+fp/hard/crtend.o
 .text          0x0000000000000000        0x0 /home/yul/toolchain/arm-gnu-toolchain-12.2.rel1-x86_64-arm-none-eabi/bin/../lib/gcc/arm-none-eabi/12.2.1/thumb/v8-m.main+fp/hard/crtn.o
 .data          0x0000000000000000        0x0 /home/yul/toolchain/arm-gnu-toolchain-12.2.rel1-x86_64-arm-none-eabi/bin/../lib/gcc/arm-none-eabi/12.2.1/thumb/v8-m.main+fp/hard/crtn.o
 .bss           0x0000000000000000        0x0 /home/yul/toolchain/arm-gnu-toolchain-12.2.rel1-x86_64-arm-none-eabi/bin/../lib/gcc/arm-none-eabi/12.2.1/thumb/v8-m.main+fp/hard/crtn.o

Memory Configuration

Name             Origin             Length             Attributes
RAM              0x0000000020000000 0x0000000000030000 xrw
RAM2             0x0000000020030000 0x0000000000010000 xrw
ROM              0x0000000008000000 0x0000000000080000 xr
*default*        0x0000000000000000 0xffffffffffffffff

Linker script and memory map

LOAD /home/yul/toolchain/arm-gnu-toolchain-12.2.rel1-x86_64-arm-none-eabi/bin/../lib/gcc/arm-none-eabi/12.2.1/thumb/v8-m.main+fp/hard/crti.o
LOAD /home/yul/toolchain/arm-gnu-toolchain-12.2.rel1-x86_64-arm-none-eabi/bin/../lib/gcc/arm-none-eabi/12.2.1/thumb/v8-m.main+fp/hard/crtbegin.o
LOAD /home/yul/toolchain/arm-gnu-toolchain-12.2.rel1-x86_64-arm-none-eabi/bin/../lib/gcc/arm-none-eabi/12.2.1/../../../../arm-none-eabi/lib/thumb/v8-m.main+fp/hard/crt0.o
LOAD build/main.o
LOAD build/shell.o
LOAD build/is31fl3737.o
LOAD build/keyboard.o
LOAD build/stm32l5xx_it.o
LOAD build/stm32l5xx_hal_msp.o
LOAD build/usbd_conf.o
LOAD build/usb_device.o
LOAD build/usbd_desc.o
LOAD build/usbd_cdc_if.o
LOAD build/stm32l5xx_hal_pcd.o
LOAD build/stm32l5xx_hal_pcd_ex.o
LOAD build/stm32l5xx_ll_usb.o
LOAD build/stm32l5xx_hal.o
LOAD build/stm32l5xx_hal_i2c.o
LOAD build/stm32l5xx_hal_i2c_ex.o
LOAD build/stm32l5xx_hal_rcc.o
LOAD build/stm32l5xx_hal_rcc_ex.o
LOAD build/stm32l5xx_hal_flash.o
LOAD build/stm32l5xx_hal_flash_ex.o
LOAD build/stm32l5xx_hal_flash_ramfunc.o
LOAD build/stm32l5xx_hal_gpio.o
LOAD build/stm32l5xx_hal_dma.o
LOAD build/stm32l5xx_hal_dma_ex.o
LOAD build/stm32l5xx_hal_exti.o
LOAD build/stm32l5xx_hal_pwr.o
LOAD build/stm32l5xx_hal_pwr_ex.o
LOAD build/stm32l5xx_hal_cortex.o
LOAD build/stm32l5xx_hal_icache.o
LOAD build/stm32l5xx_hal_tim.o
LOAD build/stm32l5xx_hal_tim_ex.o
LOAD build/stm32l5xx_hal_uart.o
LOAD build/stm32l5xx_hal_uart_ex.o
LOAD build/system_stm32l5xx.o
LOAD build/usbd_core.o
LOAD build/usbd_ctlreq.o
LOAD build/usbd_ioreq.o
LOAD build/usbd_cdc.o
LOAD build/startup_stm32l562xx.o
LOAD /home/yul/toolchain/arm-gnu-toolchain-12.2.rel1-x86_64-arm-none-eabi/bin/../lib/gcc/arm-none-eabi/12.2.1/../../../../arm-none-eabi/lib/thumb/v8-m.main+fp/hard/libc_nano.a
LOAD /home/yul/toolchain/arm-gnu-toolchain-12.2.rel1-x86_64-arm-none-eabi/bin/../lib/gcc/arm-none-eabi/12.2.1/../../../../arm-none-eabi/lib/thumb/v8-m.main+fp/hard/libm.a
LOAD /home/yul/toolchain/arm-gnu-toolchain-12.2.rel1-x86_64-arm-none-eabi/bin/../lib/gcc/arm-none-eabi/12.2.1/../../../../arm-none-eabi/lib/thumb/v8-m.main+fp/hard/libnosys.a
START GROUP
LOAD /home/yul/toolchain/arm-gnu-toolchain-12.2.rel1-x86_64-arm-none-eabi/bin/../lib/gcc/arm-none-eabi/12.2.1/thumb/v8-m.main+fp/hard/libgcc.a
LOAD /home/yul/toolchain/arm-gnu-toolchain-12.2.rel1-x86_64-arm-none-eabi/bin/../lib/gcc/arm-none-eabi/12.2.1/../../../../arm-none-eabi/lib/thumb/v8-m.main+fp/hard/libc_nano.a
END GROUP
START GROUP
LOAD /home/yul/toolchain/arm-gnu-toolchain-12.2.rel1-x86_64-arm-none-eabi/bin/../lib/gcc/arm-none-eabi/12.2.1/thumb/v8-m.main+fp/hard/libgcc.a
LOAD /home/yul/toolchain/arm-gnu-toolchain-12.2.rel1-x86_64-arm-none-eabi/bin/../lib/gcc/arm-none-eabi/12.2.1/../../../../arm-none-eabi/lib/thumb/v8-m.main+fp/hard/libc_nano.a
END GROUP
LOAD /home/yul/toolchain/arm-gnu-toolchain-12.2.rel1-x86_64-arm-none-eabi/bin/../lib/gcc/arm-none-eabi/12.2.1/thumb/v8-m.main+fp/hard/crtend.o
LOAD /home/yul/toolchain/arm-gnu-toolchain-12.2.rel1-x86_64-arm-none-eabi/bin/../lib/gcc/arm-none-eabi/12.2.1/thumb/v8-m.main+fp/hard/crtn.o
                0x0000000020030000                _estack = (ORIGIN (RAM) + LENGTH (RAM))
                0x0000000000000200                _Min_Heap_Size = 0x200
                0x0000000000004000                _Min_Stack_Size = 0x4000

.isr_vector     0x0000000008000000      0x1f8
                0x0000000008000000                . = ALIGN (0x8)
 *(.isr_vector)
 .isr_vector    0x0000000008000000      0x1f4 build/startup_stm32l562xx.o
                0x0000000008000000                g_pfnVectors
                0x00000000080001f8                . = ALIGN (0x8)
 *fill*         0x00000000080001f4        0x4 

.text           0x00000000080001f8     0x7c98
                0x00000000080001f8                . = ALIGN (0x8)
 *(.text)
 .text          0x00000000080001f8       0x14 /home/yul/toolchain/arm-gnu-toolchain-12.2.rel1-x86_64-arm-none-eabi/bin/../lib/gcc/arm-none-eabi/12.2.1/../../../../arm-none-eabi/lib/thumb/v8-m.main+fp/hard/libc_nano.a(libc_a-strcmp.o)
                0x00000000080001f8                strcmp
 .text          0x000000000800020c       0x30 /home/yul/toolchain/arm-gnu-toolchain-12.2.rel1-x86_64-arm-none-eabi/bin/../lib/gcc/arm-none-eabi/12.2.1/thumb/v8-m.main+fp/hard/libgcc.a(_aeabi_uldivmod.o)
                0x000000000800020c                __aeabi_uldivmod
 .text          0x000000000800023c        0x4 /home/yul/toolchain/arm-gnu-toolchain-12.2.rel1-x86_64-arm-none-eabi/bin/../lib/gcc/arm-none-eabi/12.2.1/thumb/v8-m.main+fp/hard/libgcc.a(_dvmd_tls.o)
                0x000000000800023c                __aeabi_ldiv0
                0x000000000800023c                __aeabi_idiv0
 *(.text*)
 .text.deregister_tm_clones
                0x0000000008000240       0x1c /home/yul/toolchain/arm-gnu-toolchain-12.2.rel1-x86_64-arm-none-eabi/bin/../lib/gcc/arm-none-eabi/12.2.1/thumb/v8-m.main+fp/hard/crtbegin.o
 .text.register_tm_clones
                0x000000000800025c       0x28 /home/yul/toolchain/arm-gnu-toolchain-12.2.rel1-x86_64-arm-none-eabi/bin/../lib/gcc/arm-none-eabi/12.2.1/thumb/v8-m.main+fp/hard/crtbegin.o
 .text.__do_global_dtors_aux
                0x0000000008000284       0x28 /home/yul/toolchain/arm-gnu-toolchain-12.2.rel1-x86_64-arm-none-eabi/bin/../lib/gcc/arm-none-eabi/12.2.1/thumb/v8-m.main+fp/hard/crtbegin.o
 .text.frame_dummy
                0x00000000080002ac       0x24 /home/yul/toolchain/arm-gnu-toolchain-12.2.rel1-x86_64-arm-none-eabi/bin/../lib/gcc/arm-none-eabi/12.2.1/thumb/v8-m.main+fp/hard/crtbegin.o
 .text.MX_GPIO_Init
                0x00000000080002d0       0xe0 build/main.o
 .text._write   0x00000000080003b0       0x28 build/main.o
                0x00000000080003b0                _write
 .text.Error_Handler
                0x00000000080003d8        0x4 build/main.o
                0x00000000080003d8                Error_Handler
 .text.MX_I2C1_Init
                0x00000000080003dc       0x54 build/main.o
 .text.MX_I2C2_Init
                0x0000000008000430       0x54 build/main.o
 .text.MX_USART3_UART_Init
                0x0000000008000484       0x60 build/main.o
 .text.MX_ICACHE_Init
                0x00000000080004e4       0x1a build/main.o
 .text.SystemClock_Config
                0x00000000080004fe       0x7e build/main.o
                0x00000000080004fe                SystemClock_Config
 .text.main     0x000000000800057c       0x58 build/main.o
                0x000000000800057c                main
 .text.__NVIC_SystemReset
                0x00000000080005d4       0x24 build/shell.o
 .text.shell_check_cmd
                0x00000000080005f8        0xe build/shell.o
                0x00000000080005f8                shell_check_cmd
 .text.shell_reset
                0x0000000008000606        0x6 build/shell.o
                0x0000000008000606                shell_reset
 .text.gpio_handler
                0x000000000800060c       0x20 build/shell.o
                0x000000000800060c                gpio_handler
 .text.i2c_handler
                0x000000000800062c       0xa4 build/shell.o
                0x000000000800062c                i2c_handler
 .text.leds_handler
                0x00000000080006d0      0x104 build/shell.o
                0x00000000080006d0                leds_handler
 .text.shell_process_cmd
                0x00000000080007d4       0xe0 build/shell.o
                0x00000000080007d4                shell_process_cmd
 .text.shell_start
                0x00000000080008b4       0xd4 build/shell.o
                0x00000000080008b4                shell_start
 .text.IS31FL3737_write_register
                0x0000000008000988       0x44 build/is31fl3737.o
                0x0000000008000988                IS31FL3737_write_register
 .text.IS31FL3737_init
                0x00000000080009cc       0x90 build/is31fl3737.o
                0x00000000080009cc                IS31FL3737_init
 .text.get_bit_position
                0x0000000008000a5c       0x16 build/keyboard.o
                0x0000000008000a5c                get_bit_position
 *fill*         0x0000000008000a72        0x2 
 .text.scan_matrix
                0x0000000008000a74       0x70 build/keyboard.o
                0x0000000008000a74                scan_matrix
 .text.process_matrix
                0x0000000008000ae4       0x40 build/keyboard.o
                0x0000000008000ae4                process_matrix
 .text.NMI_Handler
                0x0000000008000b24        0x2 build/stm32l5xx_it.o
                0x0000000008000b24                NMI_Handler
 .text.HardFault_Handler
                0x0000000008000b26        0x2 build/stm32l5xx_it.o
                0x0000000008000b26                HardFault_Handler
 .text.MemManage_Handler
                0x0000000008000b28        0x2 build/stm32l5xx_it.o
                0x0000000008000b28                MemManage_Handler
 .text.BusFault_Handler
                0x0000000008000b2a        0x2 build/stm32l5xx_it.o
                0x0000000008000b2a                BusFault_Handler
 .text.UsageFault_Handler
                0x0000000008000b2c        0x2 build/stm32l5xx_it.o
                0x0000000008000b2c                UsageFault_Handler
 .text.SVC_Handler
                0x0000000008000b2e        0x2 build/stm32l5xx_it.o
                0x0000000008000b2e                SVC_Handler
 .text.DebugMon_Handler
                0x0000000008000b30        0x2 build/stm32l5xx_it.o
                0x0000000008000b30                DebugMon_Handler
 .text.PendSV_Handler
                0x0000000008000b32        0x2 build/stm32l5xx_it.o
                0x0000000008000b32                PendSV_Handler
 .text.SysTick_Handler
                0x0000000008000b34        0x8 build/stm32l5xx_it.o
                0x0000000008000b34                SysTick_Handler
 .text.USB_FS_IRQHandler
                0x0000000008000b3c       0x10 build/stm32l5xx_it.o
                0x0000000008000b3c                USB_FS_IRQHandler
 .text.HAL_MspInit
                0x0000000008000b4c       0x38 build/stm32l5xx_hal_msp.o
                0x0000000008000b4c                HAL_MspInit
 .text.HAL_I2C_MspInit
                0x0000000008000b84       0xf4 build/stm32l5xx_hal_msp.o
                0x0000000008000b84                HAL_I2C_MspInit
 .text.HAL_UART_MspInit
                0x0000000008000c78       0x8c build/stm32l5xx_hal_msp.o
                0x0000000008000c78                HAL_UART_MspInit
 .text.USBD_Get_USB_Status
                0x0000000008000d04       0x14 build/usbd_conf.o
 .text.SystemClockConfig_Resume
                0x0000000008000d18        0x8 build/usbd_conf.o
 .text.HAL_PCD_MspInit
                0x0000000008000d20       0xbc build/usbd_conf.o
                0x0000000008000d20                HAL_PCD_MspInit
 .text.HAL_PCD_SetupStageCallback
                0x0000000008000ddc       0x10 build/usbd_conf.o
                0x0000000008000ddc                HAL_PCD_SetupStageCallback
 .text.HAL_PCD_DataOutStageCallback
                0x0000000008000dec       0x18 build/usbd_conf.o
                0x0000000008000dec                HAL_PCD_DataOutStageCallback
 .text.HAL_PCD_DataInStageCallback
                0x0000000008000e04       0x16 build/usbd_conf.o
                0x0000000008000e04                HAL_PCD_DataInStageCallback
 .text.HAL_PCD_SOFCallback
                0x0000000008000e1a        0xc build/usbd_conf.o
                0x0000000008000e1a                HAL_PCD_SOFCallback
 .text.HAL_PCD_ResetCallback
                0x0000000008000e26       0x24 build/usbd_conf.o
                0x0000000008000e26                HAL_PCD_ResetCallback
 *fill*         0x0000000008000e4a        0x2 
 .text.HAL_PCD_SuspendCallback
                0x0000000008000e4c       0x20 build/usbd_conf.o
                0x0000000008000e4c                HAL_PCD_SuspendCallback
 .text.HAL_PCD_ResumeCallback
                0x0000000008000e6c       0x28 build/usbd_conf.o
                0x0000000008000e6c                HAL_PCD_ResumeCallback
 .text.USBD_LL_Init
                0x0000000008000e94       0x90 build/usbd_conf.o
                0x0000000008000e94                USBD_LL_Init
 .text.USBD_LL_Start
                0x0000000008000f24       0x10 build/usbd_conf.o
                0x0000000008000f24                USBD_LL_Start
 .text.USBD_LL_OpenEP
                0x0000000008000f34       0x16 build/usbd_conf.o
                0x0000000008000f34                USBD_LL_OpenEP
 .text.USBD_LL_CloseEP
                0x0000000008000f4a       0x10 build/usbd_conf.o
                0x0000000008000f4a                USBD_LL_CloseEP
 .text.USBD_LL_StallEP
                0x0000000008000f5a       0x10 build/usbd_conf.o
                0x0000000008000f5a                USBD_LL_StallEP
 .text.USBD_LL_ClearStallEP
                0x0000000008000f6a       0x10 build/usbd_conf.o
                0x0000000008000f6a                USBD_LL_ClearStallEP
 .text.USBD_LL_IsStallEP
                0x0000000008000f7a       0x2e build/usbd_conf.o
                0x0000000008000f7a                USBD_LL_IsStallEP
 .text.USBD_LL_SetUSBAddress
                0x0000000008000fa8       0x10 build/usbd_conf.o
                0x0000000008000fa8                USBD_LL_SetUSBAddress
 .text.USBD_LL_Transmit
                0x0000000008000fb8       0x10 build/usbd_conf.o
                0x0000000008000fb8                USBD_LL_Transmit
 .text.USBD_LL_PrepareReceive
                0x0000000008000fc8       0x10 build/usbd_conf.o
                0x0000000008000fc8                USBD_LL_PrepareReceive
 .text.USBD_LL_GetRxDataSize
                0x0000000008000fd8        0xc build/usbd_conf.o
                0x0000000008000fd8                USBD_LL_GetRxDataSize
 .text.HAL_PCDEx_LPM_Callback
                0x0000000008000fe4       0x48 build/usbd_conf.o
                0x0000000008000fe4                HAL_PCDEx_LPM_Callback
 .text.USBD_static_malloc
                0x000000000800102c        0x8 build/usbd_conf.o
                0x000000000800102c                USBD_static_malloc
 .text.USBD_static_free
                0x0000000008001034        0x2 build/usbd_conf.o
                0x0000000008001034                USBD_static_free
 *fill*         0x0000000008001036        0x2 
 .text.MX_USB_Device_Init
                0x0000000008001038       0x54 build/usb_device.o
                0x0000000008001038                MX_USB_Device_Init
 .text.USBD_CDC_DeviceDescriptor
                0x000000000800108c        0xc build/usbd_desc.o
                0x000000000800108c                USBD_CDC_DeviceDescriptor
 .text.USBD_CDC_LangIDStrDescriptor
                0x0000000008001098        0xc build/usbd_desc.o
                0x0000000008001098                USBD_CDC_LangIDStrDescriptor
 .text.IntToUnicode
                0x00000000080010a4       0x46 build/usbd_desc.o
 *fill*         0x00000000080010ea        0x2 
 .text.Get_SerialNum
                0x00000000080010ec       0x38 build/usbd_desc.o
 .text.USBD_CDC_SerialStrDescriptor
                0x0000000008001124       0x14 build/usbd_desc.o
                0x0000000008001124                USBD_CDC_SerialStrDescriptor
 .text.USBD_CDC_ProductStrDescriptor
                0x0000000008001138       0x24 build/usbd_desc.o
                0x0000000008001138                USBD_CDC_ProductStrDescriptor
 .text.USBD_CDC_ManufacturerStrDescriptor
                0x000000000800115c       0x1c build/usbd_desc.o
                0x000000000800115c                USBD_CDC_ManufacturerStrDescriptor
 .text.USBD_CDC_ConfigStrDescriptor
                0x0000000008001178       0x24 build/usbd_desc.o
                0x0000000008001178                USBD_CDC_ConfigStrDescriptor
 .text.USBD_CDC_InterfaceStrDescriptor
                0x000000000800119c       0x24 build/usbd_desc.o
                0x000000000800119c                USBD_CDC_InterfaceStrDescriptor
 .text.CDC_DeInit_FS
                0x00000000080011c0        0x4 build/usbd_cdc_if.o
 .text.CDC_Control_FS
                0x00000000080011c4        0x4 build/usbd_cdc_if.o
 .text.CDC_TransmitCplt_FS
                0x00000000080011c8        0x4 build/usbd_cdc_if.o
 .text.CDC_Receive_FS
                0x00000000080011cc       0x38 build/usbd_cdc_if.o
 .text.CDC_Init_FS
                0x0000000008001204       0x28 build/usbd_cdc_if.o
 .text.CDC_Transmit_FS
                0x000000000800122c       0x2c build/usbd_cdc_if.o
                0x000000000800122c                CDC_Transmit_FS
 .text.VCP_retrieveInputData
                0x0000000008001258       0x38 build/usbd_cdc_if.o
                0x0000000008001258                VCP_retrieveInputData
 .text.HAL_PCD_EP_DB_Receive
                0x0000000008001290      0x118 build/stm32l5xx_hal_pcd.o
 .text.HAL_PCD_Init
                0x00000000080013a8       0xdc build/stm32l5xx_hal_pcd.o
                0x00000000080013a8                HAL_PCD_Init
 .text.HAL_PCD_Start
                0x0000000008001484       0x2a build/stm32l5xx_hal_pcd.o
                0x0000000008001484                HAL_PCD_Start
 .text.HAL_PCD_EP_DB_Transmit
                0x00000000080014ae      0x414 build/stm32l5xx_hal_pcd.o
 .text.PCD_EP_ISR_Handler
                0x00000000080018c2      0x520 build/stm32l5xx_hal_pcd.o
 .text.HAL_PCD_SetAddress
                0x0000000008001de2       0x28 build/stm32l5xx_hal_pcd.o
                0x0000000008001de2                HAL_PCD_SetAddress
 .text.HAL_PCD_IRQHandler
                0x0000000008001e0a      0x1b2 build/stm32l5xx_hal_pcd.o
                0x0000000008001e0a                HAL_PCD_IRQHandler
 .text.HAL_PCD_EP_Open
                0x0000000008001fbc       0x7c build/stm32l5xx_hal_pcd.o
                0x0000000008001fbc                HAL_PCD_EP_Open
 .text.HAL_PCD_EP_Close
                0x0000000008002038       0x64 build/stm32l5xx_hal_pcd.o
                0x0000000008002038                HAL_PCD_EP_Close
 .text.HAL_PCD_EP_Receive
                0x000000000800209c       0x3a build/stm32l5xx_hal_pcd.o
                0x000000000800209c                HAL_PCD_EP_Receive
 .text.HAL_PCD_EP_GetRxCount
                0x00000000080020d6       0x12 build/stm32l5xx_hal_pcd.o
                0x00000000080020d6                HAL_PCD_EP_GetRxCount
 .text.HAL_PCD_EP_Transmit
                0x00000000080020e8       0x44 build/stm32l5xx_hal_pcd.o
                0x00000000080020e8                HAL_PCD_EP_Transmit
 .text.HAL_PCD_EP_SetStall
                0x000000000800212c       0x6a build/stm32l5xx_hal_pcd.o
                0x000000000800212c                HAL_PCD_EP_SetStall
 .text.HAL_PCD_EP_ClrStall
                0x0000000008002196       0x76 build/stm32l5xx_hal_pcd.o
                0x0000000008002196                HAL_PCD_EP_ClrStall
 .text.HAL_PCDEx_PMAConfig
                0x000000000800220c       0x38 build/stm32l5xx_hal_pcd_ex.o
                0x000000000800220c                HAL_PCDEx_PMAConfig
 .text.HAL_PCDEx_ActivateLPM
                0x0000000008002244       0x2c build/stm32l5xx_hal_pcd_ex.o
                0x0000000008002244                HAL_PCDEx_ActivateLPM
 .text.USB_EnableGlobalInt
                0x0000000008002270       0x12 build/stm32l5xx_ll_usb.o
                0x0000000008002270                USB_EnableGlobalInt
 .text.USB_DisableGlobalInt
                0x0000000008002282       0x14 build/stm32l5xx_ll_usb.o
                0x0000000008002282                USB_DisableGlobalInt
 .text.USB_DevInit
                0x0000000008002296       0x22 build/stm32l5xx_ll_usb.o
                0x0000000008002296                USB_DevInit
 .text.USB_ActivateEndpoint
                0x00000000080022b8      0x3ca build/stm32l5xx_ll_usb.o
                0x00000000080022b8                USB_ActivateEndpoint
 .text.USB_DeactivateEndpoint
                0x0000000008002682      0x1d6 build/stm32l5xx_ll_usb.o
                0x0000000008002682                USB_DeactivateEndpoint
 .text.USB_EPSetStall
                0x0000000008002858       0x4a build/stm32l5xx_ll_usb.o
                0x0000000008002858                USB_EPSetStall
 .text.USB_EPClearStall
                0x00000000080028a2       0xa2 build/stm32l5xx_ll_usb.o
                0x00000000080028a2                USB_EPClearStall
 .text.USB_SetDevAddress
                0x0000000008002944        0xc build/stm32l5xx_ll_usb.o
                0x0000000008002944                USB_SetDevAddress
 .text.USB_DevConnect
                0x0000000008002950       0x16 build/stm32l5xx_ll_usb.o
                0x0000000008002950                USB_DevConnect
 .text.USB_ReadInterrupts
                0x0000000008002966        0x8 build/stm32l5xx_ll_usb.o
                0x0000000008002966                USB_ReadInterrupts
 .text.USB_WritePMA
                0x000000000800296e       0x24 build/stm32l5xx_ll_usb.o
                0x000000000800296e                USB_WritePMA
 .text.USB_EPStartXfer
                0x0000000008002992      0x7ce build/stm32l5xx_ll_usb.o
                0x0000000008002992                USB_EPStartXfer
 .text.USB_ReadPMA
                0x0000000008003160       0x30 build/stm32l5xx_ll_usb.o
                0x0000000008003160                USB_ReadPMA
 .text.HAL_InitTick
                0x0000000008003190       0x50 build/stm32l5xx_hal.o
                0x0000000008003190                HAL_InitTick
 .text.HAL_Init
                0x00000000080031e0       0x22 build/stm32l5xx_hal.o
                0x00000000080031e0                HAL_Init
 *fill*         0x0000000008003202        0x2 
 .text.HAL_IncTick
                0x0000000008003204       0x18 build/stm32l5xx_hal.o
                0x0000000008003204                HAL_IncTick
 .text.HAL_GetTick
                0x000000000800321c        0xc build/stm32l5xx_hal.o
                0x000000000800321c                HAL_GetTick
 .text.HAL_Delay
                0x0000000008003228       0x28 build/stm32l5xx_hal.o
                0x0000000008003228                HAL_Delay
 .text.I2C_Flush_TXDR
                0x0000000008003250       0x22 build/stm32l5xx_hal_i2c.o
 .text.I2C_TransferConfig
                0x0000000008003272       0x3c build/stm32l5xx_hal_i2c.o
 .text.I2C_IsErrorOccurred
                0x00000000080032ae      0x114 build/stm32l5xx_hal_i2c.o
 .text.I2C_WaitOnTXISFlagUntilTimeout
                0x00000000080033c2       0x60 build/stm32l5xx_hal_i2c.o
 .text.I2C_WaitOnFlagUntilTimeout
                0x0000000008003422       0x6a build/stm32l5xx_hal_i2c.o
 .text.I2C_WaitOnSTOPFlagUntilTimeout
                0x000000000800348c       0x5e build/stm32l5xx_hal_i2c.o
 .text.HAL_I2C_Init
                0x00000000080034ea       0xbc build/stm32l5xx_hal_i2c.o
                0x00000000080034ea                HAL_I2C_Init
 *fill*         0x00000000080035a6        0x2 
 .text.HAL_I2C_Master_Transmit
                0x00000000080035a8      0x17c build/stm32l5xx_hal_i2c.o
                0x00000000080035a8                HAL_I2C_Master_Transmit
 .text.HAL_I2C_IsDeviceReady
                0x0000000008003724      0x16c build/stm32l5xx_hal_i2c.o
                0x0000000008003724                HAL_I2C_IsDeviceReady
 .text.HAL_I2CEx_ConfigAnalogFilter
                0x0000000008003890       0x5c build/stm32l5xx_hal_i2c_ex.o
                0x0000000008003890                HAL_I2CEx_ConfigAnalogFilter
 .text.HAL_I2CEx_ConfigDigitalFilter
                0x00000000080038ec       0x58 build/stm32l5xx_hal_i2c_ex.o
                0x00000000080038ec                HAL_I2CEx_ConfigDigitalFilter
 .text.RCC_GetSysClockFreqFromPLLSource
                0x0000000008003944       0x90 build/stm32l5xx_hal_rcc.o
 .text.RCC_SetFlashLatencyFromMSIRange
                0x00000000080039d4       0x94 build/stm32l5xx_hal_rcc.o
 .text.HAL_RCC_GetSysClockFreq
                0x0000000008003a68       0xd8 build/stm32l5xx_hal_rcc.o
                0x0000000008003a68                HAL_RCC_GetSysClockFreq
 .text.HAL_RCC_GetHCLKFreq
                0x0000000008003b40       0x20 build/stm32l5xx_hal_rcc.o
                0x0000000008003b40                HAL_RCC_GetHCLKFreq
 .text.HAL_RCC_OscConfig
                0x0000000008003b60      0x7b4 build/stm32l5xx_hal_rcc.o
                0x0000000008003b60                HAL_RCC_OscConfig
 .text.HAL_RCC_ClockConfig
                0x0000000008004314      0x1fc build/stm32l5xx_hal_rcc.o
                0x0000000008004314                HAL_RCC_ClockConfig
 .text.HAL_RCC_GetPCLK1Freq
                0x0000000008004510       0x20 build/stm32l5xx_hal_rcc.o
                0x0000000008004510                HAL_RCC_GetPCLK1Freq
 .text.HAL_RCC_GetPCLK2Freq
                0x0000000008004530       0x20 build/stm32l5xx_hal_rcc.o
                0x0000000008004530                HAL_RCC_GetPCLK2Freq
 .text.RCCEx_PLLSAI2_Config
                0x0000000008004550       0xe0 build/stm32l5xx_hal_rcc_ex.o
 .text.RCCEx_PLLSAI1_Config
                0x0000000008004630      0x140 build/stm32l5xx_hal_rcc_ex.o
 .text.HAL_RCCEx_PeriphCLKConfig
                0x0000000008004770      0x568 build/stm32l5xx_hal_rcc_ex.o
                0x0000000008004770                HAL_RCCEx_PeriphCLKConfig
 .text.HAL_GPIO_Init
                0x0000000008004cd8      0x1c8 build/stm32l5xx_hal_gpio.o
                0x0000000008004cd8                HAL_GPIO_Init
 .text.HAL_GPIO_ReadPin
                0x0000000008004ea0        0xe build/stm32l5xx_hal_gpio.o
                0x0000000008004ea0                HAL_GPIO_ReadPin
 .text.HAL_GPIO_WritePin
                0x0000000008004eae        0xa build/stm32l5xx_hal_gpio.o
                0x0000000008004eae                HAL_GPIO_WritePin
 .text.HAL_PWREx_GetVoltageRange
                0x0000000008004eb8       0x10 build/stm32l5xx_hal_pwr_ex.o
                0x0000000008004eb8                HAL_PWREx_GetVoltageRange
 .text.HAL_PWREx_EnableVddUSB
                0x0000000008004ec8       0x10 build/stm32l5xx_hal_pwr_ex.o
                0x0000000008004ec8                HAL_PWREx_EnableVddUSB
 .text.HAL_PWREx_DisableUCPDDeadBattery
                0x0000000008004ed8       0x10 build/stm32l5xx_hal_pwr_ex.o
                0x0000000008004ed8                HAL_PWREx_DisableUCPDDeadBattery
 .text.HAL_PWREx_SMPS_GetEffectiveMode
                0x0000000008004ee8       0x24 build/stm32l5xx_hal_pwr_ex.o
                0x0000000008004ee8                HAL_PWREx_SMPS_GetEffectiveMode
 .text.HAL_PWREx_ControlVoltageScaling
                0x0000000008004f0c       0x90 build/stm32l5xx_hal_pwr_ex.o
                0x0000000008004f0c                HAL_PWREx_ControlVoltageScaling
 .text.__NVIC_EnableIRQ
                0x0000000008004f9c       0x1c build/stm32l5xx_hal_cortex.o
 .text.__NVIC_SetPriority
                0x0000000008004fb8       0x28 build/stm32l5xx_hal_cortex.o
 .text.NVIC_EncodePriority
                0x0000000008004fe0       0x3e build/stm32l5xx_hal_cortex.o
 *fill*         0x000000000800501e        0x2 
 .text.HAL_NVIC_SetPriorityGrouping
                0x0000000008005020       0x24 build/stm32l5xx_hal_cortex.o
                0x0000000008005020                HAL_NVIC_SetPriorityGrouping
 .text.HAL_NVIC_SetPriority
                0x0000000008005044       0x20 build/stm32l5xx_hal_cortex.o
                0x0000000008005044                HAL_NVIC_SetPriority
 .text.HAL_NVIC_EnableIRQ
                0x0000000008005064        0x8 build/stm32l5xx_hal_cortex.o
                0x0000000008005064                HAL_NVIC_EnableIRQ
 .text.HAL_SYSTICK_Config
                0x000000000800506c       0x28 build/stm32l5xx_hal_cortex.o
                0x000000000800506c                HAL_SYSTICK_Config
 .text.HAL_ICACHE_ConfigAssociativityMode
                0x0000000008005094       0x24 build/stm32l5xx_hal_icache.o
                0x0000000008005094                HAL_ICACHE_ConfigAssociativityMode
 .text.HAL_ICACHE_Enable
                0x00000000080050b8       0x14 build/stm32l5xx_hal_icache.o
                0x00000000080050b8                HAL_ICACHE_Enable
 .text.UART_EndRxTransfer
                0x00000000080050cc       0x56 build/stm32l5xx_hal_uart.o
 *fill*         0x0000000008005122        0x2 
 .text.UART_SetConfig
                0x0000000008005124      0x38c build/stm32l5xx_hal_uart.o
                0x0000000008005124                UART_SetConfig
 .text.UART_AdvFeatureConfig
                0x00000000080054b0       0xca build/stm32l5xx_hal_uart.o
                0x00000000080054b0                UART_AdvFeatureConfig
 .text.UART_WaitOnFlagUntilTimeout
                0x000000000800557a       0x96 build/stm32l5xx_hal_uart.o
                0x000000000800557a                UART_WaitOnFlagUntilTimeout
 .text.UART_CheckIdleState
                0x0000000008005610       0xca build/stm32l5xx_hal_uart.o
                0x0000000008005610                UART_CheckIdleState
 .text.HAL_UART_Init
                0x00000000080056da       0x66 build/stm32l5xx_hal_uart.o
                0x00000000080056da                HAL_UART_Init
 .text.UARTEx_SetNbDataToProcess
                0x0000000008005740       0x4c build/stm32l5xx_hal_uart_ex.o
 .text.HAL_UARTEx_DisableFifoMode
                0x000000000800578c       0x3e build/stm32l5xx_hal_uart_ex.o
                0x000000000800578c                HAL_UARTEx_DisableFifoMode
 .text.HAL_UARTEx_SetTxFifoThreshold
                0x00000000080057ca       0x4a build/stm32l5xx_hal_uart_ex.o
                0x00000000080057ca                HAL_UARTEx_SetTxFifoThreshold
 .text.HAL_UARTEx_SetRxFifoThreshold
                0x0000000008005814       0x4a build/stm32l5xx_hal_uart_ex.o
                0x0000000008005814                HAL_UARTEx_SetRxFifoThreshold
 *fill*         0x000000000800585e        0x2 
 .text.SystemInit
                0x0000000008005860       0x14 build/system_stm32l5xx.o
                0x0000000008005860                SystemInit
 .text.SystemCoreClockUpdate
                0x0000000008005874       0xd8 build/system_stm32l5xx.o
                0x0000000008005874                SystemCoreClockUpdate
 .text.USBD_Init
                0x000000000800594c       0x2e build/usbd_core.o
                0x000000000800594c                USBD_Init
 .text.USBD_RegisterClass
                0x000000000800597a       0x34 build/usbd_core.o
                0x000000000800597a                USBD_RegisterClass
 .text.USBD_Start
                0x00000000080059ae        0x8 build/usbd_core.o
                0x00000000080059ae                USBD_Start
 .text.USBD_SetClassConfig
                0x00000000080059b6       0x12 build/usbd_core.o
                0x00000000080059b6                USBD_SetClassConfig
 .text.USBD_ClrClassConfig
                0x00000000080059c8       0x12 build/usbd_core.o
                0x00000000080059c8                USBD_ClrClassConfig
 .text.USBD_LL_SetupStage
                0x00000000080059da       0x58 build/usbd_core.o
                0x00000000080059da                USBD_LL_SetupStage
 .text.USBD_LL_Reset
                0x0000000008005a32       0x64 build/usbd_core.o
                0x0000000008005a32                USBD_LL_Reset
 .text.USBD_LL_SetSpeed
                0x0000000008005a96        0x6 build/usbd_core.o
                0x0000000008005a96                USBD_LL_SetSpeed
 .text.USBD_LL_Suspend
                0x0000000008005a9c       0x1e build/usbd_core.o
                0x0000000008005a9c                USBD_LL_Suspend
 .text.USBD_LL_Resume
                0x0000000008005aba       0x1a build/usbd_core.o
                0x0000000008005aba                USBD_LL_Resume
 .text.USBD_LL_SOF
                0x0000000008005ad4       0x22 build/usbd_core.o
                0x0000000008005ad4                USBD_LL_SOF
 .text.USBD_CoreFindIF
                0x0000000008005af6        0x4 build/usbd_core.o
                0x0000000008005af6                USBD_CoreFindIF
 .text.USBD_CoreFindEP
                0x0000000008005afa        0x4 build/usbd_core.o
                0x0000000008005afa                USBD_CoreFindEP
 .text.USBD_LL_DataOutStage
                0x0000000008005afe       0xc6 build/usbd_core.o
                0x0000000008005afe                USBD_LL_DataOutStage
 .text.USBD_LL_DataInStage
                0x0000000008005bc4       0xd6 build/usbd_core.o
                0x0000000008005bc4                USBD_LL_DataInStage
 .text.USBD_GetNextDesc
                0x0000000008005c9a        0xe build/usbd_core.o
                0x0000000008005c9a                USBD_GetNextDesc
 .text.USBD_GetEpDesc
                0x0000000008005ca8       0x3e build/usbd_core.o
                0x0000000008005ca8                USBD_GetEpDesc
 .text.USBD_GetLen
                0x0000000008005ce6       0x14 build/usbd_ctlreq.o
 .text.USBD_ParseSetupRequest
                0x0000000008005cfa       0x28 build/usbd_ctlreq.o
                0x0000000008005cfa                USBD_ParseSetupRequest
 .text.USBD_CtlError
                0x0000000008005d22       0x14 build/usbd_ctlreq.o
                0x0000000008005d22                USBD_CtlError
 .text.USBD_GetDescriptor
                0x0000000008005d36      0x1ac build/usbd_ctlreq.o
 .text.USBD_SetAddress
                0x0000000008005ee2       0x50 build/usbd_ctlreq.o
 *fill*         0x0000000008005f32        0x2 
 .text.USBD_SetConfig
                0x0000000008005f34       0xcc build/usbd_ctlreq.o
 .text.USBD_GetConfig
                0x0000000008006000       0x40 build/usbd_ctlreq.o
 .text.USBD_GetStatus
                0x0000000008006040       0x38 build/usbd_ctlreq.o
 .text.USBD_SetFeature
                0x0000000008006078       0x2a build/usbd_ctlreq.o
 .text.USBD_ClrFeature
                0x00000000080060a2       0x26 build/usbd_ctlreq.o
 .text.USBD_StdDevReq
                0x00000000080060c8       0x76 build/usbd_ctlreq.o
                0x00000000080060c8                USBD_StdDevReq
 .text.USBD_StdItfReq
                0x000000000800613e       0x84 build/usbd_ctlreq.o
                0x000000000800613e                USBD_StdItfReq
 .text.USBD_StdEPReq
                0x00000000080061c2      0x230 build/usbd_ctlreq.o
                0x00000000080061c2                USBD_StdEPReq
 .text.USBD_GetString
                0x00000000080063f2       0x3a build/usbd_ctlreq.o
                0x00000000080063f2                USBD_GetString
 .text.USBD_CtlSendData
                0x000000000800642c       0x1a build/usbd_ioreq.o
                0x000000000800642c                USBD_CtlSendData
 .text.USBD_CtlContinueSendData
                0x0000000008006446       0x10 build/usbd_ioreq.o
                0x0000000008006446                USBD_CtlContinueSendData
 .text.USBD_CtlPrepareRx
                0x0000000008006456       0x1e build/usbd_ioreq.o
                0x0000000008006456                USBD_CtlPrepareRx
 .text.USBD_CtlContinueRx
                0x0000000008006474       0x10 build/usbd_ioreq.o
                0x0000000008006474                USBD_CtlContinueRx
 .text.USBD_CtlSendStatus
                0x0000000008006484       0x16 build/usbd_ioreq.o
                0x0000000008006484                USBD_CtlSendStatus
 .text.USBD_CtlReceiveStatus
                0x000000000800649a       0x16 build/usbd_ioreq.o
                0x000000000800649a                USBD_CtlReceiveStatus
 .text.USBD_CDC_EP0_RxReady
                0x00000000080064b0       0x40 build/usbd_cdc.o
 .text.USBD_CDC_GetDeviceQualifierDescriptor
                0x00000000080064f0        0xc build/usbd_cdc.o
                0x00000000080064f0                USBD_CDC_GetDeviceQualifierDescriptor
 .text.USBD_CDC_GetOtherSpeedCfgDesc
                0x00000000080064fc       0x48 build/usbd_cdc.o
 .text.USBD_CDC_GetFSCfgDesc
                0x0000000008006544       0x48 build/usbd_cdc.o
 .text.USBD_CDC_GetHSCfgDesc
                0x000000000800658c       0x48 build/usbd_cdc.o
 .text.USBD_CDC_DataOut
                0x00000000080065d4       0x38 build/usbd_cdc.o
 .text.USBD_CDC_DataIn
                0x000000000800660c       0x7c build/usbd_cdc.o
 .text.USBD_CDC_Setup
                0x0000000008006688      0x11a build/usbd_cdc.o
 .text.USBD_CDC_DeInit
                0x00000000080067a2       0x64 build/usbd_cdc.o
 .text.USBD_CDC_Init
                0x0000000008006806       0xee build/usbd_cdc.o
 .text.USBD_CDC_RegisterInterface
                0x00000000080068f4       0x16 build/usbd_cdc.o
                0x00000000080068f4                USBD_CDC_RegisterInterface
 .text.USBD_CDC_SetTxBuffer
                0x000000000800690a       0x1c build/usbd_cdc.o
                0x000000000800690a                USBD_CDC_SetTxBuffer
 .text.USBD_CDC_SetRxBuffer
                0x0000000008006926       0x18 build/usbd_cdc.o
                0x0000000008006926                USBD_CDC_SetRxBuffer
 .text.USBD_CDC_TransmitPacket
                0x000000000800693e       0x36 build/usbd_cdc.o
                0x000000000800693e                USBD_CDC_TransmitPacket
 .text.USBD_CDC_ReceivePacket
                0x0000000008006974       0x38 build/usbd_cdc.o
                0x0000000008006974                USBD_CDC_ReceivePacket
 .text.Reset_Handler
                0x00000000080069ac       0x50 build/startup_stm32l562xx.o
                0x00000000080069ac                Reset_Handler
 .text.Default_Handler
                0x00000000080069fc        0x2 build/startup_stm32l562xx.o
                0x00000000080069fc                EXTI2_IRQHandler
                0x00000000080069fc                TIM8_TRG_COM_IRQHandler
                0x00000000080069fc                TIM8_CC_IRQHandler
                0x00000000080069fc                EXTI5_IRQHandler
                0x00000000080069fc                FLASH_S_IRQHandler
                0x00000000080069fc                EXTI13_IRQHandler
                0x00000000080069fc                TIM1_CC_IRQHandler
                0x00000000080069fc                TSC_IRQHandler
                0x00000000080069fc                TAMP_IRQHandler
                0x00000000080069fc                TIM6_IRQHandler
                0x00000000080069fc                EXTI12_IRQHandler
                0x00000000080069fc                DMA2_Channel8_IRQHandler
                0x00000000080069fc                EXTI3_IRQHandler
                0x00000000080069fc                EXTI8_IRQHandler
                0x00000000080069fc                LPTIM2_IRQHandler
                0x00000000080069fc                DFSDM1_FLT1_IRQHandler
                0x00000000080069fc                I2C3_ER_IRQHandler
                0x00000000080069fc                DFSDM1_FLT2_IRQHandler
                0x00000000080069fc                DMAMUX1_IRQHandler
                0x00000000080069fc                LPTIM3_IRQHandler
                0x00000000080069fc                EXTI0_IRQHandler
                0x00000000080069fc                I2C2_EV_IRQHandler
                0x00000000080069fc                FPU_IRQHandler
                0x00000000080069fc                FDCAN1_IT1_IRQHandler
                0x00000000080069fc                ADC1_2_IRQHandler
                0x00000000080069fc                SPI1_IRQHandler
                0x00000000080069fc                OCTOSPI1_IRQHandler
                0x00000000080069fc                TIM8_UP_IRQHandler
                0x00000000080069fc                RCC_S_IRQHandler
                0x00000000080069fc                DMA2_Channel2_IRQHandler
                0x00000000080069fc                DMA1_Channel4_IRQHandler
                0x00000000080069fc                SAI2_IRQHandler
                0x00000000080069fc                DFSDM1_FLT3_IRQHandler
                0x00000000080069fc                PKA_IRQHandler
                0x00000000080069fc                EXTI15_IRQHandler
                0x00000000080069fc                TIM17_IRQHandler
                0x00000000080069fc                USART3_IRQHandler
                0x00000000080069fc                RTC_IRQHandler
                0x00000000080069fc                EXTI9_IRQHandler
                0x00000000080069fc                DMA1_Channel7_IRQHandler
                0x00000000080069fc                UART5_IRQHandler
                0x00000000080069fc                TIM4_IRQHandler
                0x00000000080069fc                DMA2_Channel1_IRQHandler
                0x00000000080069fc                I2C1_EV_IRQHandler
                0x00000000080069fc                DMA1_Channel6_IRQHandler
                0x00000000080069fc                TIM16_IRQHandler
                0x00000000080069fc                UART4_IRQHandler
                0x00000000080069fc                DMA2_Channel4_IRQHandler
                0x00000000080069fc                SecureFault_Handler
                0x00000000080069fc                TIM3_IRQHandler
                0x00000000080069fc                RCC_IRQHandler
                0x00000000080069fc                TIM1_TRG_COM_IRQHandler
                0x00000000080069fc                DMA1_Channel1_IRQHandler
                0x00000000080069fc                Default_Handler
                0x00000000080069fc                DMA2_Channel7_IRQHandler
                0x00000000080069fc                OTFDEC1_IRQHandler
                0x00000000080069fc                DMA1_Channel8_IRQHandler
                0x00000000080069fc                TIM7_IRQHandler
                0x00000000080069fc                SDMMC1_IRQHandler
                0x00000000080069fc                TIM5_IRQHandler
                0x00000000080069fc                UCPD1_IRQHandler
                0x00000000080069fc                TIM15_IRQHandler
                0x00000000080069fc                I2C3_EV_IRQHandler
                0x00000000080069fc                PVD_PVM_IRQHandler
                0x00000000080069fc                SPI2_IRQHandler
                0x00000000080069fc                EXTI14_IRQHandler
                0x00000000080069fc                EXTI11_IRQHandler
                0x00000000080069fc                DMA2_Channel5_IRQHandler
                0x00000000080069fc                CRS_IRQHandler
                0x00000000080069fc                DMA1_Channel5_IRQHandler
                0x00000000080069fc                EXTI4_IRQHandler
                0x00000000080069fc                RTC_S_IRQHandler
                0x00000000080069fc                RNG_IRQHandler
                0x00000000080069fc                DMAMUX1_S_IRQHandler
                0x00000000080069fc                DMA1_Channel3_IRQHandler
                0x00000000080069fc                COMP_IRQHandler
                0x00000000080069fc                TIM1_UP_IRQHandler
                0x00000000080069fc                WWDG_IRQHandler
                0x00000000080069fc                I2C4_EV_IRQHandler
                0x00000000080069fc                LPUART1_IRQHandler
                0x00000000080069fc                DMA2_Channel6_IRQHandler
                0x00000000080069fc                FDCAN1_IT0_IRQHandler
                0x00000000080069fc                TIM2_IRQHandler
                0x00000000080069fc                TAMP_S_IRQHandler
                0x00000000080069fc                EXTI7_IRQHandler
                0x00000000080069fc                TIM1_BRK_IRQHandler
                0x00000000080069fc                DAC_IRQHandler
                0x00000000080069fc                EXTI1_IRQHandler
                0x00000000080069fc                AES_IRQHandler
                0x00000000080069fc                GTZC_IRQHandler
                0x00000000080069fc                USART2_IRQHandler
                0x00000000080069fc                DFSDM1_FLT0_IRQHandler
                0x00000000080069fc                I2C2_ER_IRQHandler
                0x00000000080069fc                DMA1_Channel2_IRQHandler
                0x00000000080069fc                TIM8_BRK_IRQHandler
                0x00000000080069fc                FLASH_IRQHandler
                0x00000000080069fc                USART1_IRQHandler
                0x00000000080069fc                EXTI10_IRQHandler
                0x00000000080069fc                SPI3_IRQHandler
                0x00000000080069fc                I2C1_ER_IRQHandler
                0x00000000080069fc                FMC_IRQHandler
                0x00000000080069fc                EXTI6_IRQHandler
                0x00000000080069fc                LPTIM1_IRQHandler
                0x00000000080069fc                I2C4_ER_IRQHandler
                0x00000000080069fc                ICACHE_IRQHandler
                0x00000000080069fc                SAI1_IRQHandler
                0x00000000080069fc                HASH_IRQHandler
                0x00000000080069fc                DMA2_Channel3_IRQHandler
 *fill*         0x00000000080069fe        0x2 
 .text.__libc_init_array
                0x0000000008006a00       0x48 /home/yul/toolchain/arm-gnu-toolchain-12.2.rel1-x86_64-arm-none-eabi/bin/../lib/gcc/arm-none-eabi/12.2.1/../../../../arm-none-eabi/lib/thumb/v8-m.main+fp/hard/libc_nano.a(libc_a-init.o)
                0x0000000008006a00                __libc_init_array
 .text.printf   0x0000000008006a48       0x24 /home/yul/toolchain/arm-gnu-toolchain-12.2.rel1-x86_64-arm-none-eabi/bin/../lib/gcc/arm-none-eabi/12.2.1/../../../../arm-none-eabi/lib/thumb/v8-m.main+fp/hard/libc_nano.a(libc_a-printf.o)
                0x0000000008006a48                printf
                0x0000000008006a48                iprintf
 .text.__sfputc_r
                0x0000000008006a6c       0x2e /home/yul/toolchain/arm-gnu-toolchain-12.2.rel1-x86_64-arm-none-eabi/bin/../lib/gcc/arm-none-eabi/12.2.1/../../../../arm-none-eabi/lib/thumb/v8-m.main+fp/hard/libc_nano.a(libc_a-nano-vfprintf.o)
 .text.__sfputs_r
                0x0000000008006a9a       0x24 /home/yul/toolchain/arm-gnu-toolchain-12.2.rel1-x86_64-arm-none-eabi/bin/../lib/gcc/arm-none-eabi/12.2.1/../../../../arm-none-eabi/lib/thumb/v8-m.main+fp/hard/libc_nano.a(libc_a-nano-vfprintf.o)
                0x0000000008006a9a                __sfputs_r
 *fill*         0x0000000008006abe        0x2 
 .text._vfprintf_r
                0x0000000008006ac0      0x230 /home/yul/toolchain/arm-gnu-toolchain-12.2.rel1-x86_64-arm-none-eabi/bin/../lib/gcc/arm-none-eabi/12.2.1/../../../../arm-none-eabi/lib/thumb/v8-m.main+fp/hard/libc_nano.a(libc_a-nano-vfprintf.o)
                0x0000000008006ac0                _vfiprintf_r
                0x0000000008006ac0                _vfprintf_r
 .text.__swbuf_r
                0x0000000008006cf0       0x7c /home/yul/toolchain/arm-gnu-toolchain-12.2.rel1-x86_64-arm-none-eabi/bin/../lib/gcc/arm-none-eabi/12.2.1/../../../../arm-none-eabi/lib/thumb/v8-m.main+fp/hard/libc_nano.a(libc_a-wbuf.o)
                0x0000000008006cf0                __swbuf_r
 .text.__swsetup_r
                0x0000000008006d6c       0xac /home/yul/toolchain/arm-gnu-toolchain-12.2.rel1-x86_64-arm-none-eabi/bin/../lib/gcc/arm-none-eabi/12.2.1/../../../../arm-none-eabi/lib/thumb/v8-m.main+fp/hard/libc_nano.a(libc_a-wsetup.o)
                0x0000000008006d6c                __swsetup_r
 .text.putchar  0x0000000008006e18       0x10 /home/yul/toolchain/arm-gnu-toolchain-12.2.rel1-x86_64-arm-none-eabi/bin/../lib/gcc/arm-none-eabi/12.2.1/../../../../arm-none-eabi/lib/thumb/v8-m.main+fp/hard/libc_nano.a(libc_a-putchar.o)
                0x0000000008006e18                putchar
 .text._printf_common
                0x0000000008006e28       0xe4 /home/yul/toolchain/arm-gnu-toolchain-12.2.rel1-x86_64-arm-none-eabi/bin/../lib/gcc/arm-none-eabi/12.2.1/../../../../arm-none-eabi/lib/thumb/v8-m.main+fp/hard/libc_nano.a(libc_a-nano-vfprintf_i.o)
                0x0000000008006e28                _printf_common
 .text._printf_i
                0x0000000008006f0c      0x258 /home/yul/toolchain/arm-gnu-toolchain-12.2.rel1-x86_64-arm-none-eabi/bin/../lib/gcc/arm-none-eabi/12.2.1/../../../../arm-none-eabi/lib/thumb/v8-m.main+fp/hard/libc_nano.a(libc_a-nano-vfprintf_i.o)
                0x0000000008006f0c                _printf_i
 .text._puts_r  0x0000000008007164       0xaa /home/yul/toolchain/arm-gnu-toolchain-12.2.rel1-x86_64-arm-none-eabi/bin/../lib/gcc/arm-none-eabi/12.2.1/../../../../arm-none-eabi/lib/thumb/v8-m.main+fp/hard/libc_nano.a(libc_a-puts.o)
                0x0000000008007164                _puts_r
 *fill*         0x000000000800720e        0x2 
 .text.puts     0x0000000008007210       0x10 /home/yul/toolchain/arm-gnu-toolchain-12.2.rel1-x86_64-arm-none-eabi/bin/../lib/gcc/arm-none-eabi/12.2.1/../../../../arm-none-eabi/lib/thumb/v8-m.main+fp/hard/libc_nano.a(libc_a-puts.o)
                0x0000000008007210                puts
 .text.__sflush_r
                0x0000000008007220      0x106 /home/yul/toolchain/arm-gnu-toolchain-12.2.rel1-x86_64-arm-none-eabi/bin/../lib/gcc/arm-none-eabi/12.2.1/../../../../arm-none-eabi/lib/thumb/v8-m.main+fp/hard/libc_nano.a(libc_a-fflush.o)
                0x0000000008007220                __sflush_r
 .text._fflush_r
                0x0000000008007326       0x50 /home/yul/toolchain/arm-gnu-toolchain-12.2.rel1-x86_64-arm-none-eabi/bin/../lib/gcc/arm-none-eabi/12.2.1/../../../../arm-none-eabi/lib/thumb/v8-m.main+fp/hard/libc_nano.a(libc_a-fflush.o)
                0x0000000008007326                _fflush_r
 *fill*         0x0000000008007376        0x2 
 .text.fflush   0x0000000008007378       0x28 /home/yul/toolchain/arm-gnu-toolchain-12.2.rel1-x86_64-arm-none-eabi/bin/../lib/gcc/arm-none-eabi/12.2.1/../../../../arm-none-eabi/lib/thumb/v8-m.main+fp/hard/libc_nano.a(libc_a-fflush.o)
                0x0000000008007378                fflush
 .text.memchr   0x00000000080073a0       0x1c /home/yul/toolchain/arm-gnu-toolchain-12.2.rel1-x86_64-arm-none-eabi/bin/../lib/gcc/arm-none-eabi/12.2.1/../../../../arm-none-eabi/lib/thumb/v8-m.main+fp/hard/libc_nano.a(libc_a-memchr-stub.o)
                0x00000000080073a0                memchr
 .text.memcpy   0x00000000080073bc       0x1a /home/yul/toolchain/arm-gnu-toolchain-12.2.rel1-x86_64-arm-none-eabi/bin/../lib/gcc/arm-none-eabi/12.2.1/../../../../arm-none-eabi/lib/thumb/v8-m.main+fp/hard/libc_nano.a(libc_a-memcpy-stub.o)
                0x00000000080073bc                memcpy
 *fill*         0x00000000080073d6        0x2 
 .text.std      0x00000000080073d8       0x6c /home/yul/toolchain/arm-gnu-toolchain-12.2.rel1-x86_64-arm-none-eabi/bin/../lib/gcc/arm-none-eabi/12.2.1/../../../../arm-none-eabi/lib/thumb/v8-m.main+fp/hard/libc_nano.a(libc_a-findfp.o)
 .text.stdio_exit_handler
                0x0000000008007444       0x18 /home/yul/toolchain/arm-gnu-toolchain-12.2.rel1-x86_64-arm-none-eabi/bin/../lib/gcc/arm-none-eabi/12.2.1/../../../../arm-none-eabi/lib/thumb/v8-m.main+fp/hard/libc_nano.a(libc_a-findfp.o)
 .text.cleanup_stdio
                0x000000000800745c       0x40 /home/yul/toolchain/arm-gnu-toolchain-12.2.rel1-x86_64-arm-none-eabi/bin/../lib/gcc/arm-none-eabi/12.2.1/../../../../arm-none-eabi/lib/thumb/v8-m.main+fp/hard/libc_nano.a(libc_a-findfp.o)
 .text.global_stdio_init.part.0
                0x000000000800749c       0x3c /home/yul/toolchain/arm-gnu-toolchain-12.2.rel1-x86_64-arm-none-eabi/bin/../lib/gcc/arm-none-eabi/12.2.1/../../../../arm-none-eabi/lib/thumb/v8-m.main+fp/hard/libc_nano.a(libc_a-findfp.o)
 .text.__sfp_lock_acquire
                0x00000000080074d8        0xc /home/yul/toolchain/arm-gnu-toolchain-12.2.rel1-x86_64-arm-none-eabi/bin/../lib/gcc/arm-none-eabi/12.2.1/../../../../arm-none-eabi/lib/thumb/v8-m.main+fp/hard/libc_nano.a(libc_a-findfp.o)
                0x00000000080074d8                __sfp_lock_acquire
 .text.__sfp_lock_release
                0x00000000080074e4        0xc /home/yul/toolchain/arm-gnu-toolchain-12.2.rel1-x86_64-arm-none-eabi/bin/../lib/gcc/arm-none-eabi/12.2.1/../../../../arm-none-eabi/lib/thumb/v8-m.main+fp/hard/libc_nano.a(libc_a-findfp.o)
                0x00000000080074e4                __sfp_lock_release
 .text.__sinit  0x00000000080074f0       0x30 /home/yul/toolchain/arm-gnu-toolchain-12.2.rel1-x86_64-arm-none-eabi/bin/../lib/gcc/arm-none-eabi/12.2.1/../../../../arm-none-eabi/lib/thumb/v8-m.main+fp/hard/libc_nano.a(libc_a-findfp.o)
                0x00000000080074f0                __sinit
 .text.__sread  0x0000000008007520       0x22 /home/yul/toolchain/arm-gnu-toolchain-12.2.rel1-x86_64-arm-none-eabi/bin/../lib/gcc/arm-none-eabi/12.2.1/../../../../arm-none-eabi/lib/thumb/v8-m.main+fp/hard/libc_nano.a(libc_a-stdio.o)
                0x0000000008007520                __sread
 .text.__swrite
                0x0000000008007542       0x38 /home/yul/toolchain/arm-gnu-toolchain-12.2.rel1-x86_64-arm-none-eabi/bin/../lib/gcc/arm-none-eabi/12.2.1/../../../../arm-none-eabi/lib/thumb/v8-m.main+fp/hard/libc_nano.a(libc_a-stdio.o)
                0x0000000008007542                __swrite
 .text.__sseek  0x000000000800757a       0x24 /home/yul/toolchain/arm-gnu-toolchain-12.2.rel1-x86_64-arm-none-eabi/bin/../lib/gcc/arm-none-eabi/12.2.1/../../../../arm-none-eabi/lib/thumb/v8-m.main+fp/hard/libc_nano.a(libc_a-stdio.o)
                0x000000000800757a                __sseek
 .text.__sclose
                0x000000000800759e        0x8 /home/yul/toolchain/arm-gnu-toolchain-12.2.rel1-x86_64-arm-none-eabi/bin/../lib/gcc/arm-none-eabi/12.2.1/../../../../arm-none-eabi/lib/thumb/v8-m.main+fp/hard/libc_nano.a(libc_a-stdio.o)
                0x000000000800759e                __sclose
 .text.atoi     0x00000000080075a6        0x8 /home/yul/toolchain/arm-gnu-toolchain-12.2.rel1-x86_64-arm-none-eabi/bin/../lib/gcc/arm-none-eabi/12.2.1/../../../../arm-none-eabi/lib/thumb/v8-m.main+fp/hard/libc_nano.a(libc_a-atoi.o)
                0x00000000080075a6                atoi
 *fill*         0x00000000080075ae        0x2 
 .text._write_r
                0x00000000080075b0       0x24 /home/yul/toolchain/arm-gnu-toolchain-12.2.rel1-x86_64-arm-none-eabi/bin/../lib/gcc/arm-none-eabi/12.2.1/../../../../arm-none-eabi/lib/thumb/v8-m.main+fp/hard/libc_nano.a(libc_a-writer.o)
                0x00000000080075b0                _write_r
 .text._fwalk_sglue
                0x00000000080075d4       0x3c /home/yul/toolchain/arm-gnu-toolchain-12.2.rel1-x86_64-arm-none-eabi/bin/../lib/gcc/arm-none-eabi/12.2.1/../../../../arm-none-eabi/lib/thumb/v8-m.main+fp/hard/libc_nano.a(libc_a-fwalk.o)
                0x00000000080075d4                _fwalk_sglue
 .text.memset   0x0000000008007610       0x10 /home/yul/toolchain/arm-gnu-toolchain-12.2.rel1-x86_64-arm-none-eabi/bin/../lib/gcc/arm-none-eabi/12.2.1/../../../../arm-none-eabi/lib/thumb/v8-m.main+fp/hard/libc_nano.a(libc_a-memset.o)
                0x0000000008007610                memset
 .text._free_r  0x0000000008007620       0x94 /home/yul/toolchain/arm-gnu-toolchain-12.2.rel1-x86_64-arm-none-eabi/bin/../lib/gcc/arm-none-eabi/12.2.1/../../../../arm-none-eabi/lib/thumb/v8-m.main+fp/hard/libc_nano.a(libc_a-freer.o)
                0x0000000008007620                _free_r
 .text._strtol_l.constprop.0
                0x00000000080076b4       0xfc /home/yul/toolchain/arm-gnu-toolchain-12.2.rel1-x86_64-arm-none-eabi/bin/../lib/gcc/arm-none-eabi/12.2.1/../../../../arm-none-eabi/lib/thumb/v8-m.main+fp/hard/libc_nano.a(libc_a-strtol.o)
 .text.strtol   0x00000000080077b0       0x14 /home/yul/toolchain/arm-gnu-toolchain-12.2.rel1-x86_64-arm-none-eabi/bin/../lib/gcc/arm-none-eabi/12.2.1/../../../../arm-none-eabi/lib/thumb/v8-m.main+fp/hard/libc_nano.a(libc_a-strtol.o)
                0x00000000080077b0                strtol
 .text.__retarget_lock_init_recursive
                0x00000000080077c4        0x2 /home/yul/toolchain/arm-gnu-toolchain-12.2.rel1-x86_64-arm-none-eabi/bin/../lib/gcc/arm-none-eabi/12.2.1/../../../../arm-none-eabi/lib/thumb/v8-m.main+fp/hard/libc_nano.a(libc_a-lock.o)
                0x00000000080077c4                __retarget_lock_init_recursive
 .text.__retarget_lock_acquire_recursive
                0x00000000080077c6        0x2 /home/yul/toolchain/arm-gnu-toolchain-12.2.rel1-x86_64-arm-none-eabi/bin/../lib/gcc/arm-none-eabi/12.2.1/../../../../arm-none-eabi/lib/thumb/v8-m.main+fp/hard/libc_nano.a(libc_a-lock.o)
                0x00000000080077c6                __retarget_lock_acquire_recursive
 .text.__retarget_lock_release_recursive
                0x00000000080077c8        0x2 /home/yul/toolchain/arm-gnu-toolchain-12.2.rel1-x86_64-arm-none-eabi/bin/../lib/gcc/arm-none-eabi/12.2.1/../../../../arm-none-eabi/lib/thumb/v8-m.main+fp/hard/libc_nano.a(libc_a-lock.o)
                0x00000000080077c8                __retarget_lock_release_recursive
 .text.__swhatbuf_r
                0x00000000080077ca       0x4a /home/yul/toolchain/arm-gnu-toolchain-12.2.rel1-x86_64-arm-none-eabi/bin/../lib/gcc/arm-none-eabi/12.2.1/../../../../arm-none-eabi/lib/thumb/v8-m.main+fp/hard/libc_nano.a(libc_a-makebuf.o)
                0x00000000080077ca                __swhatbuf_r
 .text.__smakebuf_r
                0x0000000008007814       0x78 /home/yul/toolchain/arm-gnu-toolchain-12.2.rel1-x86_64-arm-none-eabi/bin/../lib/gcc/arm-none-eabi/12.2.1/../../../../arm-none-eabi/lib/thumb/v8-m.main+fp/hard/libc_nano.a(libc_a-makebuf.o)
                0x0000000008007814                __smakebuf_r
 .text._putc_r  0x000000000800788c       0x68 /home/yul/toolchain/arm-gnu-toolchain-12.2.rel1-x86_64-arm-none-eabi/bin/../lib/gcc/arm-none-eabi/12.2.1/../../../../arm-none-eabi/lib/thumb/v8-m.main+fp/hard/libc_nano.a(libc_a-putc.o)
                0x000000000800788c                _putc_r
 .text._close_r
                0x00000000080078f4       0x20 /home/yul/toolchain/arm-gnu-toolchain-12.2.rel1-x86_64-arm-none-eabi/bin/../lib/gcc/arm-none-eabi/12.2.1/../../../../arm-none-eabi/lib/thumb/v8-m.main+fp/hard/libc_nano.a(libc_a-closer.o)
                0x00000000080078f4                _close_r
 .text.sbrk_aligned
                0x0000000008007914       0x44 /home/yul/toolchain/arm-gnu-toolchain-12.2.rel1-x86_64-arm-none-eabi/bin/../lib/gcc/arm-none-eabi/12.2.1/../../../../arm-none-eabi/lib/thumb/v8-m.main+fp/hard/libc_nano.a(libc_a-mallocr.o)
 .text._malloc_r
                0x0000000008007958       0xf0 /home/yul/toolchain/arm-gnu-toolchain-12.2.rel1-x86_64-arm-none-eabi/bin/../lib/gcc/arm-none-eabi/12.2.1/../../../../arm-none-eabi/lib/thumb/v8-m.main+fp/hard/libc_nano.a(libc_a-mallocr.o)
                0x0000000008007958                _malloc_r
 .text._fstat_r
                0x0000000008007a48       0x24 /home/yul/toolchain/arm-gnu-toolchain-12.2.rel1-x86_64-arm-none-eabi/bin/../lib/gcc/arm-none-eabi/12.2.1/../../../../arm-none-eabi/lib/thumb/v8-m.main+fp/hard/libc_nano.a(libc_a-fstatr.o)
                0x0000000008007a48                _fstat_r
 .text._isatty_r
                0x0000000008007a6c       0x20 /home/yul/toolchain/arm-gnu-toolchain-12.2.rel1-x86_64-arm-none-eabi/bin/../lib/gcc/arm-none-eabi/12.2.1/../../../../arm-none-eabi/lib/thumb/v8-m.main+fp/hard/libc_nano.a(libc_a-isattyr.o)
                0x0000000008007a6c                _isatty_r
 .text._lseek_r
                0x0000000008007a8c       0x24 /home/yul/toolchain/arm-gnu-toolchain-12.2.rel1-x86_64-arm-none-eabi/bin/../lib/gcc/arm-none-eabi/12.2.1/../../../../arm-none-eabi/lib/thumb/v8-m.main+fp/hard/libc_nano.a(libc_a-lseekr.o)
                0x0000000008007a8c                _lseek_r
 .text._read_r  0x0000000008007ab0       0x24 /home/yul/toolchain/arm-gnu-toolchain-12.2.rel1-x86_64-arm-none-eabi/bin/../lib/gcc/arm-none-eabi/12.2.1/../../../../arm-none-eabi/lib/thumb/v8-m.main+fp/hard/libc_nano.a(libc_a-readr.o)
                0x0000000008007ab0                _read_r
 .text.__malloc_lock
                0x0000000008007ad4        0xc /home/yul/toolchain/arm-gnu-toolchain-12.2.rel1-x86_64-arm-none-eabi/bin/../lib/gcc/arm-none-eabi/12.2.1/../../../../arm-none-eabi/lib/thumb/v8-m.main+fp/hard/libc_nano.a(libc_a-mlock.o)
                0x0000000008007ad4                __malloc_lock
 .text.__malloc_unlock
                0x0000000008007ae0        0xc /home/yul/toolchain/arm-gnu-toolchain-12.2.rel1-x86_64-arm-none-eabi/bin/../lib/gcc/arm-none-eabi/12.2.1/../../../../arm-none-eabi/lib/thumb/v8-m.main+fp/hard/libc_nano.a(libc_a-mlock.o)
                0x0000000008007ae0                __malloc_unlock
 .text._sbrk_r  0x0000000008007aec       0x20 /home/yul/toolchain/arm-gnu-toolchain-12.2.rel1-x86_64-arm-none-eabi/bin/../lib/gcc/arm-none-eabi/12.2.1/../../../../arm-none-eabi/lib/thumb/v8-m.main+fp/hard/libc_nano.a(libc_a-sbrkr.o)
                0x0000000008007aec                _sbrk_r
 .text.__errno  0x0000000008007b0c        0xc /home/yul/toolchain/arm-gnu-toolchain-12.2.rel1-x86_64-arm-none-eabi/bin/../lib/gcc/arm-none-eabi/12.2.1/../../../../arm-none-eabi/lib/thumb/v8-m.main+fp/hard/libc_nano.a(libc_a-errno.o)
                0x0000000008007b0c                __errno
 .text._close   0x0000000008007b18       0x10 /home/yul/toolchain/arm-gnu-toolchain-12.2.rel1-x86_64-arm-none-eabi/bin/../lib/gcc/arm-none-eabi/12.2.1/../../../../arm-none-eabi/lib/thumb/v8-m.main+fp/hard/libnosys.a(close.o)
                0x0000000008007b18                _close
 .text._fstat   0x0000000008007b28       0x10 /home/yul/toolchain/arm-gnu-toolchain-12.2.rel1-x86_64-arm-none-eabi/bin/../lib/gcc/arm-none-eabi/12.2.1/../../../../arm-none-eabi/lib/thumb/v8-m.main+fp/hard/libnosys.a(fstat.o)
                0x0000000008007b28                _fstat
 .text._isatty  0x0000000008007b38       0x10 /home/yul/toolchain/arm-gnu-toolchain-12.2.rel1-x86_64-arm-none-eabi/bin/../lib/gcc/arm-none-eabi/12.2.1/../../../../arm-none-eabi/lib/thumb/v8-m.main+fp/hard/libnosys.a(isatty.o)
                0x0000000008007b38                _isatty
 .text._lseek   0x0000000008007b48       0x10 /home/yul/toolchain/arm-gnu-toolchain-12.2.rel1-x86_64-arm-none-eabi/bin/../lib/gcc/arm-none-eabi/12.2.1/../../../../arm-none-eabi/lib/thumb/v8-m.main+fp/hard/libnosys.a(lseek.o)
                0x0000000008007b48                _lseek
 .text._read    0x0000000008007b58       0x10 /home/yul/toolchain/arm-gnu-toolchain-12.2.rel1-x86_64-arm-none-eabi/bin/../lib/gcc/arm-none-eabi/12.2.1/../../../../arm-none-eabi/lib/thumb/v8-m.main+fp/hard/libnosys.a(read.o)
                0x0000000008007b58                _read
 .text._sbrk    0x0000000008007b68       0x20 /home/yul/toolchain/arm-gnu-toolchain-12.2.rel1-x86_64-arm-none-eabi/bin/../lib/gcc/arm-none-eabi/12.2.1/../../../../arm-none-eabi/lib/thumb/v8-m.main+fp/hard/libnosys.a(sbrk.o)
                0x0000000008007b68                _sbrk
 .text.__udivmoddi4
                0x0000000008007b88      0x2ec /home/yul/toolchain/arm-gnu-toolchain-12.2.rel1-x86_64-arm-none-eabi/bin/../lib/gcc/arm-none-eabi/12.2.1/thumb/v8-m.main+fp/hard/libgcc.a(_udivmoddi4.o)
                0x0000000008007b88                __udivmoddi4
 *(.glue_7)
 .glue_7        0x0000000008007e74        0x0 linker stubs
 *(.glue_7t)
 .glue_7t       0x0000000008007e74        0x0 linker stubs
 *(.eh_frame)
 .eh_frame      0x0000000008007e74        0x0 /home/yul/toolchain/arm-gnu-toolchain-12.2.rel1-x86_64-arm-none-eabi/bin/../lib/gcc/arm-none-eabi/12.2.1/thumb/v8-m.main+fp/hard/crtbegin.o
 *(.init)
 .init          0x0000000008007e74        0x4 /home/yul/toolchain/arm-gnu-toolchain-12.2.rel1-x86_64-arm-none-eabi/bin/../lib/gcc/arm-none-eabi/12.2.1/thumb/v8-m.main+fp/hard/crti.o
                0x0000000008007e74                _init
 .init          0x0000000008007e78        0x8 /home/yul/toolchain/arm-gnu-toolchain-12.2.rel1-x86_64-arm-none-eabi/bin/../lib/gcc/arm-none-eabi/12.2.1/thumb/v8-m.main+fp/hard/crtn.o
 *(.fini)
 .fini          0x0000000008007e80        0x4 /home/yul/toolchain/arm-gnu-toolchain-12.2.rel1-x86_64-arm-none-eabi/bin/../lib/gcc/arm-none-eabi/12.2.1/thumb/v8-m.main+fp/hard/crti.o
                0x0000000008007e80                _fini
 .fini          0x0000000008007e84        0x8 /home/yul/toolchain/arm-gnu-toolchain-12.2.rel1-x86_64-arm-none-eabi/bin/../lib/gcc/arm-none-eabi/12.2.1/thumb/v8-m.main+fp/hard/crtn.o
                0x0000000008007e90                . = ALIGN (0x8)
 *fill*         0x0000000008007e8c        0x4 
                0x0000000008007e90                _etext = .

.vfp11_veneer   0x0000000008007e90        0x0
 .vfp11_veneer  0x0000000008007e90        0x0 linker stubs

.v4_bx          0x0000000008007e90        0x0
 .v4_bx         0x0000000008007e90        0x0 linker stubs

.iplt           0x0000000008007e90        0x0
 .iplt          0x0000000008007e90        0x0 /home/yul/toolchain/arm-gnu-toolchain-12.2.rel1-x86_64-arm-none-eabi/bin/../lib/gcc/arm-none-eabi/12.2.1/thumb/v8-m.main+fp/hard/crtbegin.o

.rodata         0x0000000008007e90      0x3b8
                0x0000000008007e90                . = ALIGN (0x8)
 *(.rodata)
 *(.rodata*)
 .rodata.main.str1.4
                0x0000000008007e90       0x1a build/main.o
 *fill*         0x0000000008007eaa        0x2 
 .rodata.gpio_handler.str1.4
                0x0000000008007eac        0x5 build/shell.o
 *fill*         0x0000000008007eb1        0x3 
 .rodata.i2c_handler.str1.4
                0x0000000008007eb4       0x47 build/shell.o
 *fill*         0x0000000008007efb        0x1 
 .rodata.leds_handler.str1.4
                0x0000000008007efc       0x26 build/shell.o
 *fill*         0x0000000008007f22        0x2 
 .rodata.shell_process_cmd.str1.4
                0x0000000008007f24       0x21 build/shell.o
 *fill*         0x0000000008007f45        0x3 
 .rodata.shell_start.str1.4
                0x0000000008007f48        0x9 build/shell.o
                                          0xe (size before relaxing)
 *fill*         0x0000000008007f51        0x3 
 .rodata.IS31FL3737_write_register.str1.4
                0x0000000008007f54       0x22 build/is31fl3737.o
 *fill*         0x0000000008007f76        0x2 
 .rodata.IS31FL3737_init.str1.4
                0x0000000008007f78       0x11 build/is31fl3737.o
 *fill*         0x0000000008007f89        0x3 
 .rodata.process_matrix.str1.4
                0x0000000008007f8c       0x13 build/keyboard.o
 *fill*         0x0000000008007f9f        0x1 
 .rodata.keymaps
                0x0000000008007fa0       0xa8 build/keyboard.o
                0x0000000008007fa0                keymaps
 .rodata.USBD_CDC_ProductStrDescriptor.str1.4
                0x0000000008008048       0x16 build/usbd_desc.o
 *fill*         0x000000000800805e        0x2 
 .rodata.USBD_CDC_ManufacturerStrDescriptor.str1.4
                0x0000000008008060       0x13 build/usbd_desc.o
 *fill*         0x0000000008008073        0x1 
 .rodata.USBD_CDC_ConfigStrDescriptor.str1.4
                0x0000000008008074        0xb build/usbd_desc.o
 *fill*         0x000000000800807f        0x1 
 .rodata.USBD_CDC_InterfaceStrDescriptor.str1.4
                0x0000000008008080        0xe build/usbd_desc.o
 *fill*         0x000000000800808e        0x2 
 .rodata.UARTPrescTable
                0x0000000008008090       0x18 build/stm32l5xx_hal_uart.o
                0x0000000008008090                UARTPrescTable
 .rodata.denominator.0
                0x00000000080080a8        0x8 build/stm32l5xx_hal_uart_ex.o
 .rodata.numerator.1
                0x00000000080080b0        0x8 build/stm32l5xx_hal_uart_ex.o
 .rodata.MSIRangeTable
                0x00000000080080b8       0x40 build/system_stm32l5xx.o
                0x00000000080080b8                MSIRangeTable
 .rodata.APBPrescTable
                0x00000000080080f8        0x8 build/system_stm32l5xx.o
                0x00000000080080f8                APBPrescTable
 .rodata.AHBPrescTable
                0x0000000008008100       0x10 build/system_stm32l5xx.o
                0x0000000008008100                AHBPrescTable
 .rodata._vfprintf_r.str1.1
                0x0000000008008110       0x11 /home/yul/toolchain/arm-gnu-toolchain-12.2.rel1-x86_64-arm-none-eabi/bin/../lib/gcc/arm-none-eabi/12.2.1/../../../../arm-none-eabi/lib/thumb/v8-m.main+fp/hard/libc_nano.a(libc_a-nano-vfprintf.o)
 .rodata._printf_i.str1.1
                0x0000000008008121       0x22 /home/yul/toolchain/arm-gnu-toolchain-12.2.rel1-x86_64-arm-none-eabi/bin/../lib/gcc/arm-none-eabi/12.2.1/../../../../arm-none-eabi/lib/thumb/v8-m.main+fp/hard/libc_nano.a(libc_a-nano-vfprintf_i.o)
 .rodata._ctype_
                0x0000000008008143      0x101 /home/yul/toolchain/arm-gnu-toolchain-12.2.rel1-x86_64-arm-none-eabi/bin/../lib/gcc/arm-none-eabi/12.2.1/../../../../arm-none-eabi/lib/thumb/v8-m.main+fp/hard/libc_nano.a(libc_a-ctype_.o)
                0x0000000008008143                _ctype_
                0x0000000008008248                . = ALIGN (0x8)
 *fill*         0x0000000008008244        0x4 

.ARM.extab      0x0000000008008248        0x0
                0x0000000008008248                . = ALIGN (0x8)
 *(.ARM.extab* .gnu.linkonce.armextab.*)
                0x0000000008008248                . = ALIGN (0x8)

.ARM            0x0000000008008248        0x8
                0x0000000008008248                . = ALIGN (0x8)
                0x0000000008008248                __exidx_start = .
 *(.ARM.exidx*)
 .ARM.exidx.text.__udivmoddi4
                0x0000000008008248        0x8 /home/yul/toolchain/arm-gnu-toolchain-12.2.rel1-x86_64-arm-none-eabi/bin/../lib/gcc/arm-none-eabi/12.2.1/thumb/v8-m.main+fp/hard/libgcc.a(_udivmoddi4.o)
                0x0000000008008250                __exidx_end = .
                0x0000000008008250                . = ALIGN (0x8)

.rel.dyn        0x0000000008008250        0x0
 .rel.iplt      0x0000000008008250        0x0 /home/yul/toolchain/arm-gnu-toolchain-12.2.rel1-x86_64-arm-none-eabi/bin/../lib/gcc/arm-none-eabi/12.2.1/thumb/v8-m.main+fp/hard/crtbegin.o

.preinit_array  0x0000000008008250        0x0
                0x0000000008008250                . = ALIGN (0x8)
                0x0000000008008250                PROVIDE (__preinit_array_start = .)
 *(.preinit_array*)
                0x0000000008008250                PROVIDE (__preinit_array_end = .)
                0x0000000008008250                . = ALIGN (0x8)

.init_array     0x0000000008008250        0x8
                0x0000000008008250                . = ALIGN (0x8)
                0x0000000008008250                PROVIDE (__init_array_start = .)
 *(SORT_BY_NAME(.init_array.*))
 *(.init_array*)
 .init_array    0x0000000008008250        0x4 /home/yul/toolchain/arm-gnu-toolchain-12.2.rel1-x86_64-arm-none-eabi/bin/../lib/gcc/arm-none-eabi/12.2.1/thumb/v8-m.main+fp/hard/crtbegin.o
                0x0000000008008254                PROVIDE (__init_array_end = .)
                0x0000000008008258                . = ALIGN (0x8)
 *fill*         0x0000000008008254        0x4 

.fini_array     0x0000000008008258        0x8
                0x0000000008008258                . = ALIGN (0x8)
                [!provide]                        PROVIDE (__fini_array_start = .)
 *(SORT_BY_NAME(.fini_array.*))
 *(.fini_array*)
 .fini_array    0x0000000008008258        0x4 /home/yul/toolchain/arm-gnu-toolchain-12.2.rel1-x86_64-arm-none-eabi/bin/../lib/gcc/arm-none-eabi/12.2.1/thumb/v8-m.main+fp/hard/crtbegin.o
                [!provide]                        PROVIDE (__fini_array_end = .)
                0x0000000008008260                . = ALIGN (0x8)
 *fill*         0x000000000800825c        0x4 
                0x0000000008008260                _sidata = LOADADDR (.data)

.data           0x0000000020000000      0x180 load address 0x0000000008008260
                0x0000000020000000                . = ALIGN (0x8)
                0x0000000020000000                _sdata = .
 *(.data)
 *(.data*)
 .data.rows     0x0000000020000000        0xc build/keyboard.o
                0x0000000020000000                rows
 .data.cols     0x000000002000000c       0x1c build/keyboard.o
                0x000000002000000c                cols
 .data.USBD_StringSerial
                0x0000000020000028       0x1a build/usbd_desc.o
                0x0000000020000028                USBD_StringSerial
 *fill*         0x0000000020000042        0x2 
 .data.USBD_LangIDDesc
                0x0000000020000044        0x4 build/usbd_desc.o
                0x0000000020000044                USBD_LangIDDesc
 .data.USBD_CDC_DeviceDesc
                0x0000000020000048       0x12 build/usbd_desc.o
                0x0000000020000048                USBD_CDC_DeviceDesc
 *fill*         0x000000002000005a        0x2 
 .data.CDC_Desc
                0x000000002000005c       0x20 build/usbd_desc.o
                0x000000002000005c                CDC_Desc
 .data.USBD_Interface_fops_FS
                0x000000002000007c       0x14 build/usbd_cdc_if.o
                0x000000002000007c                USBD_Interface_fops_FS
 .data.uwTickFreq
                0x0000000020000090        0x1 build/stm32l5xx_hal.o
                0x0000000020000090                uwTickFreq
 *fill*         0x0000000020000091        0x3 
 .data.uwTickPrio
                0x0000000020000094        0x4 build/stm32l5xx_hal.o
                0x0000000020000094                uwTickPrio
 .data.SystemCoreClock
                0x0000000020000098        0x4 build/system_stm32l5xx.o
                0x0000000020000098                SystemCoreClock
 .data.USBD_CDC_CfgDesc
                0x000000002000009c       0x43 build/usbd_cdc.o
 *fill*         0x00000000200000df        0x1 
 .data.USBD_CDC
                0x00000000200000e0       0x38 build/usbd_cdc.o
                0x00000000200000e0                USBD_CDC
 .data.USBD_CDC_DeviceQualifierDesc
                0x0000000020000118        0xa build/usbd_cdc.o
 *fill*         0x0000000020000122        0x2 
 .data._impure_ptr
                0x0000000020000124        0x4 /home/yul/toolchain/arm-gnu-toolchain-12.2.rel1-x86_64-arm-none-eabi/bin/../lib/gcc/arm-none-eabi/12.2.1/../../../../arm-none-eabi/lib/thumb/v8-m.main+fp/hard/libc_nano.a(libc_a-impure.o)
                0x0000000020000124                _impure_ptr
 .data._impure_data
                0x0000000020000128       0x4c /home/yul/toolchain/arm-gnu-toolchain-12.2.rel1-x86_64-arm-none-eabi/bin/../lib/gcc/arm-none-eabi/12.2.1/../../../../arm-none-eabi/lib/thumb/v8-m.main+fp/hard/libc_nano.a(libc_a-impure.o)
                0x0000000020000128                _impure_data
 .data.__sglue  0x0000000020000174        0xc /home/yul/toolchain/arm-gnu-toolchain-12.2.rel1-x86_64-arm-none-eabi/bin/../lib/gcc/arm-none-eabi/12.2.1/../../../../arm-none-eabi/lib/thumb/v8-m.main+fp/hard/libc_nano.a(libc_a-findfp.o)
                0x0000000020000174                __sglue
                0x0000000020000180                . = ALIGN (0x8)
                0x0000000020000180                _edata = .

.tm_clone_table
                0x0000000020000180        0x0 load address 0x00000000080083e0
 .tm_clone_table
                0x0000000020000180        0x0 /home/yul/toolchain/arm-gnu-toolchain-12.2.rel1-x86_64-arm-none-eabi/bin/../lib/gcc/arm-none-eabi/12.2.1/thumb/v8-m.main+fp/hard/crtbegin.o
 .tm_clone_table
                0x0000000020000180        0x0 /home/yul/toolchain/arm-gnu-toolchain-12.2.rel1-x86_64-arm-none-eabi/bin/../lib/gcc/arm-none-eabi/12.2.1/thumb/v8-m.main+fp/hard/crtend.o

.igot.plt       0x0000000020000180        0x0 load address 0x00000000080083e0
 .igot.plt      0x0000000020000180        0x0 /home/yul/toolchain/arm-gnu-toolchain-12.2.rel1-x86_64-arm-none-eabi/bin/../lib/gcc/arm-none-eabi/12.2.1/thumb/v8-m.main+fp/hard/crtbegin.o
                0x0000000020000180                . = ALIGN (0x8)

.bss            0x0000000020000180     0x1cc8 load address 0x00000000080083e0
                0x0000000020000180                _sbss = .
                0x0000000020000180                __bss_start__ = _sbss
 *(.bss)
 *(.bss*)
 .bss.completed.1
                0x0000000020000180        0x1 /home/yul/toolchain/arm-gnu-toolchain-12.2.rel1-x86_64-arm-none-eabi/bin/../lib/gcc/arm-none-eabi/12.2.1/thumb/v8-m.main+fp/hard/crtbegin.o
 *fill*         0x0000000020000181        0x3 
 .bss.object.0  0x0000000020000184       0x18 /home/yul/toolchain/arm-gnu-toolchain-12.2.rel1-x86_64-arm-none-eabi/bin/../lib/gcc/arm-none-eabi/12.2.1/thumb/v8-m.main+fp/hard/crtbegin.o
 .bss.rc.0      0x000000002000019c        0x1 build/main.o
 *fill*         0x000000002000019d        0x3 
 .bss.huart3    0x00000000200001a0       0x94 build/main.o
                0x00000000200001a0                huart3
 .bss.hi2c2     0x0000000020000234       0x54 build/main.o
                0x0000000020000234                hi2c2
 .bss.hi2c1     0x0000000020000288       0x54 build/main.o
                0x0000000020000288                hi2c1
 .bss.g_twi_transfer_buffer
                0x00000000200002dc       0x14 build/is31fl3737.o
                0x00000000200002dc                g_twi_transfer_buffer
 .bss.current_matrix
                0x00000000200002f0        0xc build/keyboard.o
                0x00000000200002f0                current_matrix
 .bss.mem.0     0x00000000200002fc      0x220 build/usbd_conf.o
 .bss.hpcd_USB_FS
                0x000000002000051c      0x2f4 build/usbd_conf.o
                0x000000002000051c                hpcd_USB_FS
 .bss.hUsbDeviceFS
                0x0000000020000810      0x2dc build/usb_device.o
                0x0000000020000810                hUsbDeviceFS
 .bss.USBD_StrDesc
                0x0000000020000aec      0x200 build/usbd_desc.o
                0x0000000020000aec                USBD_StrDesc
 .bss.UserRxLength
                0x0000000020000cec        0x1 build/usbd_cdc_if.o
 *fill*         0x0000000020000ced        0x3 
 .bss.UserTxBufferFS
                0x0000000020000cf0      0x800 build/usbd_cdc_if.o
                0x0000000020000cf0                UserTxBufferFS
 .bss.UserRxBufferFS
                0x00000000200014f0      0x800 build/usbd_cdc_if.o
                0x00000000200014f0                UserRxBufferFS
 .bss.uwTick    0x0000000020001cf0        0x4 build/stm32l5xx_hal.o
                0x0000000020001cf0                uwTick
 .bss.cfgidx.0  0x0000000020001cf4        0x1 build/usbd_ctlreq.o
 *fill*         0x0000000020001cf5        0x3 
 .bss.__sf      0x0000000020001cf8      0x138 /home/yul/toolchain/arm-gnu-toolchain-12.2.rel1-x86_64-arm-none-eabi/bin/../lib/gcc/arm-none-eabi/12.2.1/../../../../arm-none-eabi/lib/thumb/v8-m.main+fp/hard/libc_nano.a(libc_a-findfp.o)
                0x0000000020001cf8                __sf
 .bss.__stdio_exit_handler
                0x0000000020001e30        0x4 /home/yul/toolchain/arm-gnu-toolchain-12.2.rel1-x86_64-arm-none-eabi/bin/../lib/gcc/arm-none-eabi/12.2.1/../../../../arm-none-eabi/lib/thumb/v8-m.main+fp/hard/libc_nano.a(libc_a-findfp.o)
                0x0000000020001e30                __stdio_exit_handler
 .bss.__lock___malloc_recursive_mutex
                0x0000000020001e34        0x1 /home/yul/toolchain/arm-gnu-toolchain-12.2.rel1-x86_64-arm-none-eabi/bin/../lib/gcc/arm-none-eabi/12.2.1/../../../../arm-none-eabi/lib/thumb/v8-m.main+fp/hard/libc_nano.a(libc_a-lock.o)
                0x0000000020001e34                __lock___malloc_recursive_mutex
 .bss.__lock___sfp_recursive_mutex
                0x0000000020001e35        0x1 /home/yul/toolchain/arm-gnu-toolchain-12.2.rel1-x86_64-arm-none-eabi/bin/../lib/gcc/arm-none-eabi/12.2.1/../../../../arm-none-eabi/lib/thumb/v8-m.main+fp/hard/libc_nano.a(libc_a-lock.o)
                0x0000000020001e35                __lock___sfp_recursive_mutex
 *fill*         0x0000000020001e36        0x2 
 .bss.errno     0x0000000020001e38        0x4 /home/yul/toolchain/arm-gnu-toolchain-12.2.rel1-x86_64-arm-none-eabi/bin/../lib/gcc/arm-none-eabi/12.2.1/../../../../arm-none-eabi/lib/thumb/v8-m.main+fp/hard/libc_nano.a(libc_a-reent.o)
                0x0000000020001e38                errno
 .bss.__malloc_sbrk_start
                0x0000000020001e3c        0x4 /home/yul/toolchain/arm-gnu-toolchain-12.2.rel1-x86_64-arm-none-eabi/bin/../lib/gcc/arm-none-eabi/12.2.1/../../../../arm-none-eabi/lib/thumb/v8-m.main+fp/hard/libc_nano.a(libc_a-mallocr.o)
                0x0000000020001e3c                __malloc_sbrk_start
 .bss.__malloc_free_list
                0x0000000020001e40        0x4 /home/yul/toolchain/arm-gnu-toolchain-12.2.rel1-x86_64-arm-none-eabi/bin/../lib/gcc/arm-none-eabi/12.2.1/../../../../arm-none-eabi/lib/thumb/v8-m.main+fp/hard/libc_nano.a(libc_a-mallocr.o)
                0x0000000020001e40                __malloc_free_list
 .bss.heap_end.0
                0x0000000020001e44        0x4 /home/yul/toolchain/arm-gnu-toolchain-12.2.rel1-x86_64-arm-none-eabi/bin/../lib/gcc/arm-none-eabi/12.2.1/../../../../arm-none-eabi/lib/thumb/v8-m.main+fp/hard/libnosys.a(sbrk.o)
 *(COMMON)
                0x0000000020001e48                . = ALIGN (0x8)
                0x0000000020001e48                _ebss = .
                0x0000000020001e48                __bss_end__ = _ebss

._user_heap_stack
                0x0000000020001e48     0x4200 load address 0x00000000080083e0
                0x0000000020001e48                . = ALIGN (0x8)
                0x0000000020001e48                PROVIDE (end = .)
                [!provide]                        PROVIDE (_end = .)
                0x0000000020002048                . = (. + _Min_Heap_Size)
 *fill*         0x0000000020001e48      0x200 
                0x0000000020006048                . = (. + _Min_Stack_Size)
 *fill*         0x0000000020002048     0x4000 
                0x0000000020006048                . = ALIGN (0x8)

/DISCARD/
 libc.a(*)
 libm.a(*)
 libgcc.a(*)

.ARM.attributes
                0x0000000000000000       0x36
 *(.ARM.attributes)
 .ARM.attributes
                0x0000000000000000       0x26 /home/yul/toolchain/arm-gnu-toolchain-12.2.rel1-x86_64-arm-none-eabi/bin/../lib/gcc/arm-none-eabi/12.2.1/thumb/v8-m.main+fp/hard/crti.o
 .ARM.attributes
                0x0000000000000026       0x38 /home/yul/toolchain/arm-gnu-toolchain-12.2.rel1-x86_64-arm-none-eabi/bin/../lib/gcc/arm-none-eabi/12.2.1/thumb/v8-m.main+fp/hard/crtbegin.o
 .ARM.attributes
                0x000000000000005e       0x3a build/main.o
 .ARM.attributes
                0x0000000000000098       0x3a build/shell.o
 .ARM.attributes
                0x00000000000000d2       0x3a build/is31fl3737.o
 .ARM.attributes
                0x000000000000010c       0x3a build/keyboard.o
 .ARM.attributes
                0x0000000000000146       0x3a build/stm32l5xx_it.o
 .ARM.attributes
                0x0000000000000180       0x3a build/stm32l5xx_hal_msp.o
 .ARM.attributes
                0x00000000000001ba       0x3a build/usbd_conf.o
 .ARM.attributes
                0x00000000000001f4       0x3a build/usb_device.o
 .ARM.attributes
                0x000000000000022e       0x3a build/usbd_desc.o
 .ARM.attributes
                0x0000000000000268       0x3a build/usbd_cdc_if.o
 .ARM.attributes
                0x00000000000002a2       0x3a build/stm32l5xx_hal_pcd.o
 .ARM.attributes
                0x00000000000002dc       0x3a build/stm32l5xx_hal_pcd_ex.o
 .ARM.attributes
                0x0000000000000316       0x3a build/stm32l5xx_ll_usb.o
 .ARM.attributes
                0x0000000000000350       0x3a build/stm32l5xx_hal.o
 .ARM.attributes
                0x000000000000038a       0x3a build/stm32l5xx_hal_i2c.o
 .ARM.attributes
                0x00000000000003c4       0x3a build/stm32l5xx_hal_i2c_ex.o
 .ARM.attributes
                0x00000000000003fe       0x3a build/stm32l5xx_hal_rcc.o
 .ARM.attributes
                0x0000000000000438       0x3a build/stm32l5xx_hal_rcc_ex.o
 .ARM.attributes
                0x0000000000000472       0x3a build/stm32l5xx_hal_gpio.o
 .ARM.attributes
                0x00000000000004ac       0x3a build/stm32l5xx_hal_pwr_ex.o
 .ARM.attributes
                0x00000000000004e6       0x3a build/stm32l5xx_hal_cortex.o
 .ARM.attributes
                0x0000000000000520       0x3a build/stm32l5xx_hal_icache.o
 .ARM.attributes
                0x000000000000055a       0x3a build/stm32l5xx_hal_uart.o
 .ARM.attributes
                0x0000000000000594       0x3a build/stm32l5xx_hal_uart_ex.o
 .ARM.attributes
                0x00000000000005ce       0x3a build/system_stm32l5xx.o
 .ARM.attributes
                0x0000000000000608       0x3a build/usbd_core.o
 .ARM.attributes
                0x0000000000000642       0x3a build/usbd_ctlreq.o
 .ARM.attributes
                0x000000000000067c       0x3a build/usbd_ioreq.o
 .ARM.attributes
                0x00000000000006b6       0x3a build/usbd_cdc.o
 .ARM.attributes
                0x00000000000006f0       0x24 build/startup_stm32l562xx.o
 .ARM.attributes
                0x0000000000000714       0x38 /home/yul/toolchain/arm-gnu-toolchain-12.2.rel1-x86_64-arm-none-eabi/bin/../lib/gcc/arm-none-eabi/12.2.1/../../../../arm-none-eabi/lib/thumb/v8-m.main+fp/hard/libc_nano.a(libc_a-init.o)
 .ARM.attributes
                0x000000000000074c       0x24 /home/yul/toolchain/arm-gnu-toolchain-12.2.rel1-x86_64-arm-none-eabi/bin/../lib/gcc/arm-none-eabi/12.2.1/../../../../arm-none-eabi/lib/thumb/v8-m.main+fp/hard/libc_nano.a(libc_a-strcmp.o)
 .ARM.attributes
                0x0000000000000770       0x38 /home/yul/toolchain/arm-gnu-toolchain-12.2.rel1-x86_64-arm-none-eabi/bin/../lib/gcc/arm-none-eabi/12.2.1/../../../../arm-none-eabi/lib/thumb/v8-m.main+fp/hard/libc_nano.a(libc_a-printf.o)
 .ARM.attributes
                0x00000000000007a8       0x38 /home/yul/toolchain/arm-gnu-toolchain-12.2.rel1-x86_64-arm-none-eabi/bin/../lib/gcc/arm-none-eabi/12.2.1/../../../../arm-none-eabi/lib/thumb/v8-m.main+fp/hard/libc_nano.a(libc_a-nano-vfprintf.o)
 .ARM.attributes
                0x00000000000007e0       0x38 /home/yul/toolchain/arm-gnu-toolchain-12.2.rel1-x86_64-arm-none-eabi/bin/../lib/gcc/arm-none-eabi/12.2.1/../../../../arm-none-eabi/lib/thumb/v8-m.main+fp/hard/libc_nano.a(libc_a-wbuf.o)
 .ARM.attributes
                0x0000000000000818       0x38 /home/yul/toolchain/arm-gnu-toolchain-12.2.rel1-x86_64-arm-none-eabi/bin/../lib/gcc/arm-none-eabi/12.2.1/../../../../arm-none-eabi/lib/thumb/v8-m.main+fp/hard/libc_nano.a(libc_a-wsetup.o)
 .ARM.attributes
                0x0000000000000850       0x38 /home/yul/toolchain/arm-gnu-toolchain-12.2.rel1-x86_64-arm-none-eabi/bin/../lib/gcc/arm-none-eabi/12.2.1/../../../../arm-none-eabi/lib/thumb/v8-m.main+fp/hard/libc_nano.a(libc_a-putchar.o)
 .ARM.attributes
                0x0000000000000888       0x38 /home/yul/toolchain/arm-gnu-toolchain-12.2.rel1-x86_64-arm-none-eabi/bin/../lib/gcc/arm-none-eabi/12.2.1/../../../../arm-none-eabi/lib/thumb/v8-m.main+fp/hard/libc_nano.a(libc_a-nano-vfprintf_i.o)
 .ARM.attributes
                0x00000000000008c0       0x38 /home/yul/toolchain/arm-gnu-toolchain-12.2.rel1-x86_64-arm-none-eabi/bin/../lib/gcc/arm-none-eabi/12.2.1/../../../../arm-none-eabi/lib/thumb/v8-m.main+fp/hard/libc_nano.a(libc_a-puts.o)
 .ARM.attributes
                0x00000000000008f8       0x38 /home/yul/toolchain/arm-gnu-toolchain-12.2.rel1-x86_64-arm-none-eabi/bin/../lib/gcc/arm-none-eabi/12.2.1/../../../../arm-none-eabi/lib/thumb/v8-m.main+fp/hard/libc_nano.a(libc_a-impure.o)
 .ARM.attributes
                0x0000000000000930       0x38 /home/yul/toolchain/arm-gnu-toolchain-12.2.rel1-x86_64-arm-none-eabi/bin/../lib/gcc/arm-none-eabi/12.2.1/../../../../arm-none-eabi/lib/thumb/v8-m.main+fp/hard/libc_nano.a(libc_a-fflush.o)
 .ARM.attributes
                0x0000000000000968       0x38 /home/yul/toolchain/arm-gnu-toolchain-12.2.rel1-x86_64-arm-none-eabi/bin/../lib/gcc/arm-none-eabi/12.2.1/../../../../arm-none-eabi/lib/thumb/v8-m.main+fp/hard/libc_nano.a(libc_a-memchr-stub.o)
 .ARM.attributes
                0x00000000000009a0       0x38 /home/yul/toolchain/arm-gnu-toolchain-12.2.rel1-x86_64-arm-none-eabi/bin/../lib/gcc/arm-none-eabi/12.2.1/../../../../arm-none-eabi/lib/thumb/v8-m.main+fp/hard/libc_nano.a(libc_a-memcpy-stub.o)
 .ARM.attributes
                0x00000000000009d8       0x38 /home/yul/toolchain/arm-gnu-toolchain-12.2.rel1-x86_64-arm-none-eabi/bin/../lib/gcc/arm-none-eabi/12.2.1/../../../../arm-none-eabi/lib/thumb/v8-m.main+fp/hard/libc_nano.a(libc_a-findfp.o)
 .ARM.attributes
                0x0000000000000a10       0x38 /home/yul/toolchain/arm-gnu-toolchain-12.2.rel1-x86_64-arm-none-eabi/bin/../lib/gcc/arm-none-eabi/12.2.1/../../../../arm-none-eabi/lib/thumb/v8-m.main+fp/hard/libc_nano.a(libc_a-stdio.o)
 .ARM.attributes
                0x0000000000000a48       0x38 /home/yul/toolchain/arm-gnu-toolchain-12.2.rel1-x86_64-arm-none-eabi/bin/../lib/gcc/arm-none-eabi/12.2.1/../../../../arm-none-eabi/lib/thumb/v8-m.main+fp/hard/libc_nano.a(libc_a-atoi.o)
 .ARM.attributes
                0x0000000000000a80       0x38 /home/yul/toolchain/arm-gnu-toolchain-12.2.rel1-x86_64-arm-none-eabi/bin/../lib/gcc/arm-none-eabi/12.2.1/../../../../arm-none-eabi/lib/thumb/v8-m.main+fp/hard/libc_nano.a(libc_a-writer.o)
 .ARM.attributes
                0x0000000000000ab8       0x38 /home/yul/toolchain/arm-gnu-toolchain-12.2.rel1-x86_64-arm-none-eabi/bin/../lib/gcc/arm-none-eabi/12.2.1/../../../../arm-none-eabi/lib/thumb/v8-m.main+fp/hard/libc_nano.a(libc_a-fwalk.o)
 .ARM.attributes
                0x0000000000000af0       0x38 /home/yul/toolchain/arm-gnu-toolchain-12.2.rel1-x86_64-arm-none-eabi/bin/../lib/gcc/arm-none-eabi/12.2.1/../../../../arm-none-eabi/lib/thumb/v8-m.main+fp/hard/libc_nano.a(libc_a-memset.o)
 .ARM.attributes
                0x0000000000000b28       0x38 /home/yul/toolchain/arm-gnu-toolchain-12.2.rel1-x86_64-arm-none-eabi/bin/../lib/gcc/arm-none-eabi/12.2.1/../../../../arm-none-eabi/lib/thumb/v8-m.main+fp/hard/libc_nano.a(libc_a-freer.o)
 .ARM.attributes
                0x0000000000000b60       0x38 /home/yul/toolchain/arm-gnu-toolchain-12.2.rel1-x86_64-arm-none-eabi/bin/../lib/gcc/arm-none-eabi/12.2.1/../../../../arm-none-eabi/lib/thumb/v8-m.main+fp/hard/libc_nano.a(libc_a-strtol.o)
 .ARM.attributes
                0x0000000000000b98       0x38 /home/yul/toolchain/arm-gnu-toolchain-12.2.rel1-x86_64-arm-none-eabi/bin/../lib/gcc/arm-none-eabi/12.2.1/../../../../arm-none-eabi/lib/thumb/v8-m.main+fp/hard/libc_nano.a(libc_a-lock.o)
 .ARM.attributes
                0x0000000000000bd0       0x38 /home/yul/toolchain/arm-gnu-toolchain-12.2.rel1-x86_64-arm-none-eabi/bin/../lib/gcc/arm-none-eabi/12.2.1/../../../../arm-none-eabi/lib/thumb/v8-m.main+fp/hard/libc_nano.a(libc_a-makebuf.o)
 .ARM.attributes
                0x0000000000000c08       0x38 /home/yul/toolchain/arm-gnu-toolchain-12.2.rel1-x86_64-arm-none-eabi/bin/../lib/gcc/arm-none-eabi/12.2.1/../../../../arm-none-eabi/lib/thumb/v8-m.main+fp/hard/libc_nano.a(libc_a-putc.o)
 .ARM.attributes
                0x0000000000000c40       0x38 /home/yul/toolchain/arm-gnu-toolchain-12.2.rel1-x86_64-arm-none-eabi/bin/../lib/gcc/arm-none-eabi/12.2.1/../../../../arm-none-eabi/lib/thumb/v8-m.main+fp/hard/libc_nano.a(libc_a-closer.o)
 .ARM.attributes
                0x0000000000000c78       0x38 /home/yul/toolchain/arm-gnu-toolchain-12.2.rel1-x86_64-arm-none-eabi/bin/../lib/gcc/arm-none-eabi/12.2.1/../../../../arm-none-eabi/lib/thumb/v8-m.main+fp/hard/libc_nano.a(libc_a-reent.o)
 .ARM.attributes
                0x0000000000000cb0       0x38 /home/yul/toolchain/arm-gnu-toolchain-12.2.rel1-x86_64-arm-none-eabi/bin/../lib/gcc/arm-none-eabi/12.2.1/../../../../arm-none-eabi/lib/thumb/v8-m.main+fp/hard/libc_nano.a(libc_a-mallocr.o)
 .ARM.attributes
                0x0000000000000ce8       0x38 /home/yul/toolchain/arm-gnu-toolchain-12.2.rel1-x86_64-arm-none-eabi/bin/../lib/gcc/arm-none-eabi/12.2.1/../../../../arm-none-eabi/lib/thumb/v8-m.main+fp/hard/libc_nano.a(libc_a-fstatr.o)
 .ARM.attributes
                0x0000000000000d20       0x38 /home/yul/toolchain/arm-gnu-toolchain-12.2.rel1-x86_64-arm-none-eabi/bin/../lib/gcc/arm-none-eabi/12.2.1/../../../../arm-none-eabi/lib/thumb/v8-m.main+fp/hard/libc_nano.a(libc_a-isattyr.o)
 .ARM.attributes
                0x0000000000000d58       0x38 /home/yul/toolchain/arm-gnu-toolchain-12.2.rel1-x86_64-arm-none-eabi/bin/../lib/gcc/arm-none-eabi/12.2.1/../../../../arm-none-eabi/lib/thumb/v8-m.main+fp/hard/libc_nano.a(libc_a-lseekr.o)
 .ARM.attributes
                0x0000000000000d90       0x38 /home/yul/toolchain/arm-gnu-toolchain-12.2.rel1-x86_64-arm-none-eabi/bin/../lib/gcc/arm-none-eabi/12.2.1/../../../../arm-none-eabi/lib/thumb/v8-m.main+fp/hard/libc_nano.a(libc_a-readr.o)
 .ARM.attributes
                0x0000000000000dc8       0x38 /home/yul/toolchain/arm-gnu-toolchain-12.2.rel1-x86_64-arm-none-eabi/bin/../lib/gcc/arm-none-eabi/12.2.1/../../../../arm-none-eabi/lib/thumb/v8-m.main+fp/hard/libc_nano.a(libc_a-mlock.o)
 .ARM.attributes
                0x0000000000000e00       0x38 /home/yul/toolchain/arm-gnu-toolchain-12.2.rel1-x86_64-arm-none-eabi/bin/../lib/gcc/arm-none-eabi/12.2.1/../../../../arm-none-eabi/lib/thumb/v8-m.main+fp/hard/libc_nano.a(libc_a-ctype_.o)
 .ARM.attributes
                0x0000000000000e38       0x38 /home/yul/toolchain/arm-gnu-toolchain-12.2.rel1-x86_64-arm-none-eabi/bin/../lib/gcc/arm-none-eabi/12.2.1/../../../../arm-none-eabi/lib/thumb/v8-m.main+fp/hard/libc_nano.a(libc_a-sbrkr.o)
 .ARM.attributes
                0x0000000000000e70       0x38 /home/yul/toolchain/arm-gnu-toolchain-12.2.rel1-x86_64-arm-none-eabi/bin/../lib/gcc/arm-none-eabi/12.2.1/../../../../arm-none-eabi/lib/thumb/v8-m.main+fp/hard/libc_nano.a(libc_a-errno.o)
 .ARM.attributes
                0x0000000000000ea8       0x38 /home/yul/toolchain/arm-gnu-toolchain-12.2.rel1-x86_64-arm-none-eabi/bin/../lib/gcc/arm-none-eabi/12.2.1/../../../../arm-none-eabi/lib/thumb/v8-m.main+fp/hard/libnosys.a(close.o)
 .ARM.attributes
                0x0000000000000ee0       0x38 /home/yul/toolchain/arm-gnu-toolchain-12.2.rel1-x86_64-arm-none-eabi/bin/../lib/gcc/arm-none-eabi/12.2.1/../../../../arm-none-eabi/lib/thumb/v8-m.main+fp/hard/libnosys.a(fstat.o)
 .ARM.attributes
                0x0000000000000f18       0x38 /home/yul/toolchain/arm-gnu-toolchain-12.2.rel1-x86_64-arm-none-eabi/bin/../lib/gcc/arm-none-eabi/12.2.1/../../../../arm-none-eabi/lib/thumb/v8-m.main+fp/hard/libnosys.a(isatty.o)
 .ARM.attributes
                0x0000000000000f50       0x38 /home/yul/toolchain/arm-gnu-toolchain-12.2.rel1-x86_64-arm-none-eabi/bin/../lib/gcc/arm-none-eabi/12.2.1/../../../../arm-none-eabi/lib/thumb/v8-m.main+fp/hard/libnosys.a(lseek.o)
 .ARM.attributes
                0x0000000000000f88       0x38 /home/yul/toolchain/arm-gnu-toolchain-12.2.rel1-x86_64-arm-none-eabi/bin/../lib/gcc/arm-none-eabi/12.2.1/../../../../arm-none-eabi/lib/thumb/v8-m.main+fp/hard/libnosys.a(read.o)
 .ARM.attributes
                0x0000000000000fc0       0x38 /home/yul/toolchain/arm-gnu-toolchain-12.2.rel1-x86_64-arm-none-eabi/bin/../lib/gcc/arm-none-eabi/12.2.1/../../../../arm-none-eabi/lib/thumb/v8-m.main+fp/hard/libnosys.a(sbrk.o)
 .ARM.attributes
                0x0000000000000ff8       0x26 /home/yul/toolchain/arm-gnu-toolchain-12.2.rel1-x86_64-arm-none-eabi/bin/../lib/gcc/arm-none-eabi/12.2.1/thumb/v8-m.main+fp/hard/libgcc.a(_aeabi_uldivmod.o)
 .ARM.attributes
                0x000000000000101e       0x38 /home/yul/toolchain/arm-gnu-toolchain-12.2.rel1-x86_64-arm-none-eabi/bin/../lib/gcc/arm-none-eabi/12.2.1/thumb/v8-m.main+fp/hard/libgcc.a(_udivmoddi4.o)
 .ARM.attributes
                0x0000000000001056       0x26 /home/yul/toolchain/arm-gnu-toolchain-12.2.rel1-x86_64-arm-none-eabi/bin/../lib/gcc/arm-none-eabi/12.2.1/thumb/v8-m.main+fp/hard/libgcc.a(_dvmd_tls.o)
 .ARM.attributes
                0x000000000000107c       0x38 /home/yul/toolchain/arm-gnu-toolchain-12.2.rel1-x86_64-arm-none-eabi/bin/../lib/gcc/arm-none-eabi/12.2.1/thumb/v8-m.main+fp/hard/crtend.o
 .ARM.attributes
                0x00000000000010b4       0x26 /home/yul/toolchain/arm-gnu-toolchain-12.2.rel1-x86_64-arm-none-eabi/bin/../lib/gcc/arm-none-eabi/12.2.1/thumb/v8-m.main+fp/hard/crtn.o
OUTPUT(build/debug_asus_falchion.elf elf32-littlearm)
LOAD linker stubs
LOAD /home/yul/toolchain/arm-gnu-toolchain-12.2.rel1-x86_64-arm-none-eabi/bin/../lib/gcc/arm-none-eabi/12.2.1/../../../../arm-none-eabi/lib/thumb/v8-m.main+fp/hard/libc.a
LOAD /home/yul/toolchain/arm-gnu-toolchain-12.2.rel1-x86_64-arm-none-eabi/bin/../lib/gcc/arm-none-eabi/12.2.1/../../../../arm-none-eabi/lib/thumb/v8-m.main+fp/hard/libm.a
LOAD /home/yul/toolchain/arm-gnu-toolchain-12.2.rel1-x86_64-arm-none-eabi/bin/../lib/gcc/arm-none-eabi/12.2.1/thumb/v8-m.main+fp/hard/libgcc.a

.debug_info     0x0000000000000000    0x2ae05
 .debug_info    0x0000000000000000     0x1ae3 build/main.o
 .debug_info    0x0000000000001ae3     0x1d63 build/shell.o
 .debug_info    0x0000000000003846     0x10b1 build/is31fl3737.o
 .debug_info    0x00000000000048f7     0x2392 build/keyboard.o
 .debug_info    0x0000000000006c89      0x774 build/stm32l5xx_it.o
 .debug_info    0x00000000000073fd     0x1782 build/stm32l5xx_hal_msp.o
 .debug_info    0x0000000000008b7f     0x2beb build/usbd_conf.o
 .debug_info    0x000000000000b76a      0x8a4 build/usb_device.o
 .debug_info    0x000000000000c00e      0x657 build/usbd_desc.o
 .debug_info    0x000000000000c665      0xc1d build/usbd_cdc_if.o
 .debug_info    0x000000000000d282     0x1dbd build/stm32l5xx_hal_pcd.o
 .debug_info    0x000000000000f03f      0xa9d build/stm32l5xx_hal_pcd_ex.o
 .debug_info    0x000000000000fadc     0x1b43 build/stm32l5xx_ll_usb.o
 .debug_info    0x000000000001161f      0xf8b build/stm32l5xx_hal.o
 .debug_info    0x00000000000125aa     0x45a2 build/stm32l5xx_hal_i2c.o
 .debug_info    0x0000000000016b4c      0xdf7 build/stm32l5xx_hal_i2c_ex.o
 .debug_info    0x0000000000017943     0x154a build/stm32l5xx_hal_rcc.o
 .debug_info    0x0000000000018e8d     0x18fb build/stm32l5xx_hal_rcc_ex.o
 .debug_info    0x000000000001a788      0x728 build/stm32l5xx_hal_gpio.o
 .debug_info    0x000000000001aeb0     0x109b build/stm32l5xx_hal_pwr_ex.o
 .debug_info    0x000000000001bf4b     0x1563 build/stm32l5xx_hal_cortex.o
 .debug_info    0x000000000001d4ae      0x6bf build/stm32l5xx_hal_icache.o
 .debug_info    0x000000000001db6d     0x67ce build/stm32l5xx_hal_uart.o
 .debug_info    0x000000000002433b     0x144a build/stm32l5xx_hal_uart_ex.o
 .debug_info    0x0000000000025785      0x8fb build/system_stm32l5xx.o
 .debug_info    0x0000000000026080     0x144a build/usbd_core.o
 .debug_info    0x00000000000274ca     0x1599 build/usbd_ctlreq.o
 .debug_info    0x0000000000028a63      0x9c2 build/usbd_ioreq.o
 .debug_info    0x0000000000029425     0x19b0 build/usbd_cdc.o
 .debug_info    0x000000000002add5       0x30 build/startup_stm32l562xx.o

.debug_abbrev   0x0000000000000000     0x4d4d
 .debug_abbrev  0x0000000000000000      0x346 build/main.o
 .debug_abbrev  0x0000000000000346      0x380 build/shell.o
 .debug_abbrev  0x00000000000006c6      0x262 build/is31fl3737.o
 .debug_abbrev  0x0000000000000928      0x1e8 build/keyboard.o
 .debug_abbrev  0x0000000000000b10      0x183 build/stm32l5xx_it.o
 .debug_abbrev  0x0000000000000c93      0x242 build/stm32l5xx_hal_msp.o
 .debug_abbrev  0x0000000000000ed5      0x39d build/usbd_conf.o
 .debug_abbrev  0x0000000000001272      0x19c build/usb_device.o
 .debug_abbrev  0x000000000000140e      0x24b build/usbd_desc.o
 .debug_abbrev  0x0000000000001659      0x32d build/usbd_cdc_if.o
 .debug_abbrev  0x0000000000001986      0x300 build/stm32l5xx_hal_pcd.o
 .debug_abbrev  0x0000000000001c86      0x25a build/stm32l5xx_hal_pcd_ex.o
 .debug_abbrev  0x0000000000001ee0      0x309 build/stm32l5xx_ll_usb.o
 .debug_abbrev  0x00000000000021e9      0x2e1 build/stm32l5xx_hal.o
 .debug_abbrev  0x00000000000024ca      0x2dd build/stm32l5xx_hal_i2c.o
 .debug_abbrev  0x00000000000027a7      0x1c4 build/stm32l5xx_hal_i2c_ex.o
 .debug_abbrev  0x000000000000296b      0x301 build/stm32l5xx_hal_rcc.o
 .debug_abbrev  0x0000000000002c6c      0x2ed build/stm32l5xx_hal_rcc_ex.o
 .debug_abbrev  0x0000000000002f59      0x221 build/stm32l5xx_hal_gpio.o
 .debug_abbrev  0x000000000000317a      0x2c7 build/stm32l5xx_hal_pwr_ex.o
 .debug_abbrev  0x0000000000003441      0x3da build/stm32l5xx_hal_cortex.o
 .debug_abbrev  0x000000000000381b      0x24d build/stm32l5xx_hal_icache.o
 .debug_abbrev  0x0000000000003a68      0x36b build/stm32l5xx_hal_uart.o
 .debug_abbrev  0x0000000000003dd3      0x348 build/stm32l5xx_hal_uart_ex.o
 .debug_abbrev  0x000000000000411b      0x11b build/system_stm32l5xx.o
 .debug_abbrev  0x0000000000004236      0x2ec build/usbd_core.o
 .debug_abbrev  0x0000000000004522      0x359 build/usbd_ctlreq.o
 .debug_abbrev  0x000000000000487b      0x195 build/usbd_ioreq.o
 .debug_abbrev  0x0000000000004a10      0x320 build/usbd_cdc.o
 .debug_abbrev  0x0000000000004d30       0x1d build/startup_stm32l562xx.o

.debug_loc      0x0000000000000000    0x1b8ea
 .debug_loc     0x0000000000000000      0x1a8 build/main.o
 .debug_loc     0x00000000000001a8      0x55a build/shell.o
 .debug_loc     0x0000000000000702      0x7f4 build/is31fl3737.o
 .debug_loc     0x0000000000000ef6      0x161 build/keyboard.o
 .debug_loc     0x0000000000001057       0x40 build/stm32l5xx_it.o
 .debug_loc     0x0000000000001097      0x240 build/stm32l5xx_hal_msp.o
 .debug_loc     0x00000000000012d7     0x1084 build/usbd_conf.o
 .debug_loc     0x000000000000235b       0x20 build/usb_device.o
 .debug_loc     0x000000000000237b      0x47b build/usbd_desc.o
 .debug_loc     0x00000000000027f6      0x2a1 build/usbd_cdc_if.o
 .debug_loc     0x0000000000002a97     0x17e2 build/stm32l5xx_hal_pcd.o
 .debug_loc     0x0000000000004279      0x2b2 build/stm32l5xx_hal_pcd_ex.o
 .debug_loc     0x000000000000452b     0x1920 build/stm32l5xx_ll_usb.o
 .debug_loc     0x0000000000005e4b      0x3af build/stm32l5xx_hal.o
 .debug_loc     0x00000000000061fa     0x5888 build/stm32l5xx_hal_i2c.o
 .debug_loc     0x000000000000ba82      0x237 build/stm32l5xx_hal_i2c_ex.o
 .debug_loc     0x000000000000bcb9      0xcd8 build/stm32l5xx_hal_rcc.o
 .debug_loc     0x000000000000c991     0x278c build/stm32l5xx_hal_rcc_ex.o
 .debug_loc     0x000000000000f11d      0x432 build/stm32l5xx_hal_gpio.o
 .debug_loc     0x000000000000f54f      0x9fe build/stm32l5xx_hal_pwr_ex.o
 .debug_loc     0x000000000000ff4d      0x913 build/stm32l5xx_hal_cortex.o
 .debug_loc     0x0000000000010860      0x522 build/stm32l5xx_hal_icache.o
 .debug_loc     0x0000000000010d82     0x620d build/stm32l5xx_hal_uart.o
 .debug_loc     0x0000000000016f8f      0xe1e build/stm32l5xx_hal_uart_ex.o
 .debug_loc     0x0000000000017dad      0x127 build/system_stm32l5xx.o
 .debug_loc     0x0000000000017ed4     0x102a build/usbd_core.o
 .debug_loc     0x0000000000018efe     0x1a78 build/usbd_ctlreq.o
 .debug_loc     0x000000000001a976      0x398 build/usbd_ioreq.o
 .debug_loc     0x000000000001ad0e      0xbdc build/usbd_cdc.o

.debug_aranges  0x0000000000000000     0x1530
 .debug_aranges
                0x0000000000000000       0x60 build/main.o
 .debug_aranges
                0x0000000000000060       0x58 build/shell.o
 .debug_aranges
                0x00000000000000b8       0x58 build/is31fl3737.o
 .debug_aranges
                0x0000000000000110       0x30 build/keyboard.o
 .debug_aranges
                0x0000000000000140       0x68 build/stm32l5xx_it.o
 .debug_aranges
                0x00000000000001a8       0x40 build/stm32l5xx_hal_msp.o
 .debug_aranges
                0x00000000000001e8      0x120 build/usbd_conf.o
 .debug_aranges
                0x0000000000000308       0x20 build/usb_device.o
 .debug_aranges
                0x0000000000000328       0x60 build/usbd_desc.o
 .debug_aranges
                0x0000000000000388       0x50 build/usbd_cdc_if.o
 .debug_aranges
                0x00000000000003d8      0x138 build/stm32l5xx_hal_pcd.o
 .debug_aranges
                0x0000000000000510       0x58 build/stm32l5xx_hal_pcd_ex.o
 .debug_aranges
                0x0000000000000568       0xb8 build/stm32l5xx_ll_usb.o
 .debug_aranges
                0x0000000000000620      0x130 build/stm32l5xx_hal.o
 .debug_aranges
                0x0000000000000750      0x2a0 build/stm32l5xx_hal_i2c.o
 .debug_aranges
                0x00000000000009f0       0x48 build/stm32l5xx_hal_i2c_ex.o
 .debug_aranges
                0x0000000000000a38       0xa8 build/stm32l5xx_hal_rcc.o
 .debug_aranges
                0x0000000000000ae0      0x118 build/stm32l5xx_hal_rcc_ex.o
 .debug_aranges
                0x0000000000000bf8       0x60 build/stm32l5xx_hal_gpio.o
 .debug_aranges
                0x0000000000000c58      0x1b8 build/stm32l5xx_hal_pwr_ex.o
 .debug_aranges
                0x0000000000000e10       0xf8 build/stm32l5xx_hal_cortex.o
 .debug_aranges
                0x0000000000000f08       0xa8 build/stm32l5xx_hal_icache.o
 .debug_aranges
                0x0000000000000fb0      0x248 build/stm32l5xx_hal_uart.o
 .debug_aranges
                0x00000000000011f8       0xa8 build/stm32l5xx_hal_uart_ex.o
 .debug_aranges
                0x00000000000012a0       0x28 build/system_stm32l5xx.o
 .debug_aranges
                0x00000000000012c8       0xd8 build/usbd_core.o
 .debug_aranges
                0x00000000000013a0       0x88 build/usbd_ctlreq.o
 .debug_aranges
                0x0000000000001428       0x50 build/usbd_ioreq.o
 .debug_aranges
                0x0000000000001478       0x90 build/usbd_cdc.o
 .debug_aranges
                0x0000000000001508       0x28 build/startup_stm32l562xx.o

.debug_ranges   0x0000000000000000     0x16e8
 .debug_ranges  0x0000000000000000       0x50 build/main.o
 .debug_ranges  0x0000000000000050       0x60 build/shell.o
 .debug_ranges  0x00000000000000b0       0x60 build/is31fl3737.o
 .debug_ranges  0x0000000000000110       0x38 build/keyboard.o
 .debug_ranges  0x0000000000000148       0x58 build/stm32l5xx_it.o
 .debug_ranges  0x00000000000001a0       0x30 build/stm32l5xx_hal_msp.o
 .debug_ranges  0x00000000000001d0      0x110 build/usbd_conf.o
 .debug_ranges  0x00000000000002e0       0x10 build/usb_device.o
 .debug_ranges  0x00000000000002f0       0x50 build/usbd_desc.o
 .debug_ranges  0x0000000000000340       0x40 build/usbd_cdc_if.o
 .debug_ranges  0x0000000000000380      0x208 build/stm32l5xx_hal_pcd.o
 .debug_ranges  0x0000000000000588       0x48 build/stm32l5xx_hal_pcd_ex.o
 .debug_ranges  0x00000000000005d0      0x2e0 build/stm32l5xx_ll_usb.o
 .debug_ranges  0x00000000000008b0      0x120 build/stm32l5xx_hal.o
 .debug_ranges  0x00000000000009d0      0x290 build/stm32l5xx_hal_i2c.o
 .debug_ranges  0x0000000000000c60       0x38 build/stm32l5xx_hal_i2c_ex.o
 .debug_ranges  0x0000000000000c98       0xb0 build/stm32l5xx_hal_rcc.o
 .debug_ranges  0x0000000000000d48      0x120 build/stm32l5xx_hal_rcc_ex.o
 .debug_ranges  0x0000000000000e68       0x50 build/stm32l5xx_hal_gpio.o
 .debug_ranges  0x0000000000000eb8      0x1a8 build/stm32l5xx_hal_pwr_ex.o
 .debug_ranges  0x0000000000001060       0xe8 build/stm32l5xx_hal_cortex.o
 .debug_ranges  0x0000000000001148       0x98 build/stm32l5xx_hal_icache.o
 .debug_ranges  0x00000000000011e0      0x238 build/stm32l5xx_hal_uart.o
 .debug_ranges  0x0000000000001418       0x98 build/stm32l5xx_hal_uart_ex.o
 .debug_ranges  0x00000000000014b0       0x18 build/system_stm32l5xx.o
 .debug_ranges  0x00000000000014c8       0xc8 build/usbd_core.o
 .debug_ranges  0x0000000000001590       0x78 build/usbd_ctlreq.o
 .debug_ranges  0x0000000000001608       0x40 build/usbd_ioreq.o
 .debug_ranges  0x0000000000001648       0x80 build/usbd_cdc.o
 .debug_ranges  0x00000000000016c8       0x20 build/startup_stm32l562xx.o

.debug_line     0x0000000000000000    0x1b23f
 .debug_line    0x0000000000000000      0x770 build/main.o
 .debug_line    0x0000000000000770      0x779 build/shell.o
 .debug_line    0x0000000000000ee9      0x5b5 build/is31fl3737.o
 .debug_line    0x000000000000149e      0x394 build/keyboard.o
 .debug_line    0x0000000000001832      0x2f2 build/stm32l5xx_it.o
 .debug_line    0x0000000000001b24      0x470 build/stm32l5xx_hal_msp.o
 .debug_line    0x0000000000001f94      0x950 build/usbd_conf.o
 .debug_line    0x00000000000028e4      0x21e build/usb_device.o
 .debug_line    0x0000000000002b02      0x370 build/usbd_desc.o
 .debug_line    0x0000000000002e72      0x43d build/usbd_cdc_if.o
 .debug_line    0x00000000000032af     0x18cd build/stm32l5xx_hal_pcd.o
 .debug_line    0x0000000000004b7c      0x469 build/stm32l5xx_hal_pcd_ex.o
 .debug_line    0x0000000000004fe5     0x18bf build/stm32l5xx_ll_usb.o
 .debug_line    0x00000000000068a4      0x703 build/stm32l5xx_hal.o
 .debug_line    0x0000000000006fa7     0x5033 build/stm32l5xx_hal_i2c.o
 .debug_line    0x000000000000bfda      0x515 build/stm32l5xx_hal_i2c_ex.o
 .debug_line    0x000000000000c4ef     0x1326 build/stm32l5xx_hal_rcc.o
 .debug_line    0x000000000000d815     0x1e81 build/stm32l5xx_hal_rcc_ex.o
 .debug_line    0x000000000000f696      0x6e3 build/stm32l5xx_hal_gpio.o
 .debug_line    0x000000000000fd79      0xcc4 build/stm32l5xx_hal_pwr_ex.o
 .debug_line    0x0000000000010a3d      0x8e1 build/stm32l5xx_hal_cortex.o
 .debug_line    0x000000000001131e      0x5b8 build/stm32l5xx_hal_icache.o
 .debug_line    0x00000000000118d6     0x642f build/stm32l5xx_hal_uart.o
 .debug_line    0x0000000000017d05      0xcb9 build/stm32l5xx_hal_uart_ex.o
 .debug_line    0x00000000000189be      0x2b8 build/system_stm32l5xx.o
 .debug_line    0x0000000000018c76      0x9f4 build/usbd_core.o
 .debug_line    0x000000000001966a      0xd99 build/usbd_ctlreq.o
 .debug_line    0x000000000001a403      0x2ce build/usbd_ioreq.o
 .debug_line    0x000000000001a6d1      0xaf9 build/usbd_cdc.o
 .debug_line    0x000000000001b1ca       0x75 build/startup_stm32l562xx.o

.debug_str      0x0000000000000000     0xa2a9
 .debug_str     0x0000000000000000      0xf10 build/main.o
                                       0x1039 (size before relaxing)
 .debug_str     0x0000000000000f10      0x51e build/shell.o
                                        0xd69 (size before relaxing)
 .debug_str     0x000000000000142e      0x1e0 build/is31fl3737.o
                                        0x9ec (size before relaxing)
 .debug_str     0x000000000000160e     0x37c9 build/keyboard.o
                                       0x3a0c (size before relaxing)
 .debug_str     0x0000000000004dd7      0x3a7 build/stm32l5xx_it.o
                                        0x602 (size before relaxing)
 .debug_str     0x000000000000517e      0x38f build/stm32l5xx_hal_msp.o
                                        0xffe (size before relaxing)
 .debug_str     0x000000000000550d      0xed9 build/usbd_conf.o
                                       0x1b2f (size before relaxing)
 .debug_str     0x00000000000063e6       0xc0 build/usb_device.o
                                        0x6b8 (size before relaxing)
 .debug_str     0x00000000000064a6      0x184 build/usbd_desc.o
                                        0x459 (size before relaxing)
 .debug_str     0x000000000000662a      0x14c build/usbd_cdc_if.o
                                        0x7f9 (size before relaxing)
 .debug_str     0x0000000000006776      0x2ae build/stm32l5xx_hal_pcd.o
                                        0xaba (size before relaxing)
 .debug_str     0x0000000000006a24      0x179 build/stm32l5xx_hal_pcd_ex.o
                                        0x764 (size before relaxing)
 .debug_str     0x0000000000006b9d       0xd0 build/stm32l5xx_ll_usb.o
                                        0x645 (size before relaxing)
 .debug_str     0x0000000000006c6d      0x484 build/stm32l5xx_hal.o
                                        0xeb4 (size before relaxing)
 .debug_str     0x00000000000070f1      0x895 build/stm32l5xx_hal_i2c.o
                                       0x10e9 (size before relaxing)
 .debug_str     0x0000000000007986       0xb5 build/stm32l5xx_hal_i2c_ex.o
                                        0xab5 (size before relaxing)
 .debug_str     0x0000000000007a3b      0x418 build/stm32l5xx_hal_rcc.o
                                        0xa23 (size before relaxing)
 .debug_str     0x0000000000007e53      0x501 build/stm32l5xx_hal_rcc_ex.o
                                        0xd67 (size before relaxing)
 .debug_str     0x0000000000008354      0x161 build/stm32l5xx_hal_gpio.o
                                        0x43f (size before relaxing)
 .debug_str     0x00000000000084b5      0x65c build/stm32l5xx_hal_pwr_ex.o
                                        0xafe (size before relaxing)
 .debug_str     0x0000000000008b11      0x476 build/stm32l5xx_hal_cortex.o
                                        0xe65 (size before relaxing)
 .debug_str     0x0000000000008f87      0x273 build/stm32l5xx_hal_icache.o
                                        0x4b9 (size before relaxing)
 .debug_str     0x00000000000091fa      0x88f build/stm32l5xx_hal_uart.o
                                       0x12b0 (size before relaxing)
 .debug_str     0x0000000000009a89      0x246 build/stm32l5xx_hal_uart_ex.o
                                        0xb74 (size before relaxing)
 .debug_str     0x0000000000009ccf       0x27 build/system_stm32l5xx.o
                                        0x4c8 (size before relaxing)
 .debug_str     0x0000000000009cf6      0x27c build/usbd_core.o
                                        0x9c9 (size before relaxing)
 .debug_str     0x0000000000009f72      0x109 build/usbd_ctlreq.o
                                        0x7f4 (size before relaxing)
 .debug_str     0x000000000000a07b       0x60 build/usbd_ioreq.o
                                        0x6c9 (size before relaxing)
 .debug_str     0x000000000000a0db      0x19c build/usbd_cdc.o
                                        0xd47 (size before relaxing)
 .debug_str     0x000000000000a277       0x32 build/startup_stm32l562xx.o
                                         0x5a (size before relaxing)

.comment        0x0000000000000000       0x45
 .comment       0x0000000000000000       0x45 build/main.o
                                         0x46 (size before relaxing)
 .comment       0x0000000000000045       0x46 build/shell.o
 .comment       0x0000000000000045       0x46 build/is31fl3737.o
 .comment       0x0000000000000045       0x46 build/keyboard.o
 .comment       0x0000000000000045       0x46 build/stm32l5xx_it.o
 .comment       0x0000000000000045       0x46 build/stm32l5xx_hal_msp.o
 .comment       0x0000000000000045       0x46 build/usbd_conf.o
 .comment       0x0000000000000045       0x46 build/usb_device.o
 .comment       0x0000000000000045       0x46 build/usbd_desc.o
 .comment       0x0000000000000045       0x46 build/usbd_cdc_if.o
 .comment       0x0000000000000045       0x46 build/stm32l5xx_hal_pcd.o
 .comment       0x0000000000000045       0x46 build/stm32l5xx_hal_pcd_ex.o
 .comment       0x0000000000000045       0x46 build/stm32l5xx_ll_usb.o
 .comment       0x0000000000000045       0x46 build/stm32l5xx_hal.o
 .comment       0x0000000000000045       0x46 build/stm32l5xx_hal_i2c.o
 .comment       0x0000000000000045       0x46 build/stm32l5xx_hal_i2c_ex.o
 .comment       0x0000000000000045       0x46 build/stm32l5xx_hal_rcc.o
 .comment       0x0000000000000045       0x46 build/stm32l5xx_hal_rcc_ex.o
 .comment       0x0000000000000045       0x46 build/stm32l5xx_hal_gpio.o
 .comment       0x0000000000000045       0x46 build/stm32l5xx_hal_pwr_ex.o
 .comment       0x0000000000000045       0x46 build/stm32l5xx_hal_cortex.o
 .comment       0x0000000000000045       0x46 build/stm32l5xx_hal_icache.o
 .comment       0x0000000000000045       0x46 build/stm32l5xx_hal_uart.o
 .comment       0x0000000000000045       0x46 build/stm32l5xx_hal_uart_ex.o
 .comment       0x0000000000000045       0x46 build/system_stm32l5xx.o
 .comment       0x0000000000000045       0x46 build/usbd_core.o
 .comment       0x0000000000000045       0x46 build/usbd_ctlreq.o
 .comment       0x0000000000000045       0x46 build/usbd_ioreq.o
 .comment       0x0000000000000045       0x46 build/usbd_cdc.o

.debug_frame    0x0000000000000000     0x4150
 .debug_frame   0x0000000000000000       0xf8 build/main.o
 .debug_frame   0x00000000000000f8       0xf8 build/shell.o
 .debug_frame   0x00000000000001f0      0x11c build/is31fl3737.o
 .debug_frame   0x000000000000030c       0x54 build/keyboard.o
 .debug_frame   0x0000000000000360       0xc0 build/stm32l5xx_it.o
 .debug_frame   0x0000000000000420       0xa4 build/stm32l5xx_hal_msp.o
 .debug_frame   0x00000000000004c4      0x318 build/usbd_conf.o
 .debug_frame   0x00000000000007dc       0x28 build/usb_device.o
 .debug_frame   0x0000000000000804       0xe0 build/usbd_desc.o
 .debug_frame   0x00000000000008e4       0xa8 build/usbd_cdc_if.o
 .debug_frame   0x000000000000098c      0x348 build/stm32l5xx_hal_pcd.o
 .debug_frame   0x0000000000000cd4       0x9c build/stm32l5xx_hal_pcd_ex.o
 .debug_frame   0x0000000000000d70      0x180 build/stm32l5xx_ll_usb.o
 .debug_frame   0x0000000000000ef0      0x27c build/stm32l5xx_hal.o
 .debug_frame   0x000000000000116c      0x980 build/stm32l5xx_hal_i2c.o
 .debug_frame   0x0000000000001aec       0x80 build/stm32l5xx_hal_i2c_ex.o
 .debug_frame   0x0000000000001b6c      0x1e4 build/stm32l5xx_hal_rcc.o
 .debug_frame   0x0000000000001d50      0x2e4 build/stm32l5xx_hal_rcc_ex.o
 .debug_frame   0x0000000000002034       0xdc build/stm32l5xx_hal_gpio.o
 .debug_frame   0x0000000000002110      0x380 build/stm32l5xx_hal_pwr_ex.o
 .debug_frame   0x0000000000002490      0x224 build/stm32l5xx_hal_cortex.o
 .debug_frame   0x00000000000026b4      0x170 build/stm32l5xx_hal_icache.o
 .debug_frame   0x0000000000002824      0x67c build/stm32l5xx_hal_uart.o
 .debug_frame   0x0000000000002ea0      0x1d8 build/stm32l5xx_hal_uart_ex.o
 .debug_frame   0x0000000000003078       0x30 build/system_stm32l5xx.o
 .debug_frame   0x00000000000030a8      0x240 build/usbd_core.o
 .debug_frame   0x00000000000032e8      0x180 build/usbd_ctlreq.o
 .debug_frame   0x0000000000003468       0xb8 build/usbd_ioreq.o
 .debug_frame   0x0000000000003520      0x190 build/usbd_cdc.o
 .debug_frame   0x00000000000036b0       0x2c /home/yul/toolchain/arm-gnu-toolchain-12.2.rel1-x86_64-arm-none-eabi/bin/../lib/gcc/arm-none-eabi/12.2.1/../../../../arm-none-eabi/lib/thumb/v8-m.main+fp/hard/libc_nano.a(libc_a-init.o)
 .debug_frame   0x00000000000036dc       0x20 /home/yul/toolchain/arm-gnu-toolchain-12.2.rel1-x86_64-arm-none-eabi/bin/../lib/gcc/arm-none-eabi/12.2.1/../../../../arm-none-eabi/lib/thumb/v8-m.main+fp/hard/libc_nano.a(libc_a-strcmp.o)
 .debug_frame   0x00000000000036fc       0x6c /home/yul/toolchain/arm-gnu-toolchain-12.2.rel1-x86_64-arm-none-eabi/bin/../lib/gcc/arm-none-eabi/12.2.1/../../../../arm-none-eabi/lib/thumb/v8-m.main+fp/hard/libc_nano.a(libc_a-printf.o)
 .debug_frame   0x0000000000003768       0xa8 /home/yul/toolchain/arm-gnu-toolchain-12.2.rel1-x86_64-arm-none-eabi/bin/../lib/gcc/arm-none-eabi/12.2.1/../../../../arm-none-eabi/lib/thumb/v8-m.main+fp/hard/libc_nano.a(libc_a-nano-vfprintf.o)
 .debug_frame   0x0000000000003810       0x40 /home/yul/toolchain/arm-gnu-toolchain-12.2.rel1-x86_64-arm-none-eabi/bin/../lib/gcc/arm-none-eabi/12.2.1/../../../../arm-none-eabi/lib/thumb/v8-m.main+fp/hard/libc_nano.a(libc_a-wbuf.o)
 .debug_frame   0x0000000000003850       0x2c /home/yul/toolchain/arm-gnu-toolchain-12.2.rel1-x86_64-arm-none-eabi/bin/../lib/gcc/arm-none-eabi/12.2.1/../../../../arm-none-eabi/lib/thumb/v8-m.main+fp/hard/libc_nano.a(libc_a-wsetup.o)
 .debug_frame   0x000000000000387c       0x30 /home/yul/toolchain/arm-gnu-toolchain-12.2.rel1-x86_64-arm-none-eabi/bin/../lib/gcc/arm-none-eabi/12.2.1/../../../../arm-none-eabi/lib/thumb/v8-m.main+fp/hard/libc_nano.a(libc_a-putchar.o)
 .debug_frame   0x00000000000038ac       0x60 /home/yul/toolchain/arm-gnu-toolchain-12.2.rel1-x86_64-arm-none-eabi/bin/../lib/gcc/arm-none-eabi/12.2.1/../../../../arm-none-eabi/lib/thumb/v8-m.main+fp/hard/libc_nano.a(libc_a-nano-vfprintf_i.o)
 .debug_frame   0x000000000000390c       0x3c /home/yul/toolchain/arm-gnu-toolchain-12.2.rel1-x86_64-arm-none-eabi/bin/../lib/gcc/arm-none-eabi/12.2.1/../../../../arm-none-eabi/lib/thumb/v8-m.main+fp/hard/libc_nano.a(libc_a-puts.o)
 .debug_frame   0x0000000000003948       0x5c /home/yul/toolchain/arm-gnu-toolchain-12.2.rel1-x86_64-arm-none-eabi/bin/../lib/gcc/arm-none-eabi/12.2.1/../../../../arm-none-eabi/lib/thumb/v8-m.main+fp/hard/libc_nano.a(libc_a-fflush.o)
 .debug_frame   0x00000000000039a4       0x28 /home/yul/toolchain/arm-gnu-toolchain-12.2.rel1-x86_64-arm-none-eabi/bin/../lib/gcc/arm-none-eabi/12.2.1/../../../../arm-none-eabi/lib/thumb/v8-m.main+fp/hard/libc_nano.a(libc_a-memchr-stub.o)
 .debug_frame   0x00000000000039cc       0x28 /home/yul/toolchain/arm-gnu-toolchain-12.2.rel1-x86_64-arm-none-eabi/bin/../lib/gcc/arm-none-eabi/12.2.1/../../../../arm-none-eabi/lib/thumb/v8-m.main+fp/hard/libc_nano.a(libc_a-memcpy-stub.o)
 .debug_frame   0x00000000000039f4      0x144 /home/yul/toolchain/arm-gnu-toolchain-12.2.rel1-x86_64-arm-none-eabi/bin/../lib/gcc/arm-none-eabi/12.2.1/../../../../arm-none-eabi/lib/thumb/v8-m.main+fp/hard/libc_nano.a(libc_a-findfp.o)
 .debug_frame   0x0000000000003b38       0x88 /home/yul/toolchain/arm-gnu-toolchain-12.2.rel1-x86_64-arm-none-eabi/bin/../lib/gcc/arm-none-eabi/12.2.1/../../../../arm-none-eabi/lib/thumb/v8-m.main+fp/hard/libc_nano.a(libc_a-stdio.o)
 .debug_frame   0x0000000000003bc0       0x30 /home/yul/toolchain/arm-gnu-toolchain-12.2.rel1-x86_64-arm-none-eabi/bin/../lib/gcc/arm-none-eabi/12.2.1/../../../../arm-none-eabi/lib/thumb/v8-m.main+fp/hard/libc_nano.a(libc_a-atoi.o)
 .debug_frame   0x0000000000003bf0       0x2c /home/yul/toolchain/arm-gnu-toolchain-12.2.rel1-x86_64-arm-none-eabi/bin/../lib/gcc/arm-none-eabi/12.2.1/../../../../arm-none-eabi/lib/thumb/v8-m.main+fp/hard/libc_nano.a(libc_a-writer.o)
 .debug_frame   0x0000000000003c1c       0x34 /home/yul/toolchain/arm-gnu-toolchain-12.2.rel1-x86_64-arm-none-eabi/bin/../lib/gcc/arm-none-eabi/12.2.1/../../../../arm-none-eabi/lib/thumb/v8-m.main+fp/hard/libc_nano.a(libc_a-fwalk.o)
 .debug_frame   0x0000000000003c50       0x20 /home/yul/toolchain/arm-gnu-toolchain-12.2.rel1-x86_64-arm-none-eabi/bin/../lib/gcc/arm-none-eabi/12.2.1/../../../../arm-none-eabi/lib/thumb/v8-m.main+fp/hard/libc_nano.a(libc_a-memset.o)
 .debug_frame   0x0000000000003c70       0x38 /home/yul/toolchain/arm-gnu-toolchain-12.2.rel1-x86_64-arm-none-eabi/bin/../lib/gcc/arm-none-eabi/12.2.1/../../../../arm-none-eabi/lib/thumb/v8-m.main+fp/hard/libc_nano.a(libc_a-freer.o)
 .debug_frame   0x0000000000003ca8       0x64 /home/yul/toolchain/arm-gnu-toolchain-12.2.rel1-x86_64-arm-none-eabi/bin/../lib/gcc/arm-none-eabi/12.2.1/../../../../arm-none-eabi/lib/thumb/v8-m.main+fp/hard/libc_nano.a(libc_a-strtol.o)
 .debug_frame   0x0000000000003d0c       0xb0 /home/yul/toolchain/arm-gnu-toolchain-12.2.rel1-x86_64-arm-none-eabi/bin/../lib/gcc/arm-none-eabi/12.2.1/../../../../arm-none-eabi/lib/thumb/v8-m.main+fp/hard/libc_nano.a(libc_a-lock.o)
 .debug_frame   0x0000000000003dbc       0x58 /home/yul/toolchain/arm-gnu-toolchain-12.2.rel1-x86_64-arm-none-eabi/bin/../lib/gcc/arm-none-eabi/12.2.1/../../../../arm-none-eabi/lib/thumb/v8-m.main+fp/hard/libc_nano.a(libc_a-makebuf.o)
 .debug_frame   0x0000000000003e14       0x3c /home/yul/toolchain/arm-gnu-toolchain-12.2.rel1-x86_64-arm-none-eabi/bin/../lib/gcc/arm-none-eabi/12.2.1/../../../../arm-none-eabi/lib/thumb/v8-m.main+fp/hard/libc_nano.a(libc_a-putc.o)
 .debug_frame   0x0000000000003e50       0x2c /home/yul/toolchain/arm-gnu-toolchain-12.2.rel1-x86_64-arm-none-eabi/bin/../lib/gcc/arm-none-eabi/12.2.1/../../../../arm-none-eabi/lib/thumb/v8-m.main+fp/hard/libc_nano.a(libc_a-closer.o)
 .debug_frame   0x0000000000003e7c       0x38 /home/yul/toolchain/arm-gnu-toolchain-12.2.rel1-x86_64-arm-none-eabi/bin/../lib/gcc/arm-none-eabi/12.2.1/../../../../arm-none-eabi/lib/thumb/v8-m.main+fp/hard/libc_nano.a(libc_a-reent.o)
 .debug_frame   0x0000000000003eb4       0x4c /home/yul/toolchain/arm-gnu-toolchain-12.2.rel1-x86_64-arm-none-eabi/bin/../lib/gcc/arm-none-eabi/12.2.1/../../../../arm-none-eabi/lib/thumb/v8-m.main+fp/hard/libc_nano.a(libc_a-mallocr.o)
 .debug_frame   0x0000000000003f00       0x2c /home/yul/toolchain/arm-gnu-toolchain-12.2.rel1-x86_64-arm-none-eabi/bin/../lib/gcc/arm-none-eabi/12.2.1/../../../../arm-none-eabi/lib/thumb/v8-m.main+fp/hard/libc_nano.a(libc_a-fstatr.o)
 .debug_frame   0x0000000000003f2c       0x2c /home/yul/toolchain/arm-gnu-toolchain-12.2.rel1-x86_64-arm-none-eabi/bin/../lib/gcc/arm-none-eabi/12.2.1/../../../../arm-none-eabi/lib/thumb/v8-m.main+fp/hard/libc_nano.a(libc_a-isattyr.o)
 .debug_frame   0x0000000000003f58       0x2c /home/yul/toolchain/arm-gnu-toolchain-12.2.rel1-x86_64-arm-none-eabi/bin/../lib/gcc/arm-none-eabi/12.2.1/../../../../arm-none-eabi/lib/thumb/v8-m.main+fp/hard/libc_nano.a(libc_a-lseekr.o)
 .debug_frame   0x0000000000003f84       0x2c /home/yul/toolchain/arm-gnu-toolchain-12.2.rel1-x86_64-arm-none-eabi/bin/../lib/gcc/arm-none-eabi/12.2.1/../../../../arm-none-eabi/lib/thumb/v8-m.main+fp/hard/libc_nano.a(libc_a-readr.o)
 .debug_frame   0x0000000000003fb0       0x30 /home/yul/toolchain/arm-gnu-toolchain-12.2.rel1-x86_64-arm-none-eabi/bin/../lib/gcc/arm-none-eabi/12.2.1/../../../../arm-none-eabi/lib/thumb/v8-m.main+fp/hard/libc_nano.a(libc_a-mlock.o)
 .debug_frame   0x0000000000003fe0       0x2c /home/yul/toolchain/arm-gnu-toolchain-12.2.rel1-x86_64-arm-none-eabi/bin/../lib/gcc/arm-none-eabi/12.2.1/../../../../arm-none-eabi/lib/thumb/v8-m.main+fp/hard/libc_nano.a(libc_a-sbrkr.o)
 .debug_frame   0x000000000000400c       0x20 /home/yul/toolchain/arm-gnu-toolchain-12.2.rel1-x86_64-arm-none-eabi/bin/../lib/gcc/arm-none-eabi/12.2.1/../../../../arm-none-eabi/lib/thumb/v8-m.main+fp/hard/libc_nano.a(libc_a-errno.o)
 .debug_frame   0x000000000000402c       0x20 /home/yul/toolchain/arm-gnu-toolchain-12.2.rel1-x86_64-arm-none-eabi/bin/../lib/gcc/arm-none-eabi/12.2.1/../../../../arm-none-eabi/lib/thumb/v8-m.main+fp/hard/libnosys.a(close.o)
 .debug_frame   0x000000000000404c       0x20 /home/yul/toolchain/arm-gnu-toolchain-12.2.rel1-x86_64-arm-none-eabi/bin/../lib/gcc/arm-none-eabi/12.2.1/../../../../arm-none-eabi/lib/thumb/v8-m.main+fp/hard/libnosys.a(fstat.o)
 .debug_frame   0x000000000000406c       0x20 /home/yul/toolchain/arm-gnu-toolchain-12.2.rel1-x86_64-arm-none-eabi/bin/../lib/gcc/arm-none-eabi/12.2.1/../../../../arm-none-eabi/lib/thumb/v8-m.main+fp/hard/libnosys.a(isatty.o)
 .debug_frame   0x000000000000408c       0x20 /home/yul/toolchain/arm-gnu-toolchain-12.2.rel1-x86_64-arm-none-eabi/bin/../lib/gcc/arm-none-eabi/12.2.1/../../../../arm-none-eabi/lib/thumb/v8-m.main+fp/hard/libnosys.a(lseek.o)
 .debug_frame   0x00000000000040ac       0x20 /home/yul/toolchain/arm-gnu-toolchain-12.2.rel1-x86_64-arm-none-eabi/bin/../lib/gcc/arm-none-eabi/12.2.1/../../../../arm-none-eabi/lib/thumb/v8-m.main+fp/hard/libnosys.a(read.o)
 .debug_frame   0x00000000000040cc       0x20 /home/yul/toolchain/arm-gnu-toolchain-12.2.rel1-x86_64-arm-none-eabi/bin/../lib/gcc/arm-none-eabi/12.2.1/../../../../arm-none-eabi/lib/thumb/v8-m.main+fp/hard/libnosys.a(sbrk.o)
 .debug_frame   0x00000000000040ec       0x2c /home/yul/toolchain/arm-gnu-toolchain-12.2.rel1-x86_64-arm-none-eabi/bin/../lib/gcc/arm-none-eabi/12.2.1/thumb/v8-m.main+fp/hard/libgcc.a(_aeabi_uldivmod.o)
 .debug_frame   0x0000000000004118       0x38 /home/yul/toolchain/arm-gnu-toolchain-12.2.rel1-x86_64-arm-none-eabi/bin/../lib/gcc/arm-none-eabi/12.2.1/thumb/v8-m.main+fp/hard/libgcc.a(_udivmoddi4.o)

.debug_line_str
                0x0000000000000000      0x1b9
 .debug_line_str
                0x0000000000000000       0xe7 /home/yul/toolchain/arm-gnu-toolchain-12.2.rel1-x86_64-arm-none-eabi/bin/../lib/gcc/arm-none-eabi/12.2.1/../../../../arm-none-eabi/lib/thumb/v8-m.main+fp/hard/libc_nano.a(libc_a-strcmp.o)
 .debug_line_str
                0x00000000000000e7       0xc6 /home/yul/toolchain/arm-gnu-toolchain-12.2.rel1-x86_64-arm-none-eabi/bin/../lib/gcc/arm-none-eabi/12.2.1/thumb/v8-m.main+fp/hard/libgcc.a(_aeabi_uldivmod.o)
 .debug_line_str
                0x00000000000001ad        0xc /home/yul/toolchain/arm-gnu-toolchain-12.2.rel1-x86_64-arm-none-eabi/bin/../lib/gcc/arm-none-eabi/12.2.1/thumb/v8-m.main+fp/hard/libgcc.a(_dvmd_tls.o)
                                         0xca (size before relaxing)

Cross Reference Table

Symbol                                            File
ADC1_2_IRQHandler                                 build/startup_stm32l562xx.o
AES_IRQHandler                                    build/startup_stm32l562xx.o
AHBPrescTable                                     build/system_stm32l5xx.o
                                                  build/stm32l5xx_hal_rcc.o
APBPrescTable                                     build/system_stm32l5xx.o
                                                  build/stm32l5xx_hal_rcc.o
BusFault_Handler                                  build/stm32l5xx_it.o
CDC_Desc                                          build/usbd_desc.o
                                                  build/usb_device.o
CDC_Transmit_FS                                   build/usbd_cdc_if.o
                                                  build/main.o
COMP_IRQHandler                                   build/startup_stm32l562xx.o
CRS_IRQHandler                                    build/startup_stm32l562xx.o
DAC_IRQHandler                                    build/startup_stm32l562xx.o
DFSDM1_FLT0_IRQHandler                            build/startup_stm32l562xx.o
DFSDM1_FLT1_IRQHandler                            build/startup_stm32l562xx.o
DFSDM1_FLT2_IRQHandler                            build/startup_stm32l562xx.o
DFSDM1_FLT3_IRQHandler                            build/startup_stm32l562xx.o
DMA1_Channel1_IRQHandler                          build/startup_stm32l562xx.o
DMA1_Channel2_IRQHandler                          build/startup_stm32l562xx.o
DMA1_Channel3_IRQHandler                          build/startup_stm32l562xx.o
DMA1_Channel4_IRQHandler                          build/startup_stm32l562xx.o
DMA1_Channel5_IRQHandler                          build/startup_stm32l562xx.o
DMA1_Channel6_IRQHandler                          build/startup_stm32l562xx.o
DMA1_Channel7_IRQHandler                          build/startup_stm32l562xx.o
DMA1_Channel8_IRQHandler                          build/startup_stm32l562xx.o
DMA2_Channel1_IRQHandler                          build/startup_stm32l562xx.o
DMA2_Channel2_IRQHandler                          build/startup_stm32l562xx.o
DMA2_Channel3_IRQHandler                          build/startup_stm32l562xx.o
DMA2_Channel4_IRQHandler                          build/startup_stm32l562xx.o
DMA2_Channel5_IRQHandler                          build/startup_stm32l562xx.o
DMA2_Channel6_IRQHandler                          build/startup_stm32l562xx.o
DMA2_Channel7_IRQHandler                          build/startup_stm32l562xx.o
DMA2_Channel8_IRQHandler                          build/startup_stm32l562xx.o
DMAMUX1_IRQHandler                                build/startup_stm32l562xx.o
DMAMUX1_S_IRQHandler                              build/startup_stm32l562xx.o
DebugMon_Handler                                  build/stm32l5xx_it.o
Default_Handler                                   build/startup_stm32l562xx.o
EXTI0_IRQHandler                                  build/startup_stm32l562xx.o
EXTI10_IRQHandler                                 build/startup_stm32l562xx.o
EXTI11_IRQHandler                                 build/startup_stm32l562xx.o
EXTI12_IRQHandler                                 build/startup_stm32l562xx.o
EXTI13_IRQHandler                                 build/startup_stm32l562xx.o
EXTI14_IRQHandler                                 build/startup_stm32l562xx.o
EXTI15_IRQHandler                                 build/startup_stm32l562xx.o
EXTI1_IRQHandler                                  build/startup_stm32l562xx.o
EXTI2_IRQHandler                                  build/startup_stm32l562xx.o
EXTI3_IRQHandler                                  build/startup_stm32l562xx.o
EXTI4_IRQHandler                                  build/startup_stm32l562xx.o
EXTI5_IRQHandler                                  build/startup_stm32l562xx.o
EXTI6_IRQHandler                                  build/startup_stm32l562xx.o
EXTI7_IRQHandler                                  build/startup_stm32l562xx.o
EXTI8_IRQHandler                                  build/startup_stm32l562xx.o
EXTI9_IRQHandler                                  build/startup_stm32l562xx.o
Error_Handler                                     build/main.o
                                                  build/usb_device.o
                                                  build/usbd_conf.o
                                                  build/stm32l5xx_hal_msp.o
FDCAN1_IT0_IRQHandler                             build/startup_stm32l562xx.o
FDCAN1_IT1_IRQHandler                             build/startup_stm32l562xx.o
FLASH_IRQHandler                                  build/startup_stm32l562xx.o
FLASH_PageErase                                   build/stm32l5xx_hal_flash_ex.o
                                                  build/stm32l5xx_hal_flash.o
FLASH_S_IRQHandler                                build/startup_stm32l562xx.o
FLASH_WaitForLastOperation                        build/stm32l5xx_hal_flash.o
                                                  build/stm32l5xx_hal_flash_ex.o
FMC_IRQHandler                                    build/startup_stm32l562xx.o
FPU_IRQHandler                                    build/startup_stm32l562xx.o
GTZC_IRQHandler                                   build/startup_stm32l562xx.o
HAL_DBGMCU_DisableDBGStandbyMode                  build/stm32l5xx_hal.o
HAL_DBGMCU_DisableDBGStopMode                     build/stm32l5xx_hal.o
HAL_DBGMCU_EnableDBGStandbyMode                   build/stm32l5xx_hal.o
HAL_DBGMCU_EnableDBGStopMode                      build/stm32l5xx_hal.o
HAL_DMAEx_ChangeMemory                            build/stm32l5xx_hal_dma_ex.o
HAL_DMAEx_ConfigMuxRequestGenerator               build/stm32l5xx_hal_dma_ex.o
HAL_DMAEx_ConfigMuxSync                           build/stm32l5xx_hal_dma_ex.o
HAL_DMAEx_DisableMuxRequestGenerator              build/stm32l5xx_hal_dma_ex.o
HAL_DMAEx_EnableMuxRequestGenerator               build/stm32l5xx_hal_dma_ex.o
HAL_DMAEx_MUX_IRQHandler                          build/stm32l5xx_hal_dma_ex.o
HAL_DMAEx_MultiBufferStart                        build/stm32l5xx_hal_dma_ex.o
HAL_DMAEx_MultiBufferStart_IT                     build/stm32l5xx_hal_dma_ex.o
HAL_DMA_Abort                                     build/stm32l5xx_hal_dma.o
                                                  build/stm32l5xx_hal_uart.o
HAL_DMA_Abort_IT                                  build/stm32l5xx_hal_dma.o
                                                  build/stm32l5xx_hal_uart.o
                                                  build/stm32l5xx_hal_i2c.o
HAL_DMA_ConfigChannelAttributes                   build/stm32l5xx_hal_dma.o
HAL_DMA_DeInit                                    build/stm32l5xx_hal_dma.o
HAL_DMA_GetConfigChannelAttributes                build/stm32l5xx_hal_dma.o
HAL_DMA_GetError                                  build/stm32l5xx_hal_dma.o
                                                  build/stm32l5xx_hal_uart.o
HAL_DMA_GetState                                  build/stm32l5xx_hal_dma.o
                                                  build/stm32l5xx_hal_i2c.o
HAL_DMA_IRQHandler                                build/stm32l5xx_hal_dma.o
HAL_DMA_Init                                      build/stm32l5xx_hal_dma.o
HAL_DMA_PollForTransfer                           build/stm32l5xx_hal_dma.o
HAL_DMA_RegisterCallback                          build/stm32l5xx_hal_dma.o
HAL_DMA_Start                                     build/stm32l5xx_hal_dma.o
HAL_DMA_Start_IT                                  build/stm32l5xx_hal_dma.o
                                                  build/stm32l5xx_hal_uart.o
                                                  build/stm32l5xx_hal_i2c.o
HAL_DMA_UnRegisterCallback                        build/stm32l5xx_hal_dma.o
HAL_DeInit                                        build/stm32l5xx_hal.o
HAL_Delay                                         build/stm32l5xx_hal.o
                                                  build/stm32l5xx_hal_pcd_ex.o
                                                  build/usbd_conf.o
                                                  build/is31fl3737.o
                                                  build/main.o
HAL_EXTI_ClearConfigLine                          build/stm32l5xx_hal_exti.o
HAL_EXTI_ClearPending                             build/stm32l5xx_hal_exti.o
HAL_EXTI_ConfigLineAttributes                     build/stm32l5xx_hal_exti.o
HAL_EXTI_GenerateSWI                              build/stm32l5xx_hal_exti.o
HAL_EXTI_GetConfigLine                            build/stm32l5xx_hal_exti.o
HAL_EXTI_GetConfigLineAttributes                  build/stm32l5xx_hal_exti.o
HAL_EXTI_GetHandle                                build/stm32l5xx_hal_exti.o
HAL_EXTI_GetPending                               build/stm32l5xx_hal_exti.o
HAL_EXTI_IRQHandler                               build/stm32l5xx_hal_exti.o
HAL_EXTI_RegisterCallback                         build/stm32l5xx_hal_exti.o
HAL_EXTI_SetConfigLine                            build/stm32l5xx_hal_exti.o
HAL_FLASHEx_ConfigLVEPin                          build/stm32l5xx_hal_flash_ex.o
HAL_FLASHEx_ConfigPrivMode                        build/stm32l5xx_hal_flash_ex.o
HAL_FLASHEx_DisableRunPowerDown                   build/stm32l5xx_hal_flash_ramfunc.o
HAL_FLASHEx_EnableRunPowerDown                    build/stm32l5xx_hal_flash_ramfunc.o
HAL_FLASHEx_Erase                                 build/stm32l5xx_hal_flash_ex.o
HAL_FLASHEx_Erase_IT                              build/stm32l5xx_hal_flash_ex.o
HAL_FLASHEx_GetLVEPin                             build/stm32l5xx_hal_flash_ex.o
HAL_FLASHEx_GetPrivMode                           build/stm32l5xx_hal_flash_ex.o
HAL_FLASHEx_OBGetConfig                           build/stm32l5xx_hal_flash_ex.o
HAL_FLASHEx_OBProgram                             build/stm32l5xx_hal_flash_ex.o
HAL_FLASHEx_OB_DBankConfig                        build/stm32l5xx_hal_flash_ramfunc.o
HAL_FLASH_EndOfOperationCallback                  build/stm32l5xx_hal_flash.o
HAL_FLASH_GetError                                build/stm32l5xx_hal_flash.o
HAL_FLASH_IRQHandler                              build/stm32l5xx_hal_flash.o
HAL_FLASH_Lock                                    build/stm32l5xx_hal_flash.o
HAL_FLASH_OB_Launch                               build/stm32l5xx_hal_flash.o
HAL_FLASH_OB_Lock                                 build/stm32l5xx_hal_flash.o
HAL_FLASH_OB_Unlock                               build/stm32l5xx_hal_flash.o
HAL_FLASH_OperationErrorCallback                  build/stm32l5xx_hal_flash.o
HAL_FLASH_Program                                 build/stm32l5xx_hal_flash.o
HAL_FLASH_Program_IT                              build/stm32l5xx_hal_flash.o
HAL_FLASH_Unlock                                  build/stm32l5xx_hal_flash.o
HAL_GPIO_DeInit                                   build/stm32l5xx_hal_gpio.o
                                                  build/usbd_conf.o
                                                  build/stm32l5xx_hal_msp.o
HAL_GPIO_EXTI_Falling_Callback                    build/stm32l5xx_hal_gpio.o
HAL_GPIO_EXTI_IRQHandler                          build/stm32l5xx_hal_gpio.o
HAL_GPIO_EXTI_Rising_Callback                     build/stm32l5xx_hal_gpio.o
HAL_GPIO_Init                                     build/stm32l5xx_hal_gpio.o
                                                  build/stm32l5xx_hal_rcc_ex.o
                                                  build/stm32l5xx_hal_rcc.o
                                                  build/usbd_conf.o
                                                  build/stm32l5xx_hal_msp.o
                                                  build/main.o
HAL_GPIO_LockPin                                  build/stm32l5xx_hal_gpio.o
HAL_GPIO_ReadPin                                  build/stm32l5xx_hal_gpio.o
                                                  build/keyboard.o
HAL_GPIO_TogglePin                                build/stm32l5xx_hal_gpio.o
HAL_GPIO_WritePin                                 build/stm32l5xx_hal_gpio.o
                                                  build/keyboard.o
                                                  build/main.o
HAL_GetDEVID                                      build/stm32l5xx_hal.o
HAL_GetHalVersion                                 build/stm32l5xx_hal.o
HAL_GetREVID                                      build/stm32l5xx_hal.o
HAL_GetTick                                       build/stm32l5xx_hal.o
                                                  build/stm32l5xx_hal_uart_ex.o
                                                  build/stm32l5xx_hal_uart.o
                                                  build/stm32l5xx_hal_icache.o
                                                  build/stm32l5xx_hal_dma.o
                                                  build/stm32l5xx_hal_flash.o
                                                  build/stm32l5xx_hal_rcc_ex.o
                                                  build/stm32l5xx_hal_rcc.o
                                                  build/stm32l5xx_hal_i2c.o
                                                  build/stm32l5xx_hal_pcd_ex.o
                                                  build/usbd_cdc_if.o
HAL_GetTickFreq                                   build/stm32l5xx_hal.o
HAL_GetTickPrio                                   build/stm32l5xx_hal.o
HAL_GetUIDw0                                      build/stm32l5xx_hal.o
HAL_GetUIDw1                                      build/stm32l5xx_hal.o
HAL_GetUIDw2                                      build/stm32l5xx_hal.o
HAL_HalfDuplex_EnableReceiver                     build/stm32l5xx_hal_uart.o
HAL_HalfDuplex_EnableTransmitter                  build/stm32l5xx_hal_uart.o
HAL_HalfDuplex_Init                               build/stm32l5xx_hal_uart.o
HAL_I2CEx_ConfigAnalogFilter                      build/stm32l5xx_hal_i2c_ex.o
                                                  build/main.o
HAL_I2CEx_ConfigDigitalFilter                     build/stm32l5xx_hal_i2c_ex.o
                                                  build/main.o
HAL_I2CEx_DisableFastModePlus                     build/stm32l5xx_hal_i2c_ex.o
HAL_I2CEx_DisableWakeUp                           build/stm32l5xx_hal_i2c_ex.o
HAL_I2CEx_EnableFastModePlus                      build/stm32l5xx_hal_i2c_ex.o
HAL_I2CEx_EnableWakeUp                            build/stm32l5xx_hal_i2c_ex.o
HAL_I2C_AbortCpltCallback                         build/stm32l5xx_hal_i2c.o
HAL_I2C_AddrCallback                              build/stm32l5xx_hal_i2c.o
HAL_I2C_DeInit                                    build/stm32l5xx_hal_i2c.o
HAL_I2C_DisableListen_IT                          build/stm32l5xx_hal_i2c.o
HAL_I2C_ER_IRQHandler                             build/stm32l5xx_hal_i2c.o
HAL_I2C_EV_IRQHandler                             build/stm32l5xx_hal_i2c.o
HAL_I2C_EnableListen_IT                           build/stm32l5xx_hal_i2c.o
HAL_I2C_ErrorCallback                             build/stm32l5xx_hal_i2c.o
HAL_I2C_GetError                                  build/stm32l5xx_hal_i2c.o
HAL_I2C_GetMode                                   build/stm32l5xx_hal_i2c.o
HAL_I2C_GetState                                  build/stm32l5xx_hal_i2c.o
HAL_I2C_Init                                      build/stm32l5xx_hal_i2c.o
                                                  build/main.o
HAL_I2C_IsDeviceReady                             build/stm32l5xx_hal_i2c.o
                                                  build/shell.o
HAL_I2C_ListenCpltCallback                        build/stm32l5xx_hal_i2c.o
HAL_I2C_MasterRxCpltCallback                      build/stm32l5xx_hal_i2c.o
HAL_I2C_MasterTxCpltCallback                      build/stm32l5xx_hal_i2c.o
HAL_I2C_Master_Abort_IT                           build/stm32l5xx_hal_i2c.o
HAL_I2C_Master_Receive                            build/stm32l5xx_hal_i2c.o
HAL_I2C_Master_Receive_DMA                        build/stm32l5xx_hal_i2c.o
HAL_I2C_Master_Receive_IT                         build/stm32l5xx_hal_i2c.o
HAL_I2C_Master_Seq_Receive_DMA                    build/stm32l5xx_hal_i2c.o
HAL_I2C_Master_Seq_Receive_IT                     build/stm32l5xx_hal_i2c.o
HAL_I2C_Master_Seq_Transmit_DMA                   build/stm32l5xx_hal_i2c.o
HAL_I2C_Master_Seq_Transmit_IT                    build/stm32l5xx_hal_i2c.o
HAL_I2C_Master_Transmit                           build/stm32l5xx_hal_i2c.o
                                                  build/is31fl3737.o
HAL_I2C_Master_Transmit_DMA                       build/stm32l5xx_hal_i2c.o
HAL_I2C_Master_Transmit_IT                        build/stm32l5xx_hal_i2c.o
HAL_I2C_MemRxCpltCallback                         build/stm32l5xx_hal_i2c.o
HAL_I2C_MemTxCpltCallback                         build/stm32l5xx_hal_i2c.o
HAL_I2C_Mem_Read                                  build/stm32l5xx_hal_i2c.o
HAL_I2C_Mem_Read_DMA                              build/stm32l5xx_hal_i2c.o
HAL_I2C_Mem_Read_IT                               build/stm32l5xx_hal_i2c.o
HAL_I2C_Mem_Write                                 build/stm32l5xx_hal_i2c.o
HAL_I2C_Mem_Write_DMA                             build/stm32l5xx_hal_i2c.o
HAL_I2C_Mem_Write_IT                              build/stm32l5xx_hal_i2c.o
HAL_I2C_MspDeInit                                 build/stm32l5xx_hal_msp.o
HAL_I2C_MspInit                                   build/stm32l5xx_hal_msp.o
HAL_I2C_SlaveRxCpltCallback                       build/stm32l5xx_hal_i2c.o
HAL_I2C_SlaveTxCpltCallback                       build/stm32l5xx_hal_i2c.o
HAL_I2C_Slave_Receive                             build/stm32l5xx_hal_i2c.o
HAL_I2C_Slave_Receive_DMA                         build/stm32l5xx_hal_i2c.o
HAL_I2C_Slave_Receive_IT                          build/stm32l5xx_hal_i2c.o
HAL_I2C_Slave_Seq_Receive_DMA                     build/stm32l5xx_hal_i2c.o
HAL_I2C_Slave_Seq_Receive_IT                      build/stm32l5xx_hal_i2c.o
HAL_I2C_Slave_Seq_Transmit_DMA                    build/stm32l5xx_hal_i2c.o
HAL_I2C_Slave_Seq_Transmit_IT                     build/stm32l5xx_hal_i2c.o
HAL_I2C_Slave_Transmit                            build/stm32l5xx_hal_i2c.o
HAL_I2C_Slave_Transmit_DMA                        build/stm32l5xx_hal_i2c.o
HAL_I2C_Slave_Transmit_IT                         build/stm32l5xx_hal_i2c.o
HAL_ICACHE_ConfigAssociativityMode                build/stm32l5xx_hal_icache.o
                                                  build/main.o
HAL_ICACHE_DeInit                                 build/stm32l5xx_hal_icache.o
HAL_ICACHE_Disable                                build/stm32l5xx_hal_icache.o
HAL_ICACHE_DisableRemapRegion                     build/stm32l5xx_hal_icache.o
HAL_ICACHE_Enable                                 build/stm32l5xx_hal_icache.o
                                                  build/main.o
HAL_ICACHE_EnableRemapRegion                      build/stm32l5xx_hal_icache.o
HAL_ICACHE_ErrorCallback                          build/stm32l5xx_hal_icache.o
HAL_ICACHE_IRQHandler                             build/stm32l5xx_hal_icache.o
HAL_ICACHE_Invalidate                             build/stm32l5xx_hal_icache.o
HAL_ICACHE_InvalidateCompleteCallback             build/stm32l5xx_hal_icache.o
HAL_ICACHE_Invalidate_IT                          build/stm32l5xx_hal_icache.o
HAL_ICACHE_IsEnabled                              build/stm32l5xx_hal_icache.o
HAL_ICACHE_Monitor_GetHitValue                    build/stm32l5xx_hal_icache.o
HAL_ICACHE_Monitor_GetMissValue                   build/stm32l5xx_hal_icache.o
HAL_ICACHE_Monitor_Reset                          build/stm32l5xx_hal_icache.o
HAL_ICACHE_Monitor_Start                          build/stm32l5xx_hal_icache.o
HAL_ICACHE_Monitor_Stop                           build/stm32l5xx_hal_icache.o
HAL_ICACHE_WaitForInvalidateComplete              build/stm32l5xx_hal_icache.o
HAL_IncTick                                       build/stm32l5xx_hal.o
                                                  build/stm32l5xx_it.o
HAL_Init                                          build/stm32l5xx_hal.o
                                                  build/main.o
HAL_InitTick                                      build/stm32l5xx_hal.o
                                                  build/stm32l5xx_hal_rcc.o
HAL_LIN_Init                                      build/stm32l5xx_hal_uart.o
HAL_LIN_SendBreak                                 build/stm32l5xx_hal_uart.o
HAL_MPU_ConfigMemoryAttributes                    build/stm32l5xx_hal_cortex.o
HAL_MPU_ConfigRegion                              build/stm32l5xx_hal_cortex.o
HAL_MPU_Disable                                   build/stm32l5xx_hal_cortex.o
HAL_MPU_Enable                                    build/stm32l5xx_hal_cortex.o
HAL_MspDeInit                                     build/stm32l5xx_hal.o
HAL_MspInit                                       build/stm32l5xx_hal_msp.o
HAL_MultiProcessorEx_AddressLength_Set            build/stm32l5xx_hal_uart_ex.o
HAL_MultiProcessor_DisableMuteMode                build/stm32l5xx_hal_uart.o
HAL_MultiProcessor_EnableMuteMode                 build/stm32l5xx_hal_uart.o
HAL_MultiProcessor_EnterMuteMode                  build/stm32l5xx_hal_uart.o
HAL_MultiProcessor_Init                           build/stm32l5xx_hal_uart.o
HAL_NVIC_ClearPendingIRQ                          build/stm32l5xx_hal_cortex.o
HAL_NVIC_DisableIRQ                               build/stm32l5xx_hal_cortex.o
                                                  build/usbd_conf.o
HAL_NVIC_EnableIRQ                                build/stm32l5xx_hal_cortex.o
                                                  build/usbd_conf.o
HAL_NVIC_GetActive                                build/stm32l5xx_hal_cortex.o
HAL_NVIC_GetPendingIRQ                            build/stm32l5xx_hal_cortex.o
HAL_NVIC_GetPriority                              build/stm32l5xx_hal_cortex.o
HAL_NVIC_GetPriorityGrouping                      build/stm32l5xx_hal_cortex.o
HAL_NVIC_SetPendingIRQ                            build/stm32l5xx_hal_cortex.o
HAL_NVIC_SetPriority                              build/stm32l5xx_hal_cortex.o
                                                  build/stm32l5xx_hal.o
                                                  build/usbd_conf.o
HAL_NVIC_SetPriorityGrouping                      build/stm32l5xx_hal_cortex.o
                                                  build/stm32l5xx_hal.o
HAL_NVIC_SystemReset                              build/stm32l5xx_hal_cortex.o
HAL_PCDEx_ActivateBCD                             build/stm32l5xx_hal_pcd_ex.o
HAL_PCDEx_ActivateLPM                             build/stm32l5xx_hal_pcd_ex.o
                                                  build/stm32l5xx_hal_pcd.o
HAL_PCDEx_BCD_Callback                            build/stm32l5xx_hal_pcd_ex.o
HAL_PCDEx_BCD_VBUSDetect                          build/stm32l5xx_hal_pcd_ex.o
HAL_PCDEx_DeActivateBCD                           build/stm32l5xx_hal_pcd_ex.o
HAL_PCDEx_DeActivateLPM                           build/stm32l5xx_hal_pcd_ex.o
HAL_PCDEx_LPM_Callback                            build/usbd_conf.o
                                                  build/stm32l5xx_hal_pcd.o
HAL_PCDEx_PMAConfig                               build/stm32l5xx_hal_pcd_ex.o
                                                  build/usbd_conf.o
HAL_PCD_ActivateRemoteWakeup                      build/stm32l5xx_hal_pcd.o
HAL_PCD_ConnectCallback                           build/usbd_conf.o
HAL_PCD_DataInStageCallback                       build/usbd_conf.o
HAL_PCD_DataOutStageCallback                      build/usbd_conf.o
HAL_PCD_DeActivateRemoteWakeup                    build/stm32l5xx_hal_pcd.o
HAL_PCD_DeInit                                    build/stm32l5xx_hal_pcd.o
                                                  build/usbd_conf.o
HAL_PCD_DevConnect                                build/stm32l5xx_hal_pcd.o
HAL_PCD_DevDisconnect                             build/stm32l5xx_hal_pcd.o
HAL_PCD_DisconnectCallback                        build/usbd_conf.o
HAL_PCD_EP_Abort                                  build/stm32l5xx_hal_pcd.o
HAL_PCD_EP_Close                                  build/stm32l5xx_hal_pcd.o
                                                  build/usbd_conf.o
HAL_PCD_EP_ClrStall                               build/stm32l5xx_hal_pcd.o
                                                  build/usbd_conf.o
HAL_PCD_EP_Flush                                  build/stm32l5xx_hal_pcd.o
                                                  build/usbd_conf.o
HAL_PCD_EP_GetRxCount                             build/stm32l5xx_hal_pcd.o
                                                  build/usbd_conf.o
HAL_PCD_EP_Open                                   build/stm32l5xx_hal_pcd.o
                                                  build/usbd_conf.o
HAL_PCD_EP_Receive                                build/stm32l5xx_hal_pcd.o
                                                  build/usbd_conf.o
HAL_PCD_EP_SetStall                               build/stm32l5xx_hal_pcd.o
                                                  build/usbd_conf.o
HAL_PCD_EP_Transmit                               build/stm32l5xx_hal_pcd.o
                                                  build/usbd_conf.o
HAL_PCD_GetState                                  build/stm32l5xx_hal_pcd.o
HAL_PCD_IRQHandler                                build/stm32l5xx_hal_pcd.o
                                                  build/stm32l5xx_it.o
HAL_PCD_ISOINIncompleteCallback                   build/usbd_conf.o
HAL_PCD_ISOOUTIncompleteCallback                  build/usbd_conf.o
HAL_PCD_Init                                      build/stm32l5xx_hal_pcd.o
                                                  build/usbd_conf.o
HAL_PCD_MspDeInit                                 build/usbd_conf.o
HAL_PCD_MspInit                                   build/usbd_conf.o
HAL_PCD_ResetCallback                             build/usbd_conf.o
HAL_PCD_ResumeCallback                            build/usbd_conf.o
HAL_PCD_SOFCallback                               build/usbd_conf.o
HAL_PCD_SetAddress                                build/stm32l5xx_hal_pcd.o
                                                  build/usbd_conf.o
HAL_PCD_SetupStageCallback                        build/usbd_conf.o
HAL_PCD_Start                                     build/stm32l5xx_hal_pcd.o
                                                  build/usbd_conf.o
HAL_PCD_Stop                                      build/stm32l5xx_hal_pcd.o
                                                  build/usbd_conf.o
HAL_PCD_SuspendCallback                           build/usbd_conf.o
HAL_PWREx_ConfigPVM                               build/stm32l5xx_hal_pwr_ex.o
HAL_PWREx_ConfigSRAM2ContentRetention             build/stm32l5xx_hal_pwr_ex.o
HAL_PWREx_ControlVoltageScaling                   build/stm32l5xx_hal_pwr_ex.o
                                                  build/main.o
HAL_PWREx_DisableBatteryCharging                  build/stm32l5xx_hal_pwr_ex.o
HAL_PWREx_DisableGPIOPullDown                     build/stm32l5xx_hal_pwr_ex.o
HAL_PWREx_DisableGPIOPullUp                       build/stm32l5xx_hal_pwr_ex.o
HAL_PWREx_DisableLowPowerRunMode                  build/stm32l5xx_hal_pwr_ex.o
                                                  build/stm32l5xx_hal_pwr.o
HAL_PWREx_DisablePVM1                             build/stm32l5xx_hal_pwr_ex.o
HAL_PWREx_DisablePVM2                             build/stm32l5xx_hal_pwr_ex.o
HAL_PWREx_DisablePVM3                             build/stm32l5xx_hal_pwr_ex.o
HAL_PWREx_DisablePVM4                             build/stm32l5xx_hal_pwr_ex.o
HAL_PWREx_DisablePullUpPullDownConfig             build/stm32l5xx_hal_pwr_ex.o
HAL_PWREx_DisableSRAM2ContentRetention            build/stm32l5xx_hal_pwr_ex.o
HAL_PWREx_DisableUCPDDeadBattery                  build/stm32l5xx_hal_pwr_ex.o
                                                  build/stm32l5xx_hal_msp.o
HAL_PWREx_DisableUCPDStandbyMode                  build/stm32l5xx_hal_pwr_ex.o
HAL_PWREx_DisableUltraLowPowerMode                build/stm32l5xx_hal_pwr_ex.o
HAL_PWREx_DisableVddIO2                           build/stm32l5xx_hal_pwr_ex.o
HAL_PWREx_DisableVddUSB                           build/stm32l5xx_hal_pwr_ex.o
HAL_PWREx_EnableBatteryCharging                   build/stm32l5xx_hal_pwr_ex.o
HAL_PWREx_EnableGPIOPullDown                      build/stm32l5xx_hal_pwr_ex.o
HAL_PWREx_EnableGPIOPullUp                        build/stm32l5xx_hal_pwr_ex.o
HAL_PWREx_EnableLowPowerRunMode                   build/stm32l5xx_hal_pwr_ex.o
                                                  build/stm32l5xx_hal_pwr.o
HAL_PWREx_EnablePVM1                              build/stm32l5xx_hal_pwr_ex.o
HAL_PWREx_EnablePVM2                              build/stm32l5xx_hal_pwr_ex.o
HAL_PWREx_EnablePVM3                              build/stm32l5xx_hal_pwr_ex.o
HAL_PWREx_EnablePVM4                              build/stm32l5xx_hal_pwr_ex.o
HAL_PWREx_EnablePullUpPullDownConfig              build/stm32l5xx_hal_pwr_ex.o
HAL_PWREx_EnableSRAM2ContentRetention             build/stm32l5xx_hal_pwr_ex.o
HAL_PWREx_EnableUCPDDeadBattery                   build/stm32l5xx_hal_pwr_ex.o
HAL_PWREx_EnableUCPDStandbyMode                   build/stm32l5xx_hal_pwr_ex.o
HAL_PWREx_EnableUltraLowPowerMode                 build/stm32l5xx_hal_pwr_ex.o
HAL_PWREx_EnableVddIO2                            build/stm32l5xx_hal_pwr_ex.o
HAL_PWREx_EnableVddUSB                            build/stm32l5xx_hal_pwr_ex.o
                                                  build/usbd_conf.o
HAL_PWREx_EnterSHUTDOWNMode                       build/stm32l5xx_hal_pwr_ex.o
HAL_PWREx_EnterSTOP0Mode                          build/stm32l5xx_hal_pwr_ex.o
                                                  build/stm32l5xx_hal_pwr.o
HAL_PWREx_EnterSTOP1Mode                          build/stm32l5xx_hal_pwr_ex.o
                                                  build/stm32l5xx_hal_pwr.o
HAL_PWREx_EnterSTOP2Mode                          build/stm32l5xx_hal_pwr_ex.o
HAL_PWREx_GetVoltageRange                         build/stm32l5xx_hal_pwr_ex.o
                                                  build/stm32l5xx_hal_flash_ex.o
                                                  build/stm32l5xx_hal_rcc.o
HAL_PWREx_PVD_PVM_IRQHandler                      build/stm32l5xx_hal_pwr_ex.o
HAL_PWREx_PVM1Callback                            build/stm32l5xx_hal_pwr_ex.o
HAL_PWREx_PVM2Callback                            build/stm32l5xx_hal_pwr_ex.o
HAL_PWREx_PVM3Callback                            build/stm32l5xx_hal_pwr_ex.o
HAL_PWREx_PVM4Callback                            build/stm32l5xx_hal_pwr_ex.o
HAL_PWREx_SMPS_DisableBypassMode                  build/stm32l5xx_hal_pwr_ex.o
HAL_PWREx_SMPS_DisableExternal                    build/stm32l5xx_hal_pwr_ex.o
HAL_PWREx_SMPS_DisableFastStart                   build/stm32l5xx_hal_pwr_ex.o
HAL_PWREx_SMPS_EnableBypassMode                   build/stm32l5xx_hal_pwr_ex.o
HAL_PWREx_SMPS_EnableExternal                     build/stm32l5xx_hal_pwr_ex.o
HAL_PWREx_SMPS_EnableFastStart                    build/stm32l5xx_hal_pwr_ex.o
HAL_PWREx_SMPS_GetEffectiveMode                   build/stm32l5xx_hal_pwr_ex.o
HAL_PWREx_SMPS_GetMainRegulatorExtSMPSReadyStatus build/stm32l5xx_hal_pwr_ex.o
HAL_PWREx_SMPS_SetMode                            build/stm32l5xx_hal_pwr_ex.o
HAL_PWR_ConfigAttributes                          build/stm32l5xx_hal_pwr.o
HAL_PWR_ConfigPVD                                 build/stm32l5xx_hal_pwr.o
HAL_PWR_DeInit                                    build/stm32l5xx_hal_pwr.o
HAL_PWR_DisableBkUpAccess                         build/stm32l5xx_hal_pwr.o
                                                  build/stm32l5xx_hal_rcc_ex.o
HAL_PWR_DisablePVD                                build/stm32l5xx_hal_pwr.o
HAL_PWR_DisableSEVOnPend                          build/stm32l5xx_hal_pwr.o
HAL_PWR_DisableSleepOnExit                        build/stm32l5xx_hal_pwr.o
HAL_PWR_DisableWakeUpPin                          build/stm32l5xx_hal_pwr.o
HAL_PWR_EnableBkUpAccess                          build/stm32l5xx_hal_pwr.o
                                                  build/stm32l5xx_hal_rcc_ex.o
HAL_PWR_EnablePVD                                 build/stm32l5xx_hal_pwr.o
HAL_PWR_EnableSEVOnPend                           build/stm32l5xx_hal_pwr.o
HAL_PWR_EnableSleepOnExit                         build/stm32l5xx_hal_pwr.o
HAL_PWR_EnableWakeUpPin                           build/stm32l5xx_hal_pwr.o
HAL_PWR_EnterSLEEPMode                            build/stm32l5xx_hal_pwr.o
HAL_PWR_EnterSTANDBYMode                          build/stm32l5xx_hal_pwr.o
HAL_PWR_EnterSTOPMode                             build/stm32l5xx_hal_pwr.o
HAL_PWR_GetConfigAttributes                       build/stm32l5xx_hal_pwr.o
HAL_PWR_PVDCallback                               build/stm32l5xx_hal_pwr.o
                                                  build/stm32l5xx_hal_pwr_ex.o
HAL_RCCEx_CRSConfig                               build/stm32l5xx_hal_rcc_ex.o
HAL_RCCEx_CRSGetSynchronizationInfo               build/stm32l5xx_hal_rcc_ex.o
HAL_RCCEx_CRSSoftwareSynchronizationGenerate      build/stm32l5xx_hal_rcc_ex.o
HAL_RCCEx_CRSWaitSynchronization                  build/stm32l5xx_hal_rcc_ex.o
HAL_RCCEx_CRS_ErrorCallback                       build/stm32l5xx_hal_rcc_ex.o
HAL_RCCEx_CRS_ExpectedSyncCallback                build/stm32l5xx_hal_rcc_ex.o
HAL_RCCEx_CRS_IRQHandler                          build/stm32l5xx_hal_rcc_ex.o
HAL_RCCEx_CRS_SyncOkCallback                      build/stm32l5xx_hal_rcc_ex.o
HAL_RCCEx_CRS_SyncWarnCallback                    build/stm32l5xx_hal_rcc_ex.o
HAL_RCCEx_DisableLSCO                             build/stm32l5xx_hal_rcc_ex.o
HAL_RCCEx_DisableLSECSS                           build/stm32l5xx_hal_rcc_ex.o
HAL_RCCEx_DisableMSIPLLMode                       build/stm32l5xx_hal_rcc_ex.o
HAL_RCCEx_DisablePLLSAI1                          build/stm32l5xx_hal_rcc_ex.o
HAL_RCCEx_DisablePLLSAI2                          build/stm32l5xx_hal_rcc_ex.o
HAL_RCCEx_EnableLSCO                              build/stm32l5xx_hal_rcc_ex.o
HAL_RCCEx_EnableLSECSS                            build/stm32l5xx_hal_rcc_ex.o
HAL_RCCEx_EnableMSIPLLMode                        build/stm32l5xx_hal_rcc_ex.o
HAL_RCCEx_EnablePLLSAI1                           build/stm32l5xx_hal_rcc_ex.o
HAL_RCCEx_EnablePLLSAI2                           build/stm32l5xx_hal_rcc_ex.o
HAL_RCCEx_GetPeriphCLKConfig                      build/stm32l5xx_hal_rcc_ex.o
HAL_RCCEx_GetPeriphCLKFreq                        build/stm32l5xx_hal_rcc_ex.o
HAL_RCCEx_LSECSS_Callback                         build/stm32l5xx_hal_rcc_ex.o
HAL_RCCEx_LSECSS_IRQHandler                       build/stm32l5xx_hal_rcc_ex.o
HAL_RCCEx_PeriphCLKConfig                         build/stm32l5xx_hal_rcc_ex.o
                                                  build/usbd_conf.o
                                                  build/stm32l5xx_hal_msp.o
HAL_RCCEx_StandbyMSIRangeConfig                   build/stm32l5xx_hal_rcc_ex.o
HAL_RCCEx_WakeUpStopCLKConfig                     build/stm32l5xx_hal_rcc_ex.o
HAL_RCC_CSSCallback                               build/stm32l5xx_hal_rcc.o
HAL_RCC_ClockConfig                               build/stm32l5xx_hal_rcc.o
                                                  build/main.o
HAL_RCC_ConfigAttributes                          build/stm32l5xx_hal_rcc.o
HAL_RCC_DeInit                                    build/stm32l5xx_hal_rcc.o
HAL_RCC_EnableCSS                                 build/stm32l5xx_hal_rcc.o
HAL_RCC_GetClockConfig                            build/stm32l5xx_hal_rcc.o
HAL_RCC_GetConfigAttributes                       build/stm32l5xx_hal_rcc.o
HAL_RCC_GetHCLKFreq                               build/stm32l5xx_hal_rcc.o
HAL_RCC_GetOscConfig                              build/stm32l5xx_hal_rcc.o
HAL_RCC_GetPCLK1Freq                              build/stm32l5xx_hal_rcc.o
                                                  build/stm32l5xx_hal_uart.o
                                                  build/stm32l5xx_hal_rcc_ex.o
HAL_RCC_GetPCLK2Freq                              build/stm32l5xx_hal_rcc.o
                                                  build/stm32l5xx_hal_uart.o
                                                  build/stm32l5xx_hal_rcc_ex.o
HAL_RCC_GetResetSource                            build/stm32l5xx_hal_rcc.o
HAL_RCC_GetSysClockFreq                           build/stm32l5xx_hal_rcc.o
                                                  build/stm32l5xx_hal_uart.o
                                                  build/stm32l5xx_hal_rcc_ex.o
HAL_RCC_MCOConfig                                 build/stm32l5xx_hal_rcc.o
HAL_RCC_NMI_IRQHandler                            build/stm32l5xx_hal_rcc.o
HAL_RCC_OscConfig                                 build/stm32l5xx_hal_rcc.o
                                                  build/main.o
HAL_RS485Ex_Init                                  build/stm32l5xx_hal_uart_ex.o
HAL_ResumeTick                                    build/stm32l5xx_hal.o
HAL_SYSCFG_DisableIOAnalogBooster                 build/stm32l5xx_hal.o
HAL_SYSCFG_DisableIOAnalogSwitchVdd               build/stm32l5xx_hal.o
HAL_SYSCFG_DisableVREFBUF                         build/stm32l5xx_hal.o
HAL_SYSCFG_EnableIOAnalogBooster                  build/stm32l5xx_hal.o
HAL_SYSCFG_EnableIOAnalogSwitchVdd                build/stm32l5xx_hal.o
HAL_SYSCFG_EnableVREFBUF                          build/stm32l5xx_hal.o
HAL_SYSCFG_GetLock                                build/stm32l5xx_hal.o
HAL_SYSCFG_Lock                                   build/stm32l5xx_hal.o
HAL_SYSCFG_SRAM2Erase                             build/stm32l5xx_hal.o
HAL_SYSCFG_VREFBUF_HighImpedanceConfig            build/stm32l5xx_hal.o
HAL_SYSCFG_VREFBUF_TrimmingConfig                 build/stm32l5xx_hal.o
HAL_SYSCFG_VREFBUF_VoltageScalingConfig           build/stm32l5xx_hal.o
HAL_SYSTICK_CLKSourceConfig                       build/stm32l5xx_hal_cortex.o
HAL_SYSTICK_Callback                              build/stm32l5xx_hal_cortex.o
HAL_SYSTICK_Config                                build/stm32l5xx_hal_cortex.o
                                                  build/stm32l5xx_hal.o
HAL_SYSTICK_IRQHandler                            build/stm32l5xx_hal_cortex.o
HAL_SetTickFreq                                   build/stm32l5xx_hal.o
HAL_SuspendTick                                   build/stm32l5xx_hal.o
HAL_UARTEx_DisableFifoMode                        build/stm32l5xx_hal_uart_ex.o
                                                  build/main.o
HAL_UARTEx_DisableStopMode                        build/stm32l5xx_hal_uart_ex.o
HAL_UARTEx_EnableFifoMode                         build/stm32l5xx_hal_uart_ex.o
HAL_UARTEx_EnableStopMode                         build/stm32l5xx_hal_uart_ex.o
HAL_UARTEx_GetRxEventType                         build/stm32l5xx_hal_uart_ex.o
HAL_UARTEx_ReceiveToIdle                          build/stm32l5xx_hal_uart_ex.o
HAL_UARTEx_ReceiveToIdle_DMA                      build/stm32l5xx_hal_uart_ex.o
HAL_UARTEx_ReceiveToIdle_IT                       build/stm32l5xx_hal_uart_ex.o
HAL_UARTEx_RxEventCallback                        build/stm32l5xx_hal_uart.o
HAL_UARTEx_RxFifoFullCallback                     build/stm32l5xx_hal_uart_ex.o
                                                  build/stm32l5xx_hal_uart.o
HAL_UARTEx_SetRxFifoThreshold                     build/stm32l5xx_hal_uart_ex.o
                                                  build/main.o
HAL_UARTEx_SetTxFifoThreshold                     build/stm32l5xx_hal_uart_ex.o
                                                  build/main.o
HAL_UARTEx_StopModeWakeUpSourceConfig             build/stm32l5xx_hal_uart_ex.o
HAL_UARTEx_TxFifoEmptyCallback                    build/stm32l5xx_hal_uart_ex.o
                                                  build/stm32l5xx_hal_uart.o
HAL_UARTEx_WakeupCallback                         build/stm32l5xx_hal_uart_ex.o
                                                  build/stm32l5xx_hal_uart.o
HAL_UART_Abort                                    build/stm32l5xx_hal_uart.o
HAL_UART_AbortCpltCallback                        build/stm32l5xx_hal_uart.o
HAL_UART_AbortReceive                             build/stm32l5xx_hal_uart.o
HAL_UART_AbortReceiveCpltCallback                 build/stm32l5xx_hal_uart.o
HAL_UART_AbortReceive_IT                          build/stm32l5xx_hal_uart.o
HAL_UART_AbortTransmit                            build/stm32l5xx_hal_uart.o
HAL_UART_AbortTransmitCpltCallback                build/stm32l5xx_hal_uart.o
HAL_UART_AbortTransmit_IT                         build/stm32l5xx_hal_uart.o
HAL_UART_Abort_IT                                 build/stm32l5xx_hal_uart.o
HAL_UART_DMAPause                                 build/stm32l5xx_hal_uart.o
HAL_UART_DMAResume                                build/stm32l5xx_hal_uart.o
HAL_UART_DMAStop                                  build/stm32l5xx_hal_uart.o
HAL_UART_DeInit                                   build/stm32l5xx_hal_uart.o
HAL_UART_DisableReceiverTimeout                   build/stm32l5xx_hal_uart.o
HAL_UART_EnableReceiverTimeout                    build/stm32l5xx_hal_uart.o
HAL_UART_ErrorCallback                            build/stm32l5xx_hal_uart.o
HAL_UART_GetError                                 build/stm32l5xx_hal_uart.o
HAL_UART_GetState                                 build/stm32l5xx_hal_uart.o
HAL_UART_IRQHandler                               build/stm32l5xx_hal_uart.o
HAL_UART_Init                                     build/stm32l5xx_hal_uart.o
                                                  build/main.o
HAL_UART_MspDeInit                                build/stm32l5xx_hal_msp.o
HAL_UART_MspInit                                  build/stm32l5xx_hal_msp.o
                                                  build/stm32l5xx_hal_uart_ex.o
HAL_UART_Receive                                  build/stm32l5xx_hal_uart.o
HAL_UART_Receive_DMA                              build/stm32l5xx_hal_uart.o
HAL_UART_Receive_IT                               build/stm32l5xx_hal_uart.o
HAL_UART_ReceiverTimeout_Config                   build/stm32l5xx_hal_uart.o
HAL_UART_RxCpltCallback                           build/stm32l5xx_hal_uart.o
HAL_UART_RxHalfCpltCallback                       build/stm32l5xx_hal_uart.o
HAL_UART_Transmit                                 build/stm32l5xx_hal_uart.o
HAL_UART_Transmit_DMA                             build/stm32l5xx_hal_uart.o
HAL_UART_Transmit_IT                              build/stm32l5xx_hal_uart.o
HAL_UART_TxCpltCallback                           build/stm32l5xx_hal_uart.o
HAL_UART_TxHalfCpltCallback                       build/stm32l5xx_hal_uart.o
HASH_IRQHandler                                   build/startup_stm32l562xx.o
HardFault_Handler                                 build/stm32l5xx_it.o
I2C1_ER_IRQHandler                                build/startup_stm32l562xx.o
I2C1_EV_IRQHandler                                build/startup_stm32l562xx.o
I2C2_ER_IRQHandler                                build/startup_stm32l562xx.o
I2C2_EV_IRQHandler                                build/startup_stm32l562xx.o
I2C3_ER_IRQHandler                                build/startup_stm32l562xx.o
I2C3_EV_IRQHandler                                build/startup_stm32l562xx.o
I2C4_ER_IRQHandler                                build/startup_stm32l562xx.o
I2C4_EV_IRQHandler                                build/startup_stm32l562xx.o
ICACHE_IRQHandler                                 build/startup_stm32l562xx.o
IS31FL3737_init                                   build/is31fl3737.o
                                                  build/shell.o
                                                  build/main.o
IS31FL3737_set_color                              build/is31fl3737.o
IS31FL3737_set_color_all                          build/is31fl3737.o
IS31FL3737_set_led_control_register               build/is31fl3737.o
IS31FL3737_update_led_control_registers           build/is31fl3737.o
IS31FL3737_update_pwm_buffers                     build/is31fl3737.o
IS31FL3737_write_pwm_buffer                       build/is31fl3737.o
IS31FL3737_write_register                         build/is31fl3737.o
                                                  build/shell.o
LPTIM1_IRQHandler                                 build/startup_stm32l562xx.o
LPTIM2_IRQHandler                                 build/startup_stm32l562xx.o
LPTIM3_IRQHandler                                 build/startup_stm32l562xx.o
LPUART1_IRQHandler                                build/startup_stm32l562xx.o
MSIRangeTable                                     build/system_stm32l5xx.o
                                                  build/stm32l5xx_hal_rcc_ex.o
                                                  build/stm32l5xx_hal_rcc.o
MX_USB_Device_Init                                build/usb_device.o
                                                  build/main.o
MemManage_Handler                                 build/stm32l5xx_it.o
NMI_Handler                                       build/stm32l5xx_it.o
OCTOSPI1_IRQHandler                               build/startup_stm32l562xx.o
OTFDEC1_IRQHandler                                build/startup_stm32l562xx.o
PKA_IRQHandler                                    build/startup_stm32l562xx.o
PVD_PVM_IRQHandler                                build/startup_stm32l562xx.o
PendSV_Handler                                    build/stm32l5xx_it.o
RCC_IRQHandler                                    build/startup_stm32l562xx.o
RCC_S_IRQHandler                                  build/startup_stm32l562xx.o
RNG_IRQHandler                                    build/startup_stm32l562xx.o
RTC_IRQHandler                                    build/startup_stm32l562xx.o
RTC_S_IRQHandler                                  build/startup_stm32l562xx.o
Reset_Handler                                     build/startup_stm32l562xx.o
SAI1_IRQHandler                                   build/startup_stm32l562xx.o
SAI2_IRQHandler                                   build/startup_stm32l562xx.o
SDMMC1_IRQHandler                                 build/startup_stm32l562xx.o
SPI1_IRQHandler                                   build/startup_stm32l562xx.o
SPI2_IRQHandler                                   build/startup_stm32l562xx.o
SPI3_IRQHandler                                   build/startup_stm32l562xx.o
SVC_Handler                                       build/stm32l5xx_it.o
SecureFault_Handler                               build/startup_stm32l562xx.o
SysTick_Handler                                   build/stm32l5xx_it.o
SystemClock_Config                                build/main.o
                                                  build/usbd_conf.o
SystemCoreClock                                   build/system_stm32l5xx.o
                                                  build/stm32l5xx_hal_pwr_ex.o
                                                  build/stm32l5xx_hal_flash_ramfunc.o
                                                  build/stm32l5xx_hal_rcc.o
                                                  build/stm32l5xx_hal.o
SystemCoreClockUpdate                             build/system_stm32l5xx.o
                                                  build/stm32l5xx_hal.o
SystemInit                                        build/system_stm32l5xx.o
                                                  build/startup_stm32l562xx.o
TAMP_IRQHandler                                   build/startup_stm32l562xx.o
TAMP_S_IRQHandler                                 build/startup_stm32l562xx.o
TIM15_IRQHandler                                  build/startup_stm32l562xx.o
TIM16_IRQHandler                                  build/startup_stm32l562xx.o
TIM17_IRQHandler                                  build/startup_stm32l562xx.o
TIM1_BRK_IRQHandler                               build/startup_stm32l562xx.o
TIM1_CC_IRQHandler                                build/startup_stm32l562xx.o
TIM1_TRG_COM_IRQHandler                           build/startup_stm32l562xx.o
TIM1_UP_IRQHandler                                build/startup_stm32l562xx.o
TIM2_IRQHandler                                   build/startup_stm32l562xx.o
TIM3_IRQHandler                                   build/startup_stm32l562xx.o
TIM4_IRQHandler                                   build/startup_stm32l562xx.o
TIM5_IRQHandler                                   build/startup_stm32l562xx.o
TIM6_IRQHandler                                   build/startup_stm32l562xx.o
TIM7_IRQHandler                                   build/startup_stm32l562xx.o
TIM8_BRK_IRQHandler                               build/startup_stm32l562xx.o
TIM8_CC_IRQHandler                                build/startup_stm32l562xx.o
TIM8_TRG_COM_IRQHandler                           build/startup_stm32l562xx.o
TIM8_UP_IRQHandler                                build/startup_stm32l562xx.o
TSC_IRQHandler                                    build/startup_stm32l562xx.o
UART4_IRQHandler                                  build/startup_stm32l562xx.o
UART5_IRQHandler                                  build/startup_stm32l562xx.o
UARTPrescTable                                    build/stm32l5xx_hal_uart.o
UART_AdvFeatureConfig                             build/stm32l5xx_hal_uart.o
                                                  build/stm32l5xx_hal_uart_ex.o
UART_CheckIdleState                               build/stm32l5xx_hal_uart.o
                                                  build/stm32l5xx_hal_uart_ex.o
UART_SetConfig                                    build/stm32l5xx_hal_uart.o
                                                  build/stm32l5xx_hal_uart_ex.o
UART_Start_Receive_DMA                            build/stm32l5xx_hal_uart.o
                                                  build/stm32l5xx_hal_uart_ex.o
UART_Start_Receive_IT                             build/stm32l5xx_hal_uart.o
                                                  build/stm32l5xx_hal_uart_ex.o
UART_WaitOnFlagUntilTimeout                       build/stm32l5xx_hal_uart.o
                                                  build/stm32l5xx_hal_uart_ex.o
UCPD1_IRQHandler                                  build/startup_stm32l562xx.o
USART1_IRQHandler                                 build/startup_stm32l562xx.o
USART2_IRQHandler                                 build/startup_stm32l562xx.o
USART3_IRQHandler                                 build/startup_stm32l562xx.o
USBD_CDC                                          build/usbd_cdc.o
                                                  build/usb_device.o
USBD_CDC_ConfigStrDescriptor                      build/usbd_desc.o
USBD_CDC_DeviceDesc                               build/usbd_desc.o
USBD_CDC_DeviceDescriptor                         build/usbd_desc.o
USBD_CDC_GetDeviceQualifierDescriptor             build/usbd_cdc.o
USBD_CDC_InterfaceStrDescriptor                   build/usbd_desc.o
USBD_CDC_LangIDStrDescriptor                      build/usbd_desc.o
USBD_CDC_ManufacturerStrDescriptor                build/usbd_desc.o
USBD_CDC_ProductStrDescriptor                     build/usbd_desc.o
USBD_CDC_ReceivePacket                            build/usbd_cdc.o
                                                  build/usbd_cdc_if.o
USBD_CDC_RegisterInterface                        build/usbd_cdc.o
                                                  build/usb_device.o
USBD_CDC_SerialStrDescriptor                      build/usbd_desc.o
USBD_CDC_SetRxBuffer                              build/usbd_cdc.o
                                                  build/usbd_cdc_if.o
USBD_CDC_SetTxBuffer                              build/usbd_cdc.o
                                                  build/usbd_cdc_if.o
USBD_CDC_TransmitPacket                           build/usbd_cdc.o
                                                  build/usbd_cdc_if.o
USBD_ClrClassConfig                               build/usbd_core.o
                                                  build/usbd_ctlreq.o
USBD_CoreFindEP                                   build/usbd_core.o
                                                  build/usbd_ctlreq.o
USBD_CoreFindIF                                   build/usbd_core.o
                                                  build/usbd_ctlreq.o
USBD_CtlContinueRx                                build/usbd_ioreq.o
                                                  build/usbd_core.o
USBD_CtlContinueSendData                          build/usbd_ioreq.o
                                                  build/usbd_core.o
USBD_CtlError                                     build/usbd_ctlreq.o
                                                  build/usbd_cdc.o
USBD_CtlPrepareRx                                 build/usbd_ioreq.o
                                                  build/usbd_cdc.o
USBD_CtlReceiveStatus                             build/usbd_ioreq.o
                                                  build/usbd_core.o
USBD_CtlSendData                                  build/usbd_ioreq.o
                                                  build/usbd_cdc.o
                                                  build/usbd_ctlreq.o
USBD_CtlSendStatus                                build/usbd_ioreq.o
                                                  build/usbd_ctlreq.o
                                                  build/usbd_core.o
USBD_DeInit                                       build/usbd_core.o
USBD_GetEpDesc                                    build/usbd_core.o
                                                  build/usbd_cdc.o
USBD_GetNextDesc                                  build/usbd_core.o
USBD_GetRxCount                                   build/usbd_ioreq.o
USBD_GetString                                    build/usbd_ctlreq.o
                                                  build/usbd_desc.o
USBD_Init                                         build/usbd_core.o
                                                  build/usb_device.o
USBD_Interface_fops_FS                            build/usbd_cdc_if.o
                                                  build/usb_device.o
USBD_LL_ClearStallEP                              build/usbd_conf.o
                                                  build/usbd_ctlreq.o
USBD_LL_CloseEP                                   build/usbd_conf.o
                                                  build/usbd_cdc.o
USBD_LL_DataInStage                               build/usbd_core.o
                                                  build/usbd_conf.o
USBD_LL_DataOutStage                              build/usbd_core.o
                                                  build/usbd_conf.o
USBD_LL_DeInit                                    build/usbd_conf.o
                                                  build/usbd_core.o
USBD_LL_Delay                                     build/usbd_conf.o
USBD_LL_DevConnected                              build/usbd_core.o
                                                  build/usbd_conf.o
USBD_LL_DevDisconnected                           build/usbd_core.o
                                                  build/usbd_conf.o
USBD_LL_FlushEP                                   build/usbd_conf.o
USBD_LL_GetRxDataSize                             build/usbd_conf.o
                                                  build/usbd_cdc.o
                                                  build/usbd_ioreq.o
USBD_LL_Init                                      build/usbd_conf.o
                                                  build/usbd_core.o
USBD_LL_IsStallEP                                 build/usbd_conf.o
                                                  build/usbd_ctlreq.o
USBD_LL_IsoINIncomplete                           build/usbd_core.o
                                                  build/usbd_conf.o
USBD_LL_IsoOUTIncomplete                          build/usbd_core.o
                                                  build/usbd_conf.o
USBD_LL_OpenEP                                    build/usbd_conf.o
                                                  build/usbd_cdc.o
                                                  build/usbd_core.o
USBD_LL_PrepareReceive                            build/usbd_conf.o
                                                  build/usbd_cdc.o
                                                  build/usbd_ioreq.o
                                                  build/usbd_core.o
USBD_LL_Reset                                     build/usbd_core.o
                                                  build/usbd_conf.o
USBD_LL_Resume                                    build/usbd_core.o
                                                  build/usbd_conf.o
USBD_LL_SOF                                       build/usbd_core.o
                                                  build/usbd_conf.o
USBD_LL_SetSpeed                                  build/usbd_core.o
                                                  build/usbd_conf.o
USBD_LL_SetUSBAddress                             build/usbd_conf.o
                                                  build/usbd_ctlreq.o
USBD_LL_SetupStage                                build/usbd_core.o
                                                  build/usbd_conf.o
USBD_LL_StallEP                                   build/usbd_conf.o
                                                  build/usbd_ctlreq.o
                                                  build/usbd_core.o
USBD_LL_Start                                     build/usbd_conf.o
                                                  build/usbd_core.o
USBD_LL_Stop                                      build/usbd_conf.o
                                                  build/usbd_core.o
USBD_LL_Suspend                                   build/usbd_core.o
                                                  build/usbd_conf.o
USBD_LL_Transmit                                  build/usbd_conf.o
                                                  build/usbd_cdc.o
                                                  build/usbd_ioreq.o
USBD_LangIDDesc                                   build/usbd_desc.o
USBD_ParseSetupRequest                            build/usbd_ctlreq.o
                                                  build/usbd_core.o
USBD_RegisterClass                                build/usbd_core.o
                                                  build/usb_device.o
USBD_RunTestMode                                  build/usbd_core.o
USBD_SetClassConfig                               build/usbd_core.o
                                                  build/usbd_ctlreq.o
USBD_Start                                        build/usbd_core.o
                                                  build/usb_device.o
USBD_StdDevReq                                    build/usbd_ctlreq.o
                                                  build/usbd_core.o
USBD_StdEPReq                                     build/usbd_ctlreq.o
                                                  build/usbd_core.o
USBD_StdItfReq                                    build/usbd_ctlreq.o
                                                  build/usbd_core.o
USBD_Stop                                         build/usbd_core.o
USBD_StrDesc                                      build/usbd_desc.o
USBD_StringSerial                                 build/usbd_desc.o
USBD_static_free                                  build/usbd_conf.o
                                                  build/usbd_cdc.o
USBD_static_malloc                                build/usbd_conf.o
                                                  build/usbd_cdc.o
USB_ActivateEndpoint                              build/stm32l5xx_ll_usb.o
                                                  build/stm32l5xx_hal_pcd.o
USB_ActivateRemoteWakeup                          build/stm32l5xx_ll_usb.o
                                                  build/stm32l5xx_hal_pcd.o
USB_CoreInit                                      build/stm32l5xx_ll_usb.o
USB_DeActivateRemoteWakeup                        build/stm32l5xx_ll_usb.o
                                                  build/stm32l5xx_hal_pcd.o
USB_DeactivateEndpoint                            build/stm32l5xx_ll_usb.o
                                                  build/stm32l5xx_hal_pcd.o
USB_DevConnect                                    build/stm32l5xx_ll_usb.o
                                                  build/stm32l5xx_hal_pcd.o
USB_DevDisconnect                                 build/stm32l5xx_ll_usb.o
                                                  build/stm32l5xx_hal_pcd.o
USB_DevInit                                       build/stm32l5xx_ll_usb.o
                                                  build/stm32l5xx_hal_pcd.o
USB_DisableGlobalInt                              build/stm32l5xx_ll_usb.o
                                                  build/stm32l5xx_hal_pcd.o
USB_EPClearStall                                  build/stm32l5xx_ll_usb.o
                                                  build/stm32l5xx_hal_pcd.o
USB_EPSetStall                                    build/stm32l5xx_ll_usb.o
                                                  build/stm32l5xx_hal_pcd.o
USB_EPStartXfer                                   build/stm32l5xx_ll_usb.o
                                                  build/stm32l5xx_hal_pcd.o
USB_EPStopXfer                                    build/stm32l5xx_ll_usb.o
                                                  build/stm32l5xx_hal_pcd.o
USB_EnableGlobalInt                               build/stm32l5xx_ll_usb.o
                                                  build/stm32l5xx_hal_pcd.o
USB_FS_IRQHandler                                 build/stm32l5xx_it.o
USB_ReadInterrupts                                build/stm32l5xx_ll_usb.o
                                                  build/stm32l5xx_hal_pcd.o
USB_ReadPMA                                       build/stm32l5xx_ll_usb.o
                                                  build/stm32l5xx_hal_pcd.o
USB_SetCurrentMode                                build/stm32l5xx_ll_usb.o
USB_SetDevAddress                                 build/stm32l5xx_ll_usb.o
                                                  build/stm32l5xx_hal_pcd.o
USB_StopDevice                                    build/stm32l5xx_ll_usb.o
                                                  build/stm32l5xx_hal_pcd.o
USB_WritePMA                                      build/stm32l5xx_ll_usb.o
                                                  build/stm32l5xx_hal_pcd.o
UsageFault_Handler                                build/stm32l5xx_it.o
UserRxBufferFS                                    build/usbd_cdc_if.o
UserTxBufferFS                                    build/usbd_cdc_if.o
VCP_retrieveInputData                             build/usbd_cdc_if.o
                                                  build/shell.o
WWDG_IRQHandler                                   build/startup_stm32l562xx.o
_ITM_deregisterTMCloneTable                       /home/yul/toolchain/arm-gnu-toolchain-12.2.rel1-x86_64-arm-none-eabi/bin/../lib/gcc/arm-none-eabi/12.2.1/thumb/v8-m.main+fp/hard/crtbegin.o
_ITM_registerTMCloneTable                         /home/yul/toolchain/arm-gnu-toolchain-12.2.rel1-x86_64-arm-none-eabi/bin/../lib/gcc/arm-none-eabi/12.2.1/thumb/v8-m.main+fp/hard/crtbegin.o
__TMC_END__                                       /home/yul/toolchain/arm-gnu-toolchain-12.2.rel1-x86_64-arm-none-eabi/bin/../lib/gcc/arm-none-eabi/12.2.1/thumb/v8-m.main+fp/hard/crtend.o
                                                  /home/yul/toolchain/arm-gnu-toolchain-12.2.rel1-x86_64-arm-none-eabi/bin/../lib/gcc/arm-none-eabi/12.2.1/thumb/v8-m.main+fp/hard/crtbegin.o
__aeabi_idiv0                                     /home/yul/toolchain/arm-gnu-toolchain-12.2.rel1-x86_64-arm-none-eabi/bin/../lib/gcc/arm-none-eabi/12.2.1/thumb/v8-m.main+fp/hard/libgcc.a(_dvmd_tls.o)
__aeabi_ldiv0                                     /home/yul/toolchain/arm-gnu-toolchain-12.2.rel1-x86_64-arm-none-eabi/bin/../lib/gcc/arm-none-eabi/12.2.1/thumb/v8-m.main+fp/hard/libgcc.a(_dvmd_tls.o)
                                                  /home/yul/toolchain/arm-gnu-toolchain-12.2.rel1-x86_64-arm-none-eabi/bin/../lib/gcc/arm-none-eabi/12.2.1/thumb/v8-m.main+fp/hard/libgcc.a(_aeabi_uldivmod.o)
__aeabi_uldivmod                                  /home/yul/toolchain/arm-gnu-toolchain-12.2.rel1-x86_64-arm-none-eabi/bin/../lib/gcc/arm-none-eabi/12.2.1/thumb/v8-m.main+fp/hard/libgcc.a(_aeabi_uldivmod.o)
                                                  build/stm32l5xx_hal_uart.o
__bss_end__                                       /home/yul/toolchain/arm-gnu-toolchain-12.2.rel1-x86_64-arm-none-eabi/bin/../lib/gcc/arm-none-eabi/12.2.1/../../../../arm-none-eabi/lib/thumb/v8-m.main+fp/hard/crt0.o
__bss_start__                                     /home/yul/toolchain/arm-gnu-toolchain-12.2.rel1-x86_64-arm-none-eabi/bin/../lib/gcc/arm-none-eabi/12.2.1/../../../../arm-none-eabi/lib/thumb/v8-m.main+fp/hard/crt0.o
__call_exitprocs                                  /home/yul/toolchain/arm-gnu-toolchain-12.2.rel1-x86_64-arm-none-eabi/bin/../lib/gcc/arm-none-eabi/12.2.1/../../../../arm-none-eabi/lib/thumb/v8-m.main+fp/hard/libc_nano.a(libc_a-exit.o)
__deregister_frame_info                           /home/yul/toolchain/arm-gnu-toolchain-12.2.rel1-x86_64-arm-none-eabi/bin/../lib/gcc/arm-none-eabi/12.2.1/thumb/v8-m.main+fp/hard/crtbegin.o
__dso_handle                                      /home/yul/toolchain/arm-gnu-toolchain-12.2.rel1-x86_64-arm-none-eabi/bin/../lib/gcc/arm-none-eabi/12.2.1/thumb/v8-m.main+fp/hard/crtbegin.o
__errno                                           /home/yul/toolchain/arm-gnu-toolchain-12.2.rel1-x86_64-arm-none-eabi/bin/../lib/gcc/arm-none-eabi/12.2.1/../../../../arm-none-eabi/lib/thumb/v8-m.main+fp/hard/libc_nano.a(libc_a-errno.o)
                                                  /home/yul/toolchain/arm-gnu-toolchain-12.2.rel1-x86_64-arm-none-eabi/bin/../lib/gcc/arm-none-eabi/12.2.1/../../../../arm-none-eabi/lib/thumb/v8-m.main+fp/hard/libc_nano.a(libc_a-strtol.o)
__fp_lock_all                                     /home/yul/toolchain/arm-gnu-toolchain-12.2.rel1-x86_64-arm-none-eabi/bin/../lib/gcc/arm-none-eabi/12.2.1/../../../../arm-none-eabi/lib/thumb/v8-m.main+fp/hard/libc_nano.a(libc_a-findfp.o)
__fp_unlock_all                                   /home/yul/toolchain/arm-gnu-toolchain-12.2.rel1-x86_64-arm-none-eabi/bin/../lib/gcc/arm-none-eabi/12.2.1/../../../../arm-none-eabi/lib/thumb/v8-m.main+fp/hard/libc_nano.a(libc_a-findfp.o)
__init_array_end                                  /home/yul/toolchain/arm-gnu-toolchain-12.2.rel1-x86_64-arm-none-eabi/bin/../lib/gcc/arm-none-eabi/12.2.1/../../../../arm-none-eabi/lib/thumb/v8-m.main+fp/hard/libc_nano.a(libc_a-init.o)
__init_array_start                                /home/yul/toolchain/arm-gnu-toolchain-12.2.rel1-x86_64-arm-none-eabi/bin/../lib/gcc/arm-none-eabi/12.2.1/../../../../arm-none-eabi/lib/thumb/v8-m.main+fp/hard/libc_nano.a(libc_a-init.o)
__libc_fini_array                                 /home/yul/toolchain/arm-gnu-toolchain-12.2.rel1-x86_64-arm-none-eabi/bin/../lib/gcc/arm-none-eabi/12.2.1/../../../../arm-none-eabi/lib/thumb/v8-m.main+fp/hard/crt0.o
__libc_init_array                                 /home/yul/toolchain/arm-gnu-toolchain-12.2.rel1-x86_64-arm-none-eabi/bin/../lib/gcc/arm-none-eabi/12.2.1/../../../../arm-none-eabi/lib/thumb/v8-m.main+fp/hard/libc_nano.a(libc_a-init.o)
                                                  build/startup_stm32l562xx.o
                                                  /home/yul/toolchain/arm-gnu-toolchain-12.2.rel1-x86_64-arm-none-eabi/bin/../lib/gcc/arm-none-eabi/12.2.1/../../../../arm-none-eabi/lib/thumb/v8-m.main+fp/hard/crt0.o
__lock___arc4random_mutex                         /home/yul/toolchain/arm-gnu-toolchain-12.2.rel1-x86_64-arm-none-eabi/bin/../lib/gcc/arm-none-eabi/12.2.1/../../../../arm-none-eabi/lib/thumb/v8-m.main+fp/hard/libc_nano.a(libc_a-lock.o)
__lock___at_quick_exit_mutex                      /home/yul/toolchain/arm-gnu-toolchain-12.2.rel1-x86_64-arm-none-eabi/bin/../lib/gcc/arm-none-eabi/12.2.1/../../../../arm-none-eabi/lib/thumb/v8-m.main+fp/hard/libc_nano.a(libc_a-lock.o)
__lock___atexit_recursive_mutex                   /home/yul/toolchain/arm-gnu-toolchain-12.2.rel1-x86_64-arm-none-eabi/bin/../lib/gcc/arm-none-eabi/12.2.1/../../../../arm-none-eabi/lib/thumb/v8-m.main+fp/hard/libc_nano.a(libc_a-lock.o)
__lock___dd_hash_mutex                            /home/yul/toolchain/arm-gnu-toolchain-12.2.rel1-x86_64-arm-none-eabi/bin/../lib/gcc/arm-none-eabi/12.2.1/../../../../arm-none-eabi/lib/thumb/v8-m.main+fp/hard/libc_nano.a(libc_a-lock.o)
__lock___env_recursive_mutex                      /home/yul/toolchain/arm-gnu-toolchain-12.2.rel1-x86_64-arm-none-eabi/bin/../lib/gcc/arm-none-eabi/12.2.1/../../../../arm-none-eabi/lib/thumb/v8-m.main+fp/hard/libc_nano.a(libc_a-lock.o)
__lock___malloc_recursive_mutex                   /home/yul/toolchain/arm-gnu-toolchain-12.2.rel1-x86_64-arm-none-eabi/bin/../lib/gcc/arm-none-eabi/12.2.1/../../../../arm-none-eabi/lib/thumb/v8-m.main+fp/hard/libc_nano.a(libc_a-lock.o)
                                                  /home/yul/toolchain/arm-gnu-toolchain-12.2.rel1-x86_64-arm-none-eabi/bin/../lib/gcc/arm-none-eabi/12.2.1/../../../../arm-none-eabi/lib/thumb/v8-m.main+fp/hard/libc_nano.a(libc_a-mlock.o)
__lock___sfp_recursive_mutex                      /home/yul/toolchain/arm-gnu-toolchain-12.2.rel1-x86_64-arm-none-eabi/bin/../lib/gcc/arm-none-eabi/12.2.1/../../../../arm-none-eabi/lib/thumb/v8-m.main+fp/hard/libc_nano.a(libc_a-lock.o)
                                                  /home/yul/toolchain/arm-gnu-toolchain-12.2.rel1-x86_64-arm-none-eabi/bin/../lib/gcc/arm-none-eabi/12.2.1/../../../../arm-none-eabi/lib/thumb/v8-m.main+fp/hard/libc_nano.a(libc_a-findfp.o)
__lock___tz_mutex                                 /home/yul/toolchain/arm-gnu-toolchain-12.2.rel1-x86_64-arm-none-eabi/bin/../lib/gcc/arm-none-eabi/12.2.1/../../../../arm-none-eabi/lib/thumb/v8-m.main+fp/hard/libc_nano.a(libc_a-lock.o)
__malloc_free_list                                /home/yul/toolchain/arm-gnu-toolchain-12.2.rel1-x86_64-arm-none-eabi/bin/../lib/gcc/arm-none-eabi/12.2.1/../../../../arm-none-eabi/lib/thumb/v8-m.main+fp/hard/libc_nano.a(libc_a-mallocr.o)
                                                  /home/yul/toolchain/arm-gnu-toolchain-12.2.rel1-x86_64-arm-none-eabi/bin/../lib/gcc/arm-none-eabi/12.2.1/../../../../arm-none-eabi/lib/thumb/v8-m.main+fp/hard/libc_nano.a(libc_a-freer.o)
__malloc_lock                                     /home/yul/toolchain/arm-gnu-toolchain-12.2.rel1-x86_64-arm-none-eabi/bin/../lib/gcc/arm-none-eabi/12.2.1/../../../../arm-none-eabi/lib/thumb/v8-m.main+fp/hard/libc_nano.a(libc_a-mlock.o)
                                                  /home/yul/toolchain/arm-gnu-toolchain-12.2.rel1-x86_64-arm-none-eabi/bin/../lib/gcc/arm-none-eabi/12.2.1/../../../../arm-none-eabi/lib/thumb/v8-m.main+fp/hard/libc_nano.a(libc_a-mallocr.o)
                                                  /home/yul/toolchain/arm-gnu-toolchain-12.2.rel1-x86_64-arm-none-eabi/bin/../lib/gcc/arm-none-eabi/12.2.1/../../../../arm-none-eabi/lib/thumb/v8-m.main+fp/hard/libc_nano.a(libc_a-freer.o)
__malloc_sbrk_start                               /home/yul/toolchain/arm-gnu-toolchain-12.2.rel1-x86_64-arm-none-eabi/bin/../lib/gcc/arm-none-eabi/12.2.1/../../../../arm-none-eabi/lib/thumb/v8-m.main+fp/hard/libc_nano.a(libc_a-mallocr.o)
__malloc_unlock                                   /home/yul/toolchain/arm-gnu-toolchain-12.2.rel1-x86_64-arm-none-eabi/bin/../lib/gcc/arm-none-eabi/12.2.1/../../../../arm-none-eabi/lib/thumb/v8-m.main+fp/hard/libc_nano.a(libc_a-mlock.o)
                                                  /home/yul/toolchain/arm-gnu-toolchain-12.2.rel1-x86_64-arm-none-eabi/bin/../lib/gcc/arm-none-eabi/12.2.1/../../../../arm-none-eabi/lib/thumb/v8-m.main+fp/hard/libc_nano.a(libc_a-mallocr.o)
                                                  /home/yul/toolchain/arm-gnu-toolchain-12.2.rel1-x86_64-arm-none-eabi/bin/../lib/gcc/arm-none-eabi/12.2.1/../../../../arm-none-eabi/lib/thumb/v8-m.main+fp/hard/libc_nano.a(libc_a-freer.o)
__preinit_array_end                               /home/yul/toolchain/arm-gnu-toolchain-12.2.rel1-x86_64-arm-none-eabi/bin/../lib/gcc/arm-none-eabi/12.2.1/../../../../arm-none-eabi/lib/thumb/v8-m.main+fp/hard/libc_nano.a(libc_a-init.o)
__preinit_array_start                             /home/yul/toolchain/arm-gnu-toolchain-12.2.rel1-x86_64-arm-none-eabi/bin/../lib/gcc/arm-none-eabi/12.2.1/../../../../arm-none-eabi/lib/thumb/v8-m.main+fp/hard/libc_nano.a(libc_a-init.o)
__register_frame_info                             /home/yul/toolchain/arm-gnu-toolchain-12.2.rel1-x86_64-arm-none-eabi/bin/../lib/gcc/arm-none-eabi/12.2.1/thumb/v8-m.main+fp/hard/crtbegin.o
__retarget_lock_acquire                           /home/yul/toolchain/arm-gnu-toolchain-12.2.rel1-x86_64-arm-none-eabi/bin/../lib/gcc/arm-none-eabi/12.2.1/../../../../arm-none-eabi/lib/thumb/v8-m.main+fp/hard/libc_nano.a(libc_a-lock.o)
__retarget_lock_acquire_recursive                 /home/yul/toolchain/arm-gnu-toolchain-12.2.rel1-x86_64-arm-none-eabi/bin/../lib/gcc/arm-none-eabi/12.2.1/../../../../arm-none-eabi/lib/thumb/v8-m.main+fp/hard/libc_nano.a(libc_a-lock.o)
                                                  /home/yul/toolchain/arm-gnu-toolchain-12.2.rel1-x86_64-arm-none-eabi/bin/../lib/gcc/arm-none-eabi/12.2.1/../../../../arm-none-eabi/lib/thumb/v8-m.main+fp/hard/libc_nano.a(libc_a-mlock.o)
                                                  /home/yul/toolchain/arm-gnu-toolchain-12.2.rel1-x86_64-arm-none-eabi/bin/../lib/gcc/arm-none-eabi/12.2.1/../../../../arm-none-eabi/lib/thumb/v8-m.main+fp/hard/libc_nano.a(libc_a-putc.o)
                                                  /home/yul/toolchain/arm-gnu-toolchain-12.2.rel1-x86_64-arm-none-eabi/bin/../lib/gcc/arm-none-eabi/12.2.1/../../../../arm-none-eabi/lib/thumb/v8-m.main+fp/hard/libc_nano.a(libc_a-findfp.o)
                                                  /home/yul/toolchain/arm-gnu-toolchain-12.2.rel1-x86_64-arm-none-eabi/bin/../lib/gcc/arm-none-eabi/12.2.1/../../../../arm-none-eabi/lib/thumb/v8-m.main+fp/hard/libc_nano.a(libc_a-fflush.o)
                                                  /home/yul/toolchain/arm-gnu-toolchain-12.2.rel1-x86_64-arm-none-eabi/bin/../lib/gcc/arm-none-eabi/12.2.1/../../../../arm-none-eabi/lib/thumb/v8-m.main+fp/hard/libc_nano.a(libc_a-puts.o)
                                                  /home/yul/toolchain/arm-gnu-toolchain-12.2.rel1-x86_64-arm-none-eabi/bin/../lib/gcc/arm-none-eabi/12.2.1/../../../../arm-none-eabi/lib/thumb/v8-m.main+fp/hard/libc_nano.a(libc_a-nano-vfprintf.o)
__retarget_lock_close                             /home/yul/toolchain/arm-gnu-toolchain-12.2.rel1-x86_64-arm-none-eabi/bin/../lib/gcc/arm-none-eabi/12.2.1/../../../../arm-none-eabi/lib/thumb/v8-m.main+fp/hard/libc_nano.a(libc_a-lock.o)
__retarget_lock_close_recursive                   /home/yul/toolchain/arm-gnu-toolchain-12.2.rel1-x86_64-arm-none-eabi/bin/../lib/gcc/arm-none-eabi/12.2.1/../../../../arm-none-eabi/lib/thumb/v8-m.main+fp/hard/libc_nano.a(libc_a-lock.o)
__retarget_lock_init                              /home/yul/toolchain/arm-gnu-toolchain-12.2.rel1-x86_64-arm-none-eabi/bin/../lib/gcc/arm-none-eabi/12.2.1/../../../../arm-none-eabi/lib/thumb/v8-m.main+fp/hard/libc_nano.a(libc_a-lock.o)
__retarget_lock_init_recursive                    /home/yul/toolchain/arm-gnu-toolchain-12.2.rel1-x86_64-arm-none-eabi/bin/../lib/gcc/arm-none-eabi/12.2.1/../../../../arm-none-eabi/lib/thumb/v8-m.main+fp/hard/libc_nano.a(libc_a-lock.o)
                                                  /home/yul/toolchain/arm-gnu-toolchain-12.2.rel1-x86_64-arm-none-eabi/bin/../lib/gcc/arm-none-eabi/12.2.1/../../../../arm-none-eabi/lib/thumb/v8-m.main+fp/hard/libc_nano.a(libc_a-findfp.o)
__retarget_lock_release                           /home/yul/toolchain/arm-gnu-toolchain-12.2.rel1-x86_64-arm-none-eabi/bin/../lib/gcc/arm-none-eabi/12.2.1/../../../../arm-none-eabi/lib/thumb/v8-m.main+fp/hard/libc_nano.a(libc_a-lock.o)
__retarget_lock_release_recursive                 /home/yul/toolchain/arm-gnu-toolchain-12.2.rel1-x86_64-arm-none-eabi/bin/../lib/gcc/arm-none-eabi/12.2.1/../../../../arm-none-eabi/lib/thumb/v8-m.main+fp/hard/libc_nano.a(libc_a-lock.o)
                                                  /home/yul/toolchain/arm-gnu-toolchain-12.2.rel1-x86_64-arm-none-eabi/bin/../lib/gcc/arm-none-eabi/12.2.1/../../../../arm-none-eabi/lib/thumb/v8-m.main+fp/hard/libc_nano.a(libc_a-mlock.o)
                                                  /home/yul/toolchain/arm-gnu-toolchain-12.2.rel1-x86_64-arm-none-eabi/bin/../lib/gcc/arm-none-eabi/12.2.1/../../../../arm-none-eabi/lib/thumb/v8-m.main+fp/hard/libc_nano.a(libc_a-putc.o)
                                                  /home/yul/toolchain/arm-gnu-toolchain-12.2.rel1-x86_64-arm-none-eabi/bin/../lib/gcc/arm-none-eabi/12.2.1/../../../../arm-none-eabi/lib/thumb/v8-m.main+fp/hard/libc_nano.a(libc_a-findfp.o)
                                                  /home/yul/toolchain/arm-gnu-toolchain-12.2.rel1-x86_64-arm-none-eabi/bin/../lib/gcc/arm-none-eabi/12.2.1/../../../../arm-none-eabi/lib/thumb/v8-m.main+fp/hard/libc_nano.a(libc_a-fflush.o)
                                                  /home/yul/toolchain/arm-gnu-toolchain-12.2.rel1-x86_64-arm-none-eabi/bin/../lib/gcc/arm-none-eabi/12.2.1/../../../../arm-none-eabi/lib/thumb/v8-m.main+fp/hard/libc_nano.a(libc_a-puts.o)
                                                  /home/yul/toolchain/arm-gnu-toolchain-12.2.rel1-x86_64-arm-none-eabi/bin/../lib/gcc/arm-none-eabi/12.2.1/../../../../arm-none-eabi/lib/thumb/v8-m.main+fp/hard/libc_nano.a(libc_a-nano-vfprintf.o)
__retarget_lock_try_acquire                       /home/yul/toolchain/arm-gnu-toolchain-12.2.rel1-x86_64-arm-none-eabi/bin/../lib/gcc/arm-none-eabi/12.2.1/../../../../arm-none-eabi/lib/thumb/v8-m.main+fp/hard/libc_nano.a(libc_a-lock.o)
__retarget_lock_try_acquire_recursive             /home/yul/toolchain/arm-gnu-toolchain-12.2.rel1-x86_64-arm-none-eabi/bin/../lib/gcc/arm-none-eabi/12.2.1/../../../../arm-none-eabi/lib/thumb/v8-m.main+fp/hard/libc_nano.a(libc_a-lock.o)
__sclose                                          /home/yul/toolchain/arm-gnu-toolchain-12.2.rel1-x86_64-arm-none-eabi/bin/../lib/gcc/arm-none-eabi/12.2.1/../../../../arm-none-eabi/lib/thumb/v8-m.main+fp/hard/libc_nano.a(libc_a-stdio.o)
                                                  /home/yul/toolchain/arm-gnu-toolchain-12.2.rel1-x86_64-arm-none-eabi/bin/../lib/gcc/arm-none-eabi/12.2.1/../../../../arm-none-eabi/lib/thumb/v8-m.main+fp/hard/libc_nano.a(libc_a-findfp.o)
__seofread                                        /home/yul/toolchain/arm-gnu-toolchain-12.2.rel1-x86_64-arm-none-eabi/bin/../lib/gcc/arm-none-eabi/12.2.1/../../../../arm-none-eabi/lib/thumb/v8-m.main+fp/hard/libc_nano.a(libc_a-stdio.o)
__sf                                              /home/yul/toolchain/arm-gnu-toolchain-12.2.rel1-x86_64-arm-none-eabi/bin/../lib/gcc/arm-none-eabi/12.2.1/../../../../arm-none-eabi/lib/thumb/v8-m.main+fp/hard/libc_nano.a(libc_a-findfp.o)
                                                  /home/yul/toolchain/arm-gnu-toolchain-12.2.rel1-x86_64-arm-none-eabi/bin/../lib/gcc/arm-none-eabi/12.2.1/../../../../arm-none-eabi/lib/thumb/v8-m.main+fp/hard/libc_nano.a(libc_a-impure.o)
__sflush_r                                        /home/yul/toolchain/arm-gnu-toolchain-12.2.rel1-x86_64-arm-none-eabi/bin/../lib/gcc/arm-none-eabi/12.2.1/../../../../arm-none-eabi/lib/thumb/v8-m.main+fp/hard/libc_nano.a(libc_a-fflush.o)
__sfp                                             /home/yul/toolchain/arm-gnu-toolchain-12.2.rel1-x86_64-arm-none-eabi/bin/../lib/gcc/arm-none-eabi/12.2.1/../../../../arm-none-eabi/lib/thumb/v8-m.main+fp/hard/libc_nano.a(libc_a-findfp.o)
__sfp_lock_acquire                                /home/yul/toolchain/arm-gnu-toolchain-12.2.rel1-x86_64-arm-none-eabi/bin/../lib/gcc/arm-none-eabi/12.2.1/../../../../arm-none-eabi/lib/thumb/v8-m.main+fp/hard/libc_nano.a(libc_a-findfp.o)
__sfp_lock_release                                /home/yul/toolchain/arm-gnu-toolchain-12.2.rel1-x86_64-arm-none-eabi/bin/../lib/gcc/arm-none-eabi/12.2.1/../../../../arm-none-eabi/lib/thumb/v8-m.main+fp/hard/libc_nano.a(libc_a-findfp.o)
__sfputs_r                                        /home/yul/toolchain/arm-gnu-toolchain-12.2.rel1-x86_64-arm-none-eabi/bin/../lib/gcc/arm-none-eabi/12.2.1/../../../../arm-none-eabi/lib/thumb/v8-m.main+fp/hard/libc_nano.a(libc_a-nano-vfprintf.o)
__sfvwrite_r                                      /home/yul/toolchain/arm-gnu-toolchain-12.2.rel1-x86_64-arm-none-eabi/bin/../lib/gcc/arm-none-eabi/12.2.1/../../../../arm-none-eabi/lib/thumb/v8-m.main+fp/hard/libc_nano.a(libc_a-fvwrite.o)
                                                  /home/yul/toolchain/arm-gnu-toolchain-12.2.rel1-x86_64-arm-none-eabi/bin/../lib/gcc/arm-none-eabi/12.2.1/../../../../arm-none-eabi/lib/thumb/v8-m.main+fp/hard/libc_nano.a(libc_a-nano-vfprintf.o)
__sglue                                           /home/yul/toolchain/arm-gnu-toolchain-12.2.rel1-x86_64-arm-none-eabi/bin/../lib/gcc/arm-none-eabi/12.2.1/../../../../arm-none-eabi/lib/thumb/v8-m.main+fp/hard/libc_nano.a(libc_a-findfp.o)
                                                  /home/yul/toolchain/arm-gnu-toolchain-12.2.rel1-x86_64-arm-none-eabi/bin/../lib/gcc/arm-none-eabi/12.2.1/../../../../arm-none-eabi/lib/thumb/v8-m.main+fp/hard/libc_nano.a(libc_a-fflush.o)
__sinit                                           /home/yul/toolchain/arm-gnu-toolchain-12.2.rel1-x86_64-arm-none-eabi/bin/../lib/gcc/arm-none-eabi/12.2.1/../../../../arm-none-eabi/lib/thumb/v8-m.main+fp/hard/libc_nano.a(libc_a-findfp.o)
                                                  /home/yul/toolchain/arm-gnu-toolchain-12.2.rel1-x86_64-arm-none-eabi/bin/../lib/gcc/arm-none-eabi/12.2.1/../../../../arm-none-eabi/lib/thumb/v8-m.main+fp/hard/libc_nano.a(libc_a-putc.o)
                                                  /home/yul/toolchain/arm-gnu-toolchain-12.2.rel1-x86_64-arm-none-eabi/bin/../lib/gcc/arm-none-eabi/12.2.1/../../../../arm-none-eabi/lib/thumb/v8-m.main+fp/hard/libc_nano.a(libc_a-fflush.o)
                                                  /home/yul/toolchain/arm-gnu-toolchain-12.2.rel1-x86_64-arm-none-eabi/bin/../lib/gcc/arm-none-eabi/12.2.1/../../../../arm-none-eabi/lib/thumb/v8-m.main+fp/hard/libc_nano.a(libc_a-puts.o)
                                                  /home/yul/toolchain/arm-gnu-toolchain-12.2.rel1-x86_64-arm-none-eabi/bin/../lib/gcc/arm-none-eabi/12.2.1/../../../../arm-none-eabi/lib/thumb/v8-m.main+fp/hard/libc_nano.a(libc_a-wsetup.o)
                                                  /home/yul/toolchain/arm-gnu-toolchain-12.2.rel1-x86_64-arm-none-eabi/bin/../lib/gcc/arm-none-eabi/12.2.1/../../../../arm-none-eabi/lib/thumb/v8-m.main+fp/hard/libc_nano.a(libc_a-wbuf.o)
                                                  /home/yul/toolchain/arm-gnu-toolchain-12.2.rel1-x86_64-arm-none-eabi/bin/../lib/gcc/arm-none-eabi/12.2.1/../../../../arm-none-eabi/lib/thumb/v8-m.main+fp/hard/libc_nano.a(libc_a-nano-vfprintf.o)
__smakebuf_r                                      /home/yul/toolchain/arm-gnu-toolchain-12.2.rel1-x86_64-arm-none-eabi/bin/../lib/gcc/arm-none-eabi/12.2.1/../../../../arm-none-eabi/lib/thumb/v8-m.main+fp/hard/libc_nano.a(libc_a-makebuf.o)
                                                  /home/yul/toolchain/arm-gnu-toolchain-12.2.rel1-x86_64-arm-none-eabi/bin/../lib/gcc/arm-none-eabi/12.2.1/../../../../arm-none-eabi/lib/thumb/v8-m.main+fp/hard/libc_nano.a(libc_a-wsetup.o)
__sprint_r                                        /home/yul/toolchain/arm-gnu-toolchain-12.2.rel1-x86_64-arm-none-eabi/bin/../lib/gcc/arm-none-eabi/12.2.1/../../../../arm-none-eabi/lib/thumb/v8-m.main+fp/hard/libc_nano.a(libc_a-nano-vfprintf.o)
__sread                                           /home/yul/toolchain/arm-gnu-toolchain-12.2.rel1-x86_64-arm-none-eabi/bin/../lib/gcc/arm-none-eabi/12.2.1/../../../../arm-none-eabi/lib/thumb/v8-m.main+fp/hard/libc_nano.a(libc_a-stdio.o)
                                                  /home/yul/toolchain/arm-gnu-toolchain-12.2.rel1-x86_64-arm-none-eabi/bin/../lib/gcc/arm-none-eabi/12.2.1/../../../../arm-none-eabi/lib/thumb/v8-m.main+fp/hard/libc_nano.a(libc_a-findfp.o)
__sseek                                           /home/yul/toolchain/arm-gnu-toolchain-12.2.rel1-x86_64-arm-none-eabi/bin/../lib/gcc/arm-none-eabi/12.2.1/../../../../arm-none-eabi/lib/thumb/v8-m.main+fp/hard/libc_nano.a(libc_a-stdio.o)
                                                  /home/yul/toolchain/arm-gnu-toolchain-12.2.rel1-x86_64-arm-none-eabi/bin/../lib/gcc/arm-none-eabi/12.2.1/../../../../arm-none-eabi/lib/thumb/v8-m.main+fp/hard/libc_nano.a(libc_a-findfp.o)
__stack                                           /home/yul/toolchain/arm-gnu-toolchain-12.2.rel1-x86_64-arm-none-eabi/bin/../lib/gcc/arm-none-eabi/12.2.1/../../../../arm-none-eabi/lib/thumb/v8-m.main+fp/hard/crt0.o
__stdio_exit_handler                              /home/yul/toolchain/arm-gnu-toolchain-12.2.rel1-x86_64-arm-none-eabi/bin/../lib/gcc/arm-none-eabi/12.2.1/../../../../arm-none-eabi/lib/thumb/v8-m.main+fp/hard/libc_nano.a(libc_a-findfp.o)
                                                  /home/yul/toolchain/arm-gnu-toolchain-12.2.rel1-x86_64-arm-none-eabi/bin/../lib/gcc/arm-none-eabi/12.2.1/../../../../arm-none-eabi/lib/thumb/v8-m.main+fp/hard/libc_nano.a(libc_a-exit.o)
__swbuf                                           /home/yul/toolchain/arm-gnu-toolchain-12.2.rel1-x86_64-arm-none-eabi/bin/../lib/gcc/arm-none-eabi/12.2.1/../../../../arm-none-eabi/lib/thumb/v8-m.main+fp/hard/libc_nano.a(libc_a-wbuf.o)
__swbuf_r                                         /home/yul/toolchain/arm-gnu-toolchain-12.2.rel1-x86_64-arm-none-eabi/bin/../lib/gcc/arm-none-eabi/12.2.1/../../../../arm-none-eabi/lib/thumb/v8-m.main+fp/hard/libc_nano.a(libc_a-wbuf.o)
                                                  /home/yul/toolchain/arm-gnu-toolchain-12.2.rel1-x86_64-arm-none-eabi/bin/../lib/gcc/arm-none-eabi/12.2.1/../../../../arm-none-eabi/lib/thumb/v8-m.main+fp/hard/libc_nano.a(libc_a-putc.o)
                                                  /home/yul/toolchain/arm-gnu-toolchain-12.2.rel1-x86_64-arm-none-eabi/bin/../lib/gcc/arm-none-eabi/12.2.1/../../../../arm-none-eabi/lib/thumb/v8-m.main+fp/hard/libc_nano.a(libc_a-puts.o)
                                                  /home/yul/toolchain/arm-gnu-toolchain-12.2.rel1-x86_64-arm-none-eabi/bin/../lib/gcc/arm-none-eabi/12.2.1/../../../../arm-none-eabi/lib/thumb/v8-m.main+fp/hard/libc_nano.a(libc_a-nano-vfprintf.o)
__swhatbuf_r                                      /home/yul/toolchain/arm-gnu-toolchain-12.2.rel1-x86_64-arm-none-eabi/bin/../lib/gcc/arm-none-eabi/12.2.1/../../../../arm-none-eabi/lib/thumb/v8-m.main+fp/hard/libc_nano.a(libc_a-makebuf.o)
__swrite                                          /home/yul/toolchain/arm-gnu-toolchain-12.2.rel1-x86_64-arm-none-eabi/bin/../lib/gcc/arm-none-eabi/12.2.1/../../../../arm-none-eabi/lib/thumb/v8-m.main+fp/hard/libc_nano.a(libc_a-stdio.o)
                                                  /home/yul/toolchain/arm-gnu-toolchain-12.2.rel1-x86_64-arm-none-eabi/bin/../lib/gcc/arm-none-eabi/12.2.1/../../../../arm-none-eabi/lib/thumb/v8-m.main+fp/hard/libc_nano.a(libc_a-findfp.o)
__swsetup_r                                       /home/yul/toolchain/arm-gnu-toolchain-12.2.rel1-x86_64-arm-none-eabi/bin/../lib/gcc/arm-none-eabi/12.2.1/../../../../arm-none-eabi/lib/thumb/v8-m.main+fp/hard/libc_nano.a(libc_a-wsetup.o)
                                                  /home/yul/toolchain/arm-gnu-toolchain-12.2.rel1-x86_64-arm-none-eabi/bin/../lib/gcc/arm-none-eabi/12.2.1/../../../../arm-none-eabi/lib/thumb/v8-m.main+fp/hard/libc_nano.a(libc_a-fvwrite.o)
                                                  /home/yul/toolchain/arm-gnu-toolchain-12.2.rel1-x86_64-arm-none-eabi/bin/../lib/gcc/arm-none-eabi/12.2.1/../../../../arm-none-eabi/lib/thumb/v8-m.main+fp/hard/libc_nano.a(libc_a-puts.o)
                                                  /home/yul/toolchain/arm-gnu-toolchain-12.2.rel1-x86_64-arm-none-eabi/bin/../lib/gcc/arm-none-eabi/12.2.1/../../../../arm-none-eabi/lib/thumb/v8-m.main+fp/hard/libc_nano.a(libc_a-wbuf.o)
                                                  /home/yul/toolchain/arm-gnu-toolchain-12.2.rel1-x86_64-arm-none-eabi/bin/../lib/gcc/arm-none-eabi/12.2.1/../../../../arm-none-eabi/lib/thumb/v8-m.main+fp/hard/libc_nano.a(libc_a-nano-vfprintf.o)
__udivmoddi4                                      /home/yul/toolchain/arm-gnu-toolchain-12.2.rel1-x86_64-arm-none-eabi/bin/../lib/gcc/arm-none-eabi/12.2.1/thumb/v8-m.main+fp/hard/libgcc.a(_udivmoddi4.o)
                                                  /home/yul/toolchain/arm-gnu-toolchain-12.2.rel1-x86_64-arm-none-eabi/bin/../lib/gcc/arm-none-eabi/12.2.1/thumb/v8-m.main+fp/hard/libgcc.a(_aeabi_uldivmod.o)
_atoi_r                                           /home/yul/toolchain/arm-gnu-toolchain-12.2.rel1-x86_64-arm-none-eabi/bin/../lib/gcc/arm-none-eabi/12.2.1/../../../../arm-none-eabi/lib/thumb/v8-m.main+fp/hard/libc_nano.a(libc_a-atoi.o)
_close                                            /home/yul/toolchain/arm-gnu-toolchain-12.2.rel1-x86_64-arm-none-eabi/bin/../lib/gcc/arm-none-eabi/12.2.1/../../../../arm-none-eabi/lib/thumb/v8-m.main+fp/hard/libnosys.a(close.o)
                                                  /home/yul/toolchain/arm-gnu-toolchain-12.2.rel1-x86_64-arm-none-eabi/bin/../lib/gcc/arm-none-eabi/12.2.1/../../../../arm-none-eabi/lib/thumb/v8-m.main+fp/hard/libc_nano.a(libc_a-closer.o)
_close_r                                          /home/yul/toolchain/arm-gnu-toolchain-12.2.rel1-x86_64-arm-none-eabi/bin/../lib/gcc/arm-none-eabi/12.2.1/../../../../arm-none-eabi/lib/thumb/v8-m.main+fp/hard/libc_nano.a(libc_a-closer.o)
                                                  /home/yul/toolchain/arm-gnu-toolchain-12.2.rel1-x86_64-arm-none-eabi/bin/../lib/gcc/arm-none-eabi/12.2.1/../../../../arm-none-eabi/lib/thumb/v8-m.main+fp/hard/libc_nano.a(libc_a-stdio.o)
_ctype_                                           /home/yul/toolchain/arm-gnu-toolchain-12.2.rel1-x86_64-arm-none-eabi/bin/../lib/gcc/arm-none-eabi/12.2.1/../../../../arm-none-eabi/lib/thumb/v8-m.main+fp/hard/libc_nano.a(libc_a-ctype_.o)
                                                  /home/yul/toolchain/arm-gnu-toolchain-12.2.rel1-x86_64-arm-none-eabi/bin/../lib/gcc/arm-none-eabi/12.2.1/../../../../arm-none-eabi/lib/thumb/v8-m.main+fp/hard/libc_nano.a(libc_a-strtol.o)
_ebss                                             build/startup_stm32l562xx.o
_edata                                            build/startup_stm32l562xx.o
_estack                                           build/startup_stm32l562xx.o
_exit                                             /home/yul/toolchain/arm-gnu-toolchain-12.2.rel1-x86_64-arm-none-eabi/bin/../lib/gcc/arm-none-eabi/12.2.1/../../../../arm-none-eabi/lib/thumb/v8-m.main+fp/hard/libnosys.a(_exit.o)
                                                  /home/yul/toolchain/arm-gnu-toolchain-12.2.rel1-x86_64-arm-none-eabi/bin/../lib/gcc/arm-none-eabi/12.2.1/../../../../arm-none-eabi/lib/thumb/v8-m.main+fp/hard/libc_nano.a(libc_a-exit.o)
_fflush_r                                         /home/yul/toolchain/arm-gnu-toolchain-12.2.rel1-x86_64-arm-none-eabi/bin/../lib/gcc/arm-none-eabi/12.2.1/../../../../arm-none-eabi/lib/thumb/v8-m.main+fp/hard/libc_nano.a(libc_a-fflush.o)
                                                  /home/yul/toolchain/arm-gnu-toolchain-12.2.rel1-x86_64-arm-none-eabi/bin/../lib/gcc/arm-none-eabi/12.2.1/../../../../arm-none-eabi/lib/thumb/v8-m.main+fp/hard/libc_nano.a(libc_a-fvwrite.o)
                                                  /home/yul/toolchain/arm-gnu-toolchain-12.2.rel1-x86_64-arm-none-eabi/bin/../lib/gcc/arm-none-eabi/12.2.1/../../../../arm-none-eabi/lib/thumb/v8-m.main+fp/hard/libc_nano.a(libc_a-findfp.o)
                                                  /home/yul/toolchain/arm-gnu-toolchain-12.2.rel1-x86_64-arm-none-eabi/bin/../lib/gcc/arm-none-eabi/12.2.1/../../../../arm-none-eabi/lib/thumb/v8-m.main+fp/hard/libc_nano.a(libc_a-wbuf.o)
_fini                                             /home/yul/toolchain/arm-gnu-toolchain-12.2.rel1-x86_64-arm-none-eabi/bin/../lib/gcc/arm-none-eabi/12.2.1/thumb/v8-m.main+fp/hard/crti.o
_free_r                                           /home/yul/toolchain/arm-gnu-toolchain-12.2.rel1-x86_64-arm-none-eabi/bin/../lib/gcc/arm-none-eabi/12.2.1/../../../../arm-none-eabi/lib/thumb/v8-m.main+fp/hard/libc_nano.a(libc_a-freer.o)
                                                  /home/yul/toolchain/arm-gnu-toolchain-12.2.rel1-x86_64-arm-none-eabi/bin/../lib/gcc/arm-none-eabi/12.2.1/../../../../arm-none-eabi/lib/thumb/v8-m.main+fp/hard/libc_nano.a(libc_a-reent.o)
                                                  /home/yul/toolchain/arm-gnu-toolchain-12.2.rel1-x86_64-arm-none-eabi/bin/../lib/gcc/arm-none-eabi/12.2.1/../../../../arm-none-eabi/lib/thumb/v8-m.main+fp/hard/libc_nano.a(libc_a-reallocr.o)
                                                  /home/yul/toolchain/arm-gnu-toolchain-12.2.rel1-x86_64-arm-none-eabi/bin/../lib/gcc/arm-none-eabi/12.2.1/../../../../arm-none-eabi/lib/thumb/v8-m.main+fp/hard/libc_nano.a(libc_a-fvwrite.o)
                                                  /home/yul/toolchain/arm-gnu-toolchain-12.2.rel1-x86_64-arm-none-eabi/bin/../lib/gcc/arm-none-eabi/12.2.1/../../../../arm-none-eabi/lib/thumb/v8-m.main+fp/hard/libc_nano.a(libc_a-fflush.o)
                                                  /home/yul/toolchain/arm-gnu-toolchain-12.2.rel1-x86_64-arm-none-eabi/bin/../lib/gcc/arm-none-eabi/12.2.1/../../../../arm-none-eabi/lib/thumb/v8-m.main+fp/hard/libc_nano.a(libc_a-wsetup.o)
_fstat                                            /home/yul/toolchain/arm-gnu-toolchain-12.2.rel1-x86_64-arm-none-eabi/bin/../lib/gcc/arm-none-eabi/12.2.1/../../../../arm-none-eabi/lib/thumb/v8-m.main+fp/hard/libnosys.a(fstat.o)
                                                  /home/yul/toolchain/arm-gnu-toolchain-12.2.rel1-x86_64-arm-none-eabi/bin/../lib/gcc/arm-none-eabi/12.2.1/../../../../arm-none-eabi/lib/thumb/v8-m.main+fp/hard/libc_nano.a(libc_a-fstatr.o)
_fstat_r                                          /home/yul/toolchain/arm-gnu-toolchain-12.2.rel1-x86_64-arm-none-eabi/bin/../lib/gcc/arm-none-eabi/12.2.1/../../../../arm-none-eabi/lib/thumb/v8-m.main+fp/hard/libc_nano.a(libc_a-fstatr.o)
                                                  /home/yul/toolchain/arm-gnu-toolchain-12.2.rel1-x86_64-arm-none-eabi/bin/../lib/gcc/arm-none-eabi/12.2.1/../../../../arm-none-eabi/lib/thumb/v8-m.main+fp/hard/libc_nano.a(libc_a-makebuf.o)
_fwalk_sglue                                      /home/yul/toolchain/arm-gnu-toolchain-12.2.rel1-x86_64-arm-none-eabi/bin/../lib/gcc/arm-none-eabi/12.2.1/../../../../arm-none-eabi/lib/thumb/v8-m.main+fp/hard/libc_nano.a(libc_a-fwalk.o)
                                                  /home/yul/toolchain/arm-gnu-toolchain-12.2.rel1-x86_64-arm-none-eabi/bin/../lib/gcc/arm-none-eabi/12.2.1/../../../../arm-none-eabi/lib/thumb/v8-m.main+fp/hard/libc_nano.a(libc_a-findfp.o)
                                                  /home/yul/toolchain/arm-gnu-toolchain-12.2.rel1-x86_64-arm-none-eabi/bin/../lib/gcc/arm-none-eabi/12.2.1/../../../../arm-none-eabi/lib/thumb/v8-m.main+fp/hard/libc_nano.a(libc_a-fflush.o)
_impure_data                                      /home/yul/toolchain/arm-gnu-toolchain-12.2.rel1-x86_64-arm-none-eabi/bin/../lib/gcc/arm-none-eabi/12.2.1/../../../../arm-none-eabi/lib/thumb/v8-m.main+fp/hard/libc_nano.a(libc_a-impure.o)
                                                  /home/yul/toolchain/arm-gnu-toolchain-12.2.rel1-x86_64-arm-none-eabi/bin/../lib/gcc/arm-none-eabi/12.2.1/../../../../arm-none-eabi/lib/thumb/v8-m.main+fp/hard/libc_nano.a(libc_a-findfp.o)
                                                  /home/yul/toolchain/arm-gnu-toolchain-12.2.rel1-x86_64-arm-none-eabi/bin/../lib/gcc/arm-none-eabi/12.2.1/../../../../arm-none-eabi/lib/thumb/v8-m.main+fp/hard/libc_nano.a(libc_a-fflush.o)
_impure_ptr                                       /home/yul/toolchain/arm-gnu-toolchain-12.2.rel1-x86_64-arm-none-eabi/bin/../lib/gcc/arm-none-eabi/12.2.1/../../../../arm-none-eabi/lib/thumb/v8-m.main+fp/hard/libc_nano.a(libc_a-impure.o)
                                                  /home/yul/toolchain/arm-gnu-toolchain-12.2.rel1-x86_64-arm-none-eabi/bin/../lib/gcc/arm-none-eabi/12.2.1/../../../../arm-none-eabi/lib/thumb/v8-m.main+fp/hard/libc_nano.a(libc_a-errno.o)
                                                  /home/yul/toolchain/arm-gnu-toolchain-12.2.rel1-x86_64-arm-none-eabi/bin/../lib/gcc/arm-none-eabi/12.2.1/../../../../arm-none-eabi/lib/thumb/v8-m.main+fp/hard/libc_nano.a(libc_a-reent.o)
                                                  /home/yul/toolchain/arm-gnu-toolchain-12.2.rel1-x86_64-arm-none-eabi/bin/../lib/gcc/arm-none-eabi/12.2.1/../../../../arm-none-eabi/lib/thumb/v8-m.main+fp/hard/libc_nano.a(libc_a-putc.o)
                                                  /home/yul/toolchain/arm-gnu-toolchain-12.2.rel1-x86_64-arm-none-eabi/bin/../lib/gcc/arm-none-eabi/12.2.1/../../../../arm-none-eabi/lib/thumb/v8-m.main+fp/hard/libc_nano.a(libc_a-strtol.o)
                                                  /home/yul/toolchain/arm-gnu-toolchain-12.2.rel1-x86_64-arm-none-eabi/bin/../lib/gcc/arm-none-eabi/12.2.1/../../../../arm-none-eabi/lib/thumb/v8-m.main+fp/hard/libc_nano.a(libc_a-fflush.o)
                                                  /home/yul/toolchain/arm-gnu-toolchain-12.2.rel1-x86_64-arm-none-eabi/bin/../lib/gcc/arm-none-eabi/12.2.1/../../../../arm-none-eabi/lib/thumb/v8-m.main+fp/hard/libc_nano.a(libc_a-puts.o)
                                                  /home/yul/toolchain/arm-gnu-toolchain-12.2.rel1-x86_64-arm-none-eabi/bin/../lib/gcc/arm-none-eabi/12.2.1/../../../../arm-none-eabi/lib/thumb/v8-m.main+fp/hard/libc_nano.a(libc_a-putchar.o)
                                                  /home/yul/toolchain/arm-gnu-toolchain-12.2.rel1-x86_64-arm-none-eabi/bin/../lib/gcc/arm-none-eabi/12.2.1/../../../../arm-none-eabi/lib/thumb/v8-m.main+fp/hard/libc_nano.a(libc_a-wsetup.o)
                                                  /home/yul/toolchain/arm-gnu-toolchain-12.2.rel1-x86_64-arm-none-eabi/bin/../lib/gcc/arm-none-eabi/12.2.1/../../../../arm-none-eabi/lib/thumb/v8-m.main+fp/hard/libc_nano.a(libc_a-wbuf.o)
                                                  /home/yul/toolchain/arm-gnu-toolchain-12.2.rel1-x86_64-arm-none-eabi/bin/../lib/gcc/arm-none-eabi/12.2.1/../../../../arm-none-eabi/lib/thumb/v8-m.main+fp/hard/libc_nano.a(libc_a-nano-vfprintf.o)
                                                  /home/yul/toolchain/arm-gnu-toolchain-12.2.rel1-x86_64-arm-none-eabi/bin/../lib/gcc/arm-none-eabi/12.2.1/../../../../arm-none-eabi/lib/thumb/v8-m.main+fp/hard/libc_nano.a(libc_a-printf.o)
                                                  build/shell.o
_init                                             /home/yul/toolchain/arm-gnu-toolchain-12.2.rel1-x86_64-arm-none-eabi/bin/../lib/gcc/arm-none-eabi/12.2.1/thumb/v8-m.main+fp/hard/crti.o
                                                  /home/yul/toolchain/arm-gnu-toolchain-12.2.rel1-x86_64-arm-none-eabi/bin/../lib/gcc/arm-none-eabi/12.2.1/../../../../arm-none-eabi/lib/thumb/v8-m.main+fp/hard/libc_nano.a(libc_a-init.o)
_iprintf_r                                        /home/yul/toolchain/arm-gnu-toolchain-12.2.rel1-x86_64-arm-none-eabi/bin/../lib/gcc/arm-none-eabi/12.2.1/../../../../arm-none-eabi/lib/thumb/v8-m.main+fp/hard/libc_nano.a(libc_a-printf.o)
_isatty                                           /home/yul/toolchain/arm-gnu-toolchain-12.2.rel1-x86_64-arm-none-eabi/bin/../lib/gcc/arm-none-eabi/12.2.1/../../../../arm-none-eabi/lib/thumb/v8-m.main+fp/hard/libnosys.a(isatty.o)
                                                  /home/yul/toolchain/arm-gnu-toolchain-12.2.rel1-x86_64-arm-none-eabi/bin/../lib/gcc/arm-none-eabi/12.2.1/../../../../arm-none-eabi/lib/thumb/v8-m.main+fp/hard/libc_nano.a(libc_a-isattyr.o)
_isatty_r                                         /home/yul/toolchain/arm-gnu-toolchain-12.2.rel1-x86_64-arm-none-eabi/bin/../lib/gcc/arm-none-eabi/12.2.1/../../../../arm-none-eabi/lib/thumb/v8-m.main+fp/hard/libc_nano.a(libc_a-isattyr.o)
                                                  /home/yul/toolchain/arm-gnu-toolchain-12.2.rel1-x86_64-arm-none-eabi/bin/../lib/gcc/arm-none-eabi/12.2.1/../../../../arm-none-eabi/lib/thumb/v8-m.main+fp/hard/libc_nano.a(libc_a-makebuf.o)
_lseek                                            /home/yul/toolchain/arm-gnu-toolchain-12.2.rel1-x86_64-arm-none-eabi/bin/../lib/gcc/arm-none-eabi/12.2.1/../../../../arm-none-eabi/lib/thumb/v8-m.main+fp/hard/libnosys.a(lseek.o)
                                                  /home/yul/toolchain/arm-gnu-toolchain-12.2.rel1-x86_64-arm-none-eabi/bin/../lib/gcc/arm-none-eabi/12.2.1/../../../../arm-none-eabi/lib/thumb/v8-m.main+fp/hard/libc_nano.a(libc_a-lseekr.o)
_lseek_r                                          /home/yul/toolchain/arm-gnu-toolchain-12.2.rel1-x86_64-arm-none-eabi/bin/../lib/gcc/arm-none-eabi/12.2.1/../../../../arm-none-eabi/lib/thumb/v8-m.main+fp/hard/libc_nano.a(libc_a-lseekr.o)
                                                  /home/yul/toolchain/arm-gnu-toolchain-12.2.rel1-x86_64-arm-none-eabi/bin/../lib/gcc/arm-none-eabi/12.2.1/../../../../arm-none-eabi/lib/thumb/v8-m.main+fp/hard/libc_nano.a(libc_a-stdio.o)
_mainCRTStartup                                   /home/yul/toolchain/arm-gnu-toolchain-12.2.rel1-x86_64-arm-none-eabi/bin/../lib/gcc/arm-none-eabi/12.2.1/../../../../arm-none-eabi/lib/thumb/v8-m.main+fp/hard/crt0.o
_malloc_r                                         /home/yul/toolchain/arm-gnu-toolchain-12.2.rel1-x86_64-arm-none-eabi/bin/../lib/gcc/arm-none-eabi/12.2.1/../../../../arm-none-eabi/lib/thumb/v8-m.main+fp/hard/libc_nano.a(libc_a-mallocr.o)
                                                  /home/yul/toolchain/arm-gnu-toolchain-12.2.rel1-x86_64-arm-none-eabi/bin/../lib/gcc/arm-none-eabi/12.2.1/../../../../arm-none-eabi/lib/thumb/v8-m.main+fp/hard/libc_nano.a(libc_a-makebuf.o)
                                                  /home/yul/toolchain/arm-gnu-toolchain-12.2.rel1-x86_64-arm-none-eabi/bin/../lib/gcc/arm-none-eabi/12.2.1/../../../../arm-none-eabi/lib/thumb/v8-m.main+fp/hard/libc_nano.a(libc_a-reallocr.o)
                                                  /home/yul/toolchain/arm-gnu-toolchain-12.2.rel1-x86_64-arm-none-eabi/bin/../lib/gcc/arm-none-eabi/12.2.1/../../../../arm-none-eabi/lib/thumb/v8-m.main+fp/hard/libc_nano.a(libc_a-fvwrite.o)
                                                  /home/yul/toolchain/arm-gnu-toolchain-12.2.rel1-x86_64-arm-none-eabi/bin/../lib/gcc/arm-none-eabi/12.2.1/../../../../arm-none-eabi/lib/thumb/v8-m.main+fp/hard/libc_nano.a(libc_a-findfp.o)
_malloc_usable_size_r                             /home/yul/toolchain/arm-gnu-toolchain-12.2.rel1-x86_64-arm-none-eabi/bin/../lib/gcc/arm-none-eabi/12.2.1/../../../../arm-none-eabi/lib/thumb/v8-m.main+fp/hard/libc_nano.a(libc_a-msizer.o)
                                                  /home/yul/toolchain/arm-gnu-toolchain-12.2.rel1-x86_64-arm-none-eabi/bin/../lib/gcc/arm-none-eabi/12.2.1/../../../../arm-none-eabi/lib/thumb/v8-m.main+fp/hard/libc_nano.a(libc_a-reallocr.o)
_printf_common                                    /home/yul/toolchain/arm-gnu-toolchain-12.2.rel1-x86_64-arm-none-eabi/bin/../lib/gcc/arm-none-eabi/12.2.1/../../../../arm-none-eabi/lib/thumb/v8-m.main+fp/hard/libc_nano.a(libc_a-nano-vfprintf_i.o)
_printf_float                                     /home/yul/toolchain/arm-gnu-toolchain-12.2.rel1-x86_64-arm-none-eabi/bin/../lib/gcc/arm-none-eabi/12.2.1/../../../../arm-none-eabi/lib/thumb/v8-m.main+fp/hard/libc_nano.a(libc_a-nano-vfprintf.o)
_printf_i                                         /home/yul/toolchain/arm-gnu-toolchain-12.2.rel1-x86_64-arm-none-eabi/bin/../lib/gcc/arm-none-eabi/12.2.1/../../../../arm-none-eabi/lib/thumb/v8-m.main+fp/hard/libc_nano.a(libc_a-nano-vfprintf_i.o)
                                                  /home/yul/toolchain/arm-gnu-toolchain-12.2.rel1-x86_64-arm-none-eabi/bin/../lib/gcc/arm-none-eabi/12.2.1/../../../../arm-none-eabi/lib/thumb/v8-m.main+fp/hard/libc_nano.a(libc_a-nano-vfprintf.o)
_printf_r                                         /home/yul/toolchain/arm-gnu-toolchain-12.2.rel1-x86_64-arm-none-eabi/bin/../lib/gcc/arm-none-eabi/12.2.1/../../../../arm-none-eabi/lib/thumb/v8-m.main+fp/hard/libc_nano.a(libc_a-printf.o)
_putc_r                                           /home/yul/toolchain/arm-gnu-toolchain-12.2.rel1-x86_64-arm-none-eabi/bin/../lib/gcc/arm-none-eabi/12.2.1/../../../../arm-none-eabi/lib/thumb/v8-m.main+fp/hard/libc_nano.a(libc_a-putc.o)
                                                  /home/yul/toolchain/arm-gnu-toolchain-12.2.rel1-x86_64-arm-none-eabi/bin/../lib/gcc/arm-none-eabi/12.2.1/../../../../arm-none-eabi/lib/thumb/v8-m.main+fp/hard/libc_nano.a(libc_a-putchar.o)
_putchar_r                                        /home/yul/toolchain/arm-gnu-toolchain-12.2.rel1-x86_64-arm-none-eabi/bin/../lib/gcc/arm-none-eabi/12.2.1/../../../../arm-none-eabi/lib/thumb/v8-m.main+fp/hard/libc_nano.a(libc_a-putchar.o)
_puts_r                                           /home/yul/toolchain/arm-gnu-toolchain-12.2.rel1-x86_64-arm-none-eabi/bin/../lib/gcc/arm-none-eabi/12.2.1/../../../../arm-none-eabi/lib/thumb/v8-m.main+fp/hard/libc_nano.a(libc_a-puts.o)
_read                                             /home/yul/toolchain/arm-gnu-toolchain-12.2.rel1-x86_64-arm-none-eabi/bin/../lib/gcc/arm-none-eabi/12.2.1/../../../../arm-none-eabi/lib/thumb/v8-m.main+fp/hard/libnosys.a(read.o)
                                                  /home/yul/toolchain/arm-gnu-toolchain-12.2.rel1-x86_64-arm-none-eabi/bin/../lib/gcc/arm-none-eabi/12.2.1/../../../../arm-none-eabi/lib/thumb/v8-m.main+fp/hard/libc_nano.a(libc_a-readr.o)
_read_r                                           /home/yul/toolchain/arm-gnu-toolchain-12.2.rel1-x86_64-arm-none-eabi/bin/../lib/gcc/arm-none-eabi/12.2.1/../../../../arm-none-eabi/lib/thumb/v8-m.main+fp/hard/libc_nano.a(libc_a-readr.o)
                                                  /home/yul/toolchain/arm-gnu-toolchain-12.2.rel1-x86_64-arm-none-eabi/bin/../lib/gcc/arm-none-eabi/12.2.1/../../../../arm-none-eabi/lib/thumb/v8-m.main+fp/hard/libc_nano.a(libc_a-stdio.o)
_realloc_r                                        /home/yul/toolchain/arm-gnu-toolchain-12.2.rel1-x86_64-arm-none-eabi/bin/../lib/gcc/arm-none-eabi/12.2.1/../../../../arm-none-eabi/lib/thumb/v8-m.main+fp/hard/libc_nano.a(libc_a-reallocr.o)
                                                  /home/yul/toolchain/arm-gnu-toolchain-12.2.rel1-x86_64-arm-none-eabi/bin/../lib/gcc/arm-none-eabi/12.2.1/../../../../arm-none-eabi/lib/thumb/v8-m.main+fp/hard/libc_nano.a(libc_a-fvwrite.o)
_reclaim_reent                                    /home/yul/toolchain/arm-gnu-toolchain-12.2.rel1-x86_64-arm-none-eabi/bin/../lib/gcc/arm-none-eabi/12.2.1/../../../../arm-none-eabi/lib/thumb/v8-m.main+fp/hard/libc_nano.a(libc_a-reent.o)
_sbrk                                             /home/yul/toolchain/arm-gnu-toolchain-12.2.rel1-x86_64-arm-none-eabi/bin/../lib/gcc/arm-none-eabi/12.2.1/../../../../arm-none-eabi/lib/thumb/v8-m.main+fp/hard/libnosys.a(sbrk.o)
                                                  /home/yul/toolchain/arm-gnu-toolchain-12.2.rel1-x86_64-arm-none-eabi/bin/../lib/gcc/arm-none-eabi/12.2.1/../../../../arm-none-eabi/lib/thumb/v8-m.main+fp/hard/libc_nano.a(libc_a-sbrkr.o)
_sbrk_r                                           /home/yul/toolchain/arm-gnu-toolchain-12.2.rel1-x86_64-arm-none-eabi/bin/../lib/gcc/arm-none-eabi/12.2.1/../../../../arm-none-eabi/lib/thumb/v8-m.main+fp/hard/libc_nano.a(libc_a-sbrkr.o)
                                                  /home/yul/toolchain/arm-gnu-toolchain-12.2.rel1-x86_64-arm-none-eabi/bin/../lib/gcc/arm-none-eabi/12.2.1/../../../../arm-none-eabi/lib/thumb/v8-m.main+fp/hard/libc_nano.a(libc_a-mallocr.o)
_sbss                                             build/startup_stm32l562xx.o
_sdata                                            build/startup_stm32l562xx.o
_sidata                                           build/startup_stm32l562xx.o
_stack_init                                       /home/yul/toolchain/arm-gnu-toolchain-12.2.rel1-x86_64-arm-none-eabi/bin/../lib/gcc/arm-none-eabi/12.2.1/../../../../arm-none-eabi/lib/thumb/v8-m.main+fp/hard/crt0.o
_start                                            /home/yul/toolchain/arm-gnu-toolchain-12.2.rel1-x86_64-arm-none-eabi/bin/../lib/gcc/arm-none-eabi/12.2.1/../../../../arm-none-eabi/lib/thumb/v8-m.main+fp/hard/crt0.o
_strtol_r                                         /home/yul/toolchain/arm-gnu-toolchain-12.2.rel1-x86_64-arm-none-eabi/bin/../lib/gcc/arm-none-eabi/12.2.1/../../../../arm-none-eabi/lib/thumb/v8-m.main+fp/hard/libc_nano.a(libc_a-strtol.o)
                                                  /home/yul/toolchain/arm-gnu-toolchain-12.2.rel1-x86_64-arm-none-eabi/bin/../lib/gcc/arm-none-eabi/12.2.1/../../../../arm-none-eabi/lib/thumb/v8-m.main+fp/hard/libc_nano.a(libc_a-atoi.o)
_vfiprintf_r                                      /home/yul/toolchain/arm-gnu-toolchain-12.2.rel1-x86_64-arm-none-eabi/bin/../lib/gcc/arm-none-eabi/12.2.1/../../../../arm-none-eabi/lib/thumb/v8-m.main+fp/hard/libc_nano.a(libc_a-nano-vfprintf.o)
_vfprintf_r                                       /home/yul/toolchain/arm-gnu-toolchain-12.2.rel1-x86_64-arm-none-eabi/bin/../lib/gcc/arm-none-eabi/12.2.1/../../../../arm-none-eabi/lib/thumb/v8-m.main+fp/hard/libc_nano.a(libc_a-nano-vfprintf.o)
                                                  /home/yul/toolchain/arm-gnu-toolchain-12.2.rel1-x86_64-arm-none-eabi/bin/../lib/gcc/arm-none-eabi/12.2.1/../../../../arm-none-eabi/lib/thumb/v8-m.main+fp/hard/libc_nano.a(libc_a-printf.o)
_write                                            build/main.o
                                                  /home/yul/toolchain/arm-gnu-toolchain-12.2.rel1-x86_64-arm-none-eabi/bin/../lib/gcc/arm-none-eabi/12.2.1/../../../../arm-none-eabi/lib/thumb/v8-m.main+fp/hard/libc_nano.a(libc_a-writer.o)
_write_r                                          /home/yul/toolchain/arm-gnu-toolchain-12.2.rel1-x86_64-arm-none-eabi/bin/../lib/gcc/arm-none-eabi/12.2.1/../../../../arm-none-eabi/lib/thumb/v8-m.main+fp/hard/libc_nano.a(libc_a-writer.o)
                                                  /home/yul/toolchain/arm-gnu-toolchain-12.2.rel1-x86_64-arm-none-eabi/bin/../lib/gcc/arm-none-eabi/12.2.1/../../../../arm-none-eabi/lib/thumb/v8-m.main+fp/hard/libc_nano.a(libc_a-stdio.o)
atexit                                            /home/yul/toolchain/arm-gnu-toolchain-12.2.rel1-x86_64-arm-none-eabi/bin/../lib/gcc/arm-none-eabi/12.2.1/../../../../arm-none-eabi/lib/thumb/v8-m.main+fp/hard/crt0.o
atoi                                              /home/yul/toolchain/arm-gnu-toolchain-12.2.rel1-x86_64-arm-none-eabi/bin/../lib/gcc/arm-none-eabi/12.2.1/../../../../arm-none-eabi/lib/thumb/v8-m.main+fp/hard/libc_nano.a(libc_a-atoi.o)
                                                  build/shell.o
cols                                              build/keyboard.o
current_matrix                                    build/keyboard.o
end                                               /home/yul/toolchain/arm-gnu-toolchain-12.2.rel1-x86_64-arm-none-eabi/bin/../lib/gcc/arm-none-eabi/12.2.1/../../../../arm-none-eabi/lib/thumb/v8-m.main+fp/hard/libnosys.a(sbrk.o)
errno                                             /home/yul/toolchain/arm-gnu-toolchain-12.2.rel1-x86_64-arm-none-eabi/bin/../lib/gcc/arm-none-eabi/12.2.1/../../../../arm-none-eabi/lib/thumb/v8-m.main+fp/hard/libc_nano.a(libc_a-reent.o)
                                                  /home/yul/toolchain/arm-gnu-toolchain-12.2.rel1-x86_64-arm-none-eabi/bin/../lib/gcc/arm-none-eabi/12.2.1/../../../../arm-none-eabi/lib/thumb/v8-m.main+fp/hard/libnosys.a(read.o)
                                                  /home/yul/toolchain/arm-gnu-toolchain-12.2.rel1-x86_64-arm-none-eabi/bin/../lib/gcc/arm-none-eabi/12.2.1/../../../../arm-none-eabi/lib/thumb/v8-m.main+fp/hard/libnosys.a(lseek.o)
                                                  /home/yul/toolchain/arm-gnu-toolchain-12.2.rel1-x86_64-arm-none-eabi/bin/../lib/gcc/arm-none-eabi/12.2.1/../../../../arm-none-eabi/lib/thumb/v8-m.main+fp/hard/libnosys.a(isatty.o)
                                                  /home/yul/toolchain/arm-gnu-toolchain-12.2.rel1-x86_64-arm-none-eabi/bin/../lib/gcc/arm-none-eabi/12.2.1/../../../../arm-none-eabi/lib/thumb/v8-m.main+fp/hard/libnosys.a(fstat.o)
                                                  /home/yul/toolchain/arm-gnu-toolchain-12.2.rel1-x86_64-arm-none-eabi/bin/../lib/gcc/arm-none-eabi/12.2.1/../../../../arm-none-eabi/lib/thumb/v8-m.main+fp/hard/libnosys.a(close.o)
                                                  /home/yul/toolchain/arm-gnu-toolchain-12.2.rel1-x86_64-arm-none-eabi/bin/../lib/gcc/arm-none-eabi/12.2.1/../../../../arm-none-eabi/lib/thumb/v8-m.main+fp/hard/libc_nano.a(libc_a-sbrkr.o)
                                                  /home/yul/toolchain/arm-gnu-toolchain-12.2.rel1-x86_64-arm-none-eabi/bin/../lib/gcc/arm-none-eabi/12.2.1/../../../../arm-none-eabi/lib/thumb/v8-m.main+fp/hard/libc_nano.a(libc_a-readr.o)
                                                  /home/yul/toolchain/arm-gnu-toolchain-12.2.rel1-x86_64-arm-none-eabi/bin/../lib/gcc/arm-none-eabi/12.2.1/../../../../arm-none-eabi/lib/thumb/v8-m.main+fp/hard/libc_nano.a(libc_a-lseekr.o)
                                                  /home/yul/toolchain/arm-gnu-toolchain-12.2.rel1-x86_64-arm-none-eabi/bin/../lib/gcc/arm-none-eabi/12.2.1/../../../../arm-none-eabi/lib/thumb/v8-m.main+fp/hard/libc_nano.a(libc_a-isattyr.o)
                                                  /home/yul/toolchain/arm-gnu-toolchain-12.2.rel1-x86_64-arm-none-eabi/bin/../lib/gcc/arm-none-eabi/12.2.1/../../../../arm-none-eabi/lib/thumb/v8-m.main+fp/hard/libc_nano.a(libc_a-fstatr.o)
                                                  /home/yul/toolchain/arm-gnu-toolchain-12.2.rel1-x86_64-arm-none-eabi/bin/../lib/gcc/arm-none-eabi/12.2.1/../../../../arm-none-eabi/lib/thumb/v8-m.main+fp/hard/libc_nano.a(libc_a-closer.o)
                                                  /home/yul/toolchain/arm-gnu-toolchain-12.2.rel1-x86_64-arm-none-eabi/bin/../lib/gcc/arm-none-eabi/12.2.1/../../../../arm-none-eabi/lib/thumb/v8-m.main+fp/hard/libc_nano.a(libc_a-writer.o)
exit                                              /home/yul/toolchain/arm-gnu-toolchain-12.2.rel1-x86_64-arm-none-eabi/bin/../lib/gcc/arm-none-eabi/12.2.1/../../../../arm-none-eabi/lib/thumb/v8-m.main+fp/hard/libc_nano.a(libc_a-exit.o)
                                                  /home/yul/toolchain/arm-gnu-toolchain-12.2.rel1-x86_64-arm-none-eabi/bin/../lib/gcc/arm-none-eabi/12.2.1/../../../../arm-none-eabi/lib/thumb/v8-m.main+fp/hard/crt0.o
fflush                                            /home/yul/toolchain/arm-gnu-toolchain-12.2.rel1-x86_64-arm-none-eabi/bin/../lib/gcc/arm-none-eabi/12.2.1/../../../../arm-none-eabi/lib/thumb/v8-m.main+fp/hard/libc_nano.a(libc_a-fflush.o)
                                                  build/shell.o
g_is31_leds                                       build/is31fl3737.o
g_led_control_registers                           build/is31fl3737.o
g_led_control_registers_update_required           build/is31fl3737.o
g_pfnVectors                                      build/startup_stm32l562xx.o
g_pwm_buffer                                      build/is31fl3737.o
g_pwm_buffer_update_required                      build/is31fl3737.o
g_twi_transfer_buffer                             build/is31fl3737.o
get_bit_position                                  build/keyboard.o
gpio_handler                                      build/shell.o
hUsbDeviceFS                                      build/usb_device.o
                                                  build/usbd_cdc_if.o
hardware_init_hook                                /home/yul/toolchain/arm-gnu-toolchain-12.2.rel1-x86_64-arm-none-eabi/bin/../lib/gcc/arm-none-eabi/12.2.1/../../../../arm-none-eabi/lib/thumb/v8-m.main+fp/hard/crt0.o
hi2c1                                             build/main.o
                                                  build/shell.o
hi2c2                                             build/main.o
                                                  build/is31fl3737.o
                                                  build/shell.o
hpcd_USB_FS                                       build/usbd_conf.o
                                                  build/stm32l5xx_it.o
huart3                                            build/main.o
i2c_handler                                       build/shell.o
iprintf                                           /home/yul/toolchain/arm-gnu-toolchain-12.2.rel1-x86_64-arm-none-eabi/bin/../lib/gcc/arm-none-eabi/12.2.1/../../../../arm-none-eabi/lib/thumb/v8-m.main+fp/hard/libc_nano.a(libc_a-printf.o)
keymaps                                           build/keyboard.o
leds_handler                                      build/shell.o
main                                              build/main.o
                                                  build/startup_stm32l562xx.o
                                                  /home/yul/toolchain/arm-gnu-toolchain-12.2.rel1-x86_64-arm-none-eabi/bin/../lib/gcc/arm-none-eabi/12.2.1/../../../../arm-none-eabi/lib/thumb/v8-m.main+fp/hard/crt0.o
memchr                                            /home/yul/toolchain/arm-gnu-toolchain-12.2.rel1-x86_64-arm-none-eabi/bin/../lib/gcc/arm-none-eabi/12.2.1/../../../../arm-none-eabi/lib/thumb/v8-m.main+fp/hard/libc_nano.a(libc_a-memchr-stub.o)
                                                  /home/yul/toolchain/arm-gnu-toolchain-12.2.rel1-x86_64-arm-none-eabi/bin/../lib/gcc/arm-none-eabi/12.2.1/../../../../arm-none-eabi/lib/thumb/v8-m.main+fp/hard/libc_nano.a(libc_a-fvwrite.o)
                                                  /home/yul/toolchain/arm-gnu-toolchain-12.2.rel1-x86_64-arm-none-eabi/bin/../lib/gcc/arm-none-eabi/12.2.1/../../../../arm-none-eabi/lib/thumb/v8-m.main+fp/hard/libc_nano.a(libc_a-nano-vfprintf_i.o)
                                                  /home/yul/toolchain/arm-gnu-toolchain-12.2.rel1-x86_64-arm-none-eabi/bin/../lib/gcc/arm-none-eabi/12.2.1/../../../../arm-none-eabi/lib/thumb/v8-m.main+fp/hard/libc_nano.a(libc_a-nano-vfprintf.o)
memcpy                                            /home/yul/toolchain/arm-gnu-toolchain-12.2.rel1-x86_64-arm-none-eabi/bin/../lib/gcc/arm-none-eabi/12.2.1/../../../../arm-none-eabi/lib/thumb/v8-m.main+fp/hard/libc_nano.a(libc_a-memcpy-stub.o)
                                                  /home/yul/toolchain/arm-gnu-toolchain-12.2.rel1-x86_64-arm-none-eabi/bin/../lib/gcc/arm-none-eabi/12.2.1/../../../../arm-none-eabi/lib/thumb/v8-m.main+fp/hard/libc_nano.a(libc_a-reallocr.o)
                                                  /home/yul/toolchain/arm-gnu-toolchain-12.2.rel1-x86_64-arm-none-eabi/bin/../lib/gcc/arm-none-eabi/12.2.1/../../../../arm-none-eabi/lib/thumb/v8-m.main+fp/hard/libc_nano.a(libc_a-fvwrite.o)
                                                  build/usbd_cdc_if.o
                                                  build/shell.o
memmove                                           /home/yul/toolchain/arm-gnu-toolchain-12.2.rel1-x86_64-arm-none-eabi/bin/../lib/gcc/arm-none-eabi/12.2.1/../../../../arm-none-eabi/lib/thumb/v8-m.main+fp/hard/libc_nano.a(libc_a-memmove.o)
                                                  /home/yul/toolchain/arm-gnu-toolchain-12.2.rel1-x86_64-arm-none-eabi/bin/../lib/gcc/arm-none-eabi/12.2.1/../../../../arm-none-eabi/lib/thumb/v8-m.main+fp/hard/libc_nano.a(libc_a-fvwrite.o)
memset                                            /home/yul/toolchain/arm-gnu-toolchain-12.2.rel1-x86_64-arm-none-eabi/bin/../lib/gcc/arm-none-eabi/12.2.1/../../../../arm-none-eabi/lib/thumb/v8-m.main+fp/hard/libc_nano.a(libc_a-memset.o)
                                                  /home/yul/toolchain/arm-gnu-toolchain-12.2.rel1-x86_64-arm-none-eabi/bin/../lib/gcc/arm-none-eabi/12.2.1/../../../../arm-none-eabi/lib/thumb/v8-m.main+fp/hard/libc_nano.a(libc_a-findfp.o)
                                                  build/usbd_cdc.o
                                                  build/usbd_conf.o
                                                  build/stm32l5xx_hal_msp.o
                                                  build/shell.o
                                                  build/main.o
                                                  /home/yul/toolchain/arm-gnu-toolchain-12.2.rel1-x86_64-arm-none-eabi/bin/../lib/gcc/arm-none-eabi/12.2.1/../../../../arm-none-eabi/lib/thumb/v8-m.main+fp/hard/crt0.o
old_matrix                                        build/keyboard.o
pFlash                                            build/stm32l5xx_hal_flash.o
                                                  build/stm32l5xx_hal_flash_ramfunc.o
                                                  build/stm32l5xx_hal_flash_ex.o
printf                                            /home/yul/toolchain/arm-gnu-toolchain-12.2.rel1-x86_64-arm-none-eabi/bin/../lib/gcc/arm-none-eabi/12.2.1/../../../../arm-none-eabi/lib/thumb/v8-m.main+fp/hard/libc_nano.a(libc_a-printf.o)
                                                  build/keyboard.o
                                                  build/is31fl3737.o
                                                  build/shell.o
process_matrix                                    build/keyboard.o
                                                  build/shell.o
putc                                              /home/yul/toolchain/arm-gnu-toolchain-12.2.rel1-x86_64-arm-none-eabi/bin/../lib/gcc/arm-none-eabi/12.2.1/../../../../arm-none-eabi/lib/thumb/v8-m.main+fp/hard/libc_nano.a(libc_a-putc.o)
putchar                                           /home/yul/toolchain/arm-gnu-toolchain-12.2.rel1-x86_64-arm-none-eabi/bin/../lib/gcc/arm-none-eabi/12.2.1/../../../../arm-none-eabi/lib/thumb/v8-m.main+fp/hard/libc_nano.a(libc_a-putchar.o)
                                                  build/shell.o
puts                                              /home/yul/toolchain/arm-gnu-toolchain-12.2.rel1-x86_64-arm-none-eabi/bin/../lib/gcc/arm-none-eabi/12.2.1/../../../../arm-none-eabi/lib/thumb/v8-m.main+fp/hard/libc_nano.a(libc_a-puts.o)
                                                  build/is31fl3737.o
                                                  build/shell.o
                                                  build/main.o
rows                                              build/keyboard.o
scan_matrix                                       build/keyboard.o
                                                  build/shell.o
shell_check_cmd                                   build/shell.o
shell_process_cmd                                 build/shell.o
shell_reset                                       build/shell.o
shell_start                                       build/shell.o
                                                  build/main.o
software_init_hook                                /home/yul/toolchain/arm-gnu-toolchain-12.2.rel1-x86_64-arm-none-eabi/bin/../lib/gcc/arm-none-eabi/12.2.1/../../../../arm-none-eabi/lib/thumb/v8-m.main+fp/hard/crt0.o
strcmp                                            /home/yul/toolchain/arm-gnu-toolchain-12.2.rel1-x86_64-arm-none-eabi/bin/../lib/gcc/arm-none-eabi/12.2.1/../../../../arm-none-eabi/lib/thumb/v8-m.main+fp/hard/libc_nano.a(libc_a-strcmp.o)
                                                  build/shell.o
strtol                                            /home/yul/toolchain/arm-gnu-toolchain-12.2.rel1-x86_64-arm-none-eabi/bin/../lib/gcc/arm-none-eabi/12.2.1/../../../../arm-none-eabi/lib/thumb/v8-m.main+fp/hard/libc_nano.a(libc_a-strtol.o)
                                                  /home/yul/toolchain/arm-gnu-toolchain-12.2.rel1-x86_64-arm-none-eabi/bin/../lib/gcc/arm-none-eabi/12.2.1/../../../../arm-none-eabi/lib/thumb/v8-m.main+fp/hard/libc_nano.a(libc_a-atoi.o)
strtol_l                                          /home/yul/toolchain/arm-gnu-toolchain-12.2.rel1-x86_64-arm-none-eabi/bin/../lib/gcc/arm-none-eabi/12.2.1/../../../../arm-none-eabi/lib/thumb/v8-m.main+fp/hard/libc_nano.a(libc_a-strtol.o)
uwTick                                            build/stm32l5xx_hal.o
uwTickFreq                                        build/stm32l5xx_hal.o
uwTickPrio                                        build/stm32l5xx_hal.o
                                                  build/stm32l5xx_hal_rcc.o
vfiprintf                                         /home/yul/toolchain/arm-gnu-toolchain-12.2.rel1-x86_64-arm-none-eabi/bin/../lib/gcc/arm-none-eabi/12.2.1/../../../../arm-none-eabi/lib/thumb/v8-m.main+fp/hard/libc_nano.a(libc_a-nano-vfprintf.o)
vfprintf                                          /home/yul/toolchain/arm-gnu-toolchain-12.2.rel1-x86_64-arm-none-eabi/bin/../lib/gcc/arm-none-eabi/12.2.1/../../../../arm-none-eabi/lib/thumb/v8-m.main+fp/hard/libc_nano.a(libc_a-nano-vfprintf.o)
