ARM GAS  /tmp/cc83dAXL.s 			page 1


   1              		.cpu cortex-m33
   2              		.arch armv8-m.main
   3              		.fpu fpv4-sp-d16
   4              		.arch_extension dsp
   5              		.eabi_attribute 27, 1
   6              		.eabi_attribute 28, 1
   7              		.eabi_attribute 20, 1
   8              		.eabi_attribute 21, 1
   9              		.eabi_attribute 23, 3
  10              		.eabi_attribute 24, 1
  11              		.eabi_attribute 25, 1
  12              		.eabi_attribute 26, 1
  13              		.eabi_attribute 30, 1
  14              		.eabi_attribute 34, 1
  15              		.eabi_attribute 18, 4
  16              		.file	"stm32l5xx_hal_msp.c"
  17              		.text
  18              	.Ltext0:
  19              		.cfi_sections	.debug_frame
  20              		.file 1 "Core/Src/stm32l5xx_hal_msp.c"
  21              		.section	.text.HAL_MspInit,"ax",%progbits
  22              		.align	1
  23              		.global	HAL_MspInit
  24              		.syntax unified
  25              		.thumb
  26              		.thumb_func
  28              	HAL_MspInit:
  29              	.LFB156:
   1:Core/Src/stm32l5xx_hal_msp.c **** /* USER CODE BEGIN Header */
   2:Core/Src/stm32l5xx_hal_msp.c **** /**
   3:Core/Src/stm32l5xx_hal_msp.c ****   ******************************************************************************
   4:Core/Src/stm32l5xx_hal_msp.c ****   * @file         stm32l5xx_hal_msp.c
   5:Core/Src/stm32l5xx_hal_msp.c ****   * @brief        This file provides code for the MSP Initialization
   6:Core/Src/stm32l5xx_hal_msp.c ****   *               and de-Initialization codes.
   7:Core/Src/stm32l5xx_hal_msp.c ****   ******************************************************************************
   8:Core/Src/stm32l5xx_hal_msp.c ****   * @attention
   9:Core/Src/stm32l5xx_hal_msp.c ****   *
  10:Core/Src/stm32l5xx_hal_msp.c ****   * Copyright (c) 2023 STMicroelectronics.
  11:Core/Src/stm32l5xx_hal_msp.c ****   * All rights reserved.
  12:Core/Src/stm32l5xx_hal_msp.c ****   *
  13:Core/Src/stm32l5xx_hal_msp.c ****   * This software is licensed under terms that can be found in the LICENSE file
  14:Core/Src/stm32l5xx_hal_msp.c ****   * in the root directory of this software component.
  15:Core/Src/stm32l5xx_hal_msp.c ****   * If no LICENSE file comes with this software, it is provided AS-IS.
  16:Core/Src/stm32l5xx_hal_msp.c ****   *
  17:Core/Src/stm32l5xx_hal_msp.c ****   ******************************************************************************
  18:Core/Src/stm32l5xx_hal_msp.c ****   */
  19:Core/Src/stm32l5xx_hal_msp.c **** /* USER CODE END Header */
  20:Core/Src/stm32l5xx_hal_msp.c **** 
  21:Core/Src/stm32l5xx_hal_msp.c **** /* Includes ------------------------------------------------------------------*/
  22:Core/Src/stm32l5xx_hal_msp.c **** #include "main.h"
  23:Core/Src/stm32l5xx_hal_msp.c **** /* USER CODE BEGIN Includes */
  24:Core/Src/stm32l5xx_hal_msp.c **** 
  25:Core/Src/stm32l5xx_hal_msp.c **** /* USER CODE END Includes */
  26:Core/Src/stm32l5xx_hal_msp.c **** 
  27:Core/Src/stm32l5xx_hal_msp.c **** /* Private typedef -----------------------------------------------------------*/
  28:Core/Src/stm32l5xx_hal_msp.c **** /* USER CODE BEGIN TD */
  29:Core/Src/stm32l5xx_hal_msp.c **** 
ARM GAS  /tmp/cc83dAXL.s 			page 2


  30:Core/Src/stm32l5xx_hal_msp.c **** /* USER CODE END TD */
  31:Core/Src/stm32l5xx_hal_msp.c **** 
  32:Core/Src/stm32l5xx_hal_msp.c **** /* Private define ------------------------------------------------------------*/
  33:Core/Src/stm32l5xx_hal_msp.c **** /* USER CODE BEGIN Define */
  34:Core/Src/stm32l5xx_hal_msp.c **** 
  35:Core/Src/stm32l5xx_hal_msp.c **** /* USER CODE END Define */
  36:Core/Src/stm32l5xx_hal_msp.c **** 
  37:Core/Src/stm32l5xx_hal_msp.c **** /* Private macro -------------------------------------------------------------*/
  38:Core/Src/stm32l5xx_hal_msp.c **** /* USER CODE BEGIN Macro */
  39:Core/Src/stm32l5xx_hal_msp.c **** 
  40:Core/Src/stm32l5xx_hal_msp.c **** /* USER CODE END Macro */
  41:Core/Src/stm32l5xx_hal_msp.c **** 
  42:Core/Src/stm32l5xx_hal_msp.c **** /* Private variables ---------------------------------------------------------*/
  43:Core/Src/stm32l5xx_hal_msp.c **** /* USER CODE BEGIN PV */
  44:Core/Src/stm32l5xx_hal_msp.c **** 
  45:Core/Src/stm32l5xx_hal_msp.c **** /* USER CODE END PV */
  46:Core/Src/stm32l5xx_hal_msp.c **** 
  47:Core/Src/stm32l5xx_hal_msp.c **** /* Private function prototypes -----------------------------------------------*/
  48:Core/Src/stm32l5xx_hal_msp.c **** /* USER CODE BEGIN PFP */
  49:Core/Src/stm32l5xx_hal_msp.c **** 
  50:Core/Src/stm32l5xx_hal_msp.c **** /* USER CODE END PFP */
  51:Core/Src/stm32l5xx_hal_msp.c **** 
  52:Core/Src/stm32l5xx_hal_msp.c **** /* External functions --------------------------------------------------------*/
  53:Core/Src/stm32l5xx_hal_msp.c **** /* USER CODE BEGIN ExternalFunctions */
  54:Core/Src/stm32l5xx_hal_msp.c **** 
  55:Core/Src/stm32l5xx_hal_msp.c **** /* USER CODE END ExternalFunctions */
  56:Core/Src/stm32l5xx_hal_msp.c **** 
  57:Core/Src/stm32l5xx_hal_msp.c **** /* USER CODE BEGIN 0 */
  58:Core/Src/stm32l5xx_hal_msp.c **** 
  59:Core/Src/stm32l5xx_hal_msp.c **** /* USER CODE END 0 */
  60:Core/Src/stm32l5xx_hal_msp.c **** /**
  61:Core/Src/stm32l5xx_hal_msp.c ****   * Initializes the Global MSP.
  62:Core/Src/stm32l5xx_hal_msp.c ****   */
  63:Core/Src/stm32l5xx_hal_msp.c **** void HAL_MspInit(void)
  64:Core/Src/stm32l5xx_hal_msp.c **** {
  30              		.loc 1 64 1 view -0
  31              		.cfi_startproc
  32              		@ args = 0, pretend = 0, frame = 8
  33              		@ frame_needed = 0, uses_anonymous_args = 0
  34 0000 00B5     		push	{lr}
  35              	.LCFI0:
  36              		.cfi_def_cfa_offset 4
  37              		.cfi_offset 14, -4
  38 0002 83B0     		sub	sp, sp, #12
  39              	.LCFI1:
  40              		.cfi_def_cfa_offset 16
  65:Core/Src/stm32l5xx_hal_msp.c ****   /* USER CODE BEGIN MspInit 0 */
  66:Core/Src/stm32l5xx_hal_msp.c **** 
  67:Core/Src/stm32l5xx_hal_msp.c ****   /* USER CODE END MspInit 0 */
  68:Core/Src/stm32l5xx_hal_msp.c **** 
  69:Core/Src/stm32l5xx_hal_msp.c ****   __HAL_RCC_SYSCFG_CLK_ENABLE();
  41              		.loc 1 69 3 view .LVU1
  42              	.LBB2:
  43              		.loc 1 69 3 view .LVU2
  44              		.loc 1 69 3 view .LVU3
  45 0004 0B4B     		ldr	r3, .L3
  46 0006 1A6E     		ldr	r2, [r3, #96]
ARM GAS  /tmp/cc83dAXL.s 			page 3


  47 0008 42F00102 		orr	r2, r2, #1
  48 000c 1A66     		str	r2, [r3, #96]
  49              		.loc 1 69 3 view .LVU4
  50 000e 1A6E     		ldr	r2, [r3, #96]
  51 0010 02F00102 		and	r2, r2, #1
  52 0014 0092     		str	r2, [sp]
  53              		.loc 1 69 3 view .LVU5
  54 0016 009A     		ldr	r2, [sp]
  55              	.LBE2:
  56              		.loc 1 69 3 view .LVU6
  70:Core/Src/stm32l5xx_hal_msp.c ****   __HAL_RCC_PWR_CLK_ENABLE();
  57              		.loc 1 70 3 view .LVU7
  58              	.LBB3:
  59              		.loc 1 70 3 view .LVU8
  60              		.loc 1 70 3 view .LVU9
  61 0018 9A6D     		ldr	r2, [r3, #88]
  62 001a 42F08052 		orr	r2, r2, #268435456
  63 001e 9A65     		str	r2, [r3, #88]
  64              		.loc 1 70 3 view .LVU10
  65 0020 9B6D     		ldr	r3, [r3, #88]
  66 0022 03F08053 		and	r3, r3, #268435456
  67 0026 0193     		str	r3, [sp, #4]
  68              		.loc 1 70 3 view .LVU11
  69 0028 019B     		ldr	r3, [sp, #4]
  70              	.LBE3:
  71              		.loc 1 70 3 view .LVU12
  71:Core/Src/stm32l5xx_hal_msp.c **** 
  72:Core/Src/stm32l5xx_hal_msp.c ****   /* System interrupt init*/
  73:Core/Src/stm32l5xx_hal_msp.c **** 
  74:Core/Src/stm32l5xx_hal_msp.c ****   /** Disable the internal Pull-Up in Dead Battery pins of UCPD peripheral
  75:Core/Src/stm32l5xx_hal_msp.c ****   */
  76:Core/Src/stm32l5xx_hal_msp.c ****   HAL_PWREx_DisableUCPDDeadBattery();
  72              		.loc 1 76 3 view .LVU13
  73 002a FFF7FEFF 		bl	HAL_PWREx_DisableUCPDDeadBattery
  74              	.LVL0:
  77:Core/Src/stm32l5xx_hal_msp.c **** 
  78:Core/Src/stm32l5xx_hal_msp.c ****   /* USER CODE BEGIN MspInit 1 */
  79:Core/Src/stm32l5xx_hal_msp.c **** 
  80:Core/Src/stm32l5xx_hal_msp.c ****   /* USER CODE END MspInit 1 */
  81:Core/Src/stm32l5xx_hal_msp.c **** }
  75              		.loc 1 81 1 is_stmt 0 view .LVU14
  76 002e 03B0     		add	sp, sp, #12
  77              	.LCFI2:
  78              		.cfi_def_cfa_offset 4
  79              		@ sp needed
  80 0030 5DF804FB 		ldr	pc, [sp], #4
  81              	.L4:
  82              		.align	2
  83              	.L3:
  84 0034 00100240 		.word	1073876992
  85              		.cfi_endproc
  86              	.LFE156:
  88              		.section	.text.HAL_I2C_MspInit,"ax",%progbits
  89              		.align	1
  90              		.global	HAL_I2C_MspInit
  91              		.syntax unified
  92              		.thumb
ARM GAS  /tmp/cc83dAXL.s 			page 4


  93              		.thumb_func
  95              	HAL_I2C_MspInit:
  96              	.LVL1:
  97              	.LFB157:
  82:Core/Src/stm32l5xx_hal_msp.c **** 
  83:Core/Src/stm32l5xx_hal_msp.c **** /**
  84:Core/Src/stm32l5xx_hal_msp.c **** * @brief I2C MSP Initialization
  85:Core/Src/stm32l5xx_hal_msp.c **** * This function configures the hardware resources used in this example
  86:Core/Src/stm32l5xx_hal_msp.c **** * @param hi2c: I2C handle pointer
  87:Core/Src/stm32l5xx_hal_msp.c **** * @retval None
  88:Core/Src/stm32l5xx_hal_msp.c **** */
  89:Core/Src/stm32l5xx_hal_msp.c **** void HAL_I2C_MspInit(I2C_HandleTypeDef* hi2c)
  90:Core/Src/stm32l5xx_hal_msp.c **** {
  98              		.loc 1 90 1 is_stmt 1 view -0
  99              		.cfi_startproc
 100              		@ args = 0, pretend = 0, frame = 184
 101              		@ frame_needed = 0, uses_anonymous_args = 0
 102              		.loc 1 90 1 is_stmt 0 view .LVU16
 103 0000 10B5     		push	{r4, lr}
 104              	.LCFI3:
 105              		.cfi_def_cfa_offset 8
 106              		.cfi_offset 4, -8
 107              		.cfi_offset 14, -4
 108 0002 AEB0     		sub	sp, sp, #184
 109              	.LCFI4:
 110              		.cfi_def_cfa_offset 192
 111 0004 0446     		mov	r4, r0
  91:Core/Src/stm32l5xx_hal_msp.c ****   GPIO_InitTypeDef GPIO_InitStruct = {0};
 112              		.loc 1 91 3 is_stmt 1 view .LVU17
 113              		.loc 1 91 20 is_stmt 0 view .LVU18
 114 0006 0021     		movs	r1, #0
 115 0008 2991     		str	r1, [sp, #164]
 116 000a 2A91     		str	r1, [sp, #168]
 117 000c 2B91     		str	r1, [sp, #172]
 118 000e 2C91     		str	r1, [sp, #176]
 119 0010 2D91     		str	r1, [sp, #180]
  92:Core/Src/stm32l5xx_hal_msp.c ****   RCC_PeriphCLKInitTypeDef PeriphClkInit = {0};
 120              		.loc 1 92 3 is_stmt 1 view .LVU19
 121              		.loc 1 92 28 is_stmt 0 view .LVU20
 122 0012 9422     		movs	r2, #148
 123 0014 04A8     		add	r0, sp, #16
 124              	.LVL2:
 125              		.loc 1 92 28 view .LVU21
 126 0016 FFF7FEFF 		bl	memset
 127              	.LVL3:
  93:Core/Src/stm32l5xx_hal_msp.c ****   if(hi2c->Instance==I2C1)
 128              		.loc 1 93 3 is_stmt 1 view .LVU22
 129              		.loc 1 93 10 is_stmt 0 view .LVU23
 130 001a 2368     		ldr	r3, [r4]
 131              		.loc 1 93 5 view .LVU24
 132 001c 314A     		ldr	r2, .L15
 133 001e 9342     		cmp	r3, r2
 134 0020 04D0     		beq	.L11
  94:Core/Src/stm32l5xx_hal_msp.c ****   {
  95:Core/Src/stm32l5xx_hal_msp.c ****   /* USER CODE BEGIN I2C1_MspInit 0 */
  96:Core/Src/stm32l5xx_hal_msp.c **** 
  97:Core/Src/stm32l5xx_hal_msp.c ****   /* USER CODE END I2C1_MspInit 0 */
ARM GAS  /tmp/cc83dAXL.s 			page 5


  98:Core/Src/stm32l5xx_hal_msp.c **** 
  99:Core/Src/stm32l5xx_hal_msp.c ****   /** Initializes the peripherals clock
 100:Core/Src/stm32l5xx_hal_msp.c ****   */
 101:Core/Src/stm32l5xx_hal_msp.c ****     PeriphClkInit.PeriphClockSelection = RCC_PERIPHCLK_I2C1;
 102:Core/Src/stm32l5xx_hal_msp.c ****     PeriphClkInit.I2c1ClockSelection = RCC_I2C1CLKSOURCE_HSI;
 103:Core/Src/stm32l5xx_hal_msp.c ****     if (HAL_RCCEx_PeriphCLKConfig(&PeriphClkInit) != HAL_OK)
 104:Core/Src/stm32l5xx_hal_msp.c ****     {
 105:Core/Src/stm32l5xx_hal_msp.c ****       Error_Handler();
 106:Core/Src/stm32l5xx_hal_msp.c ****     }
 107:Core/Src/stm32l5xx_hal_msp.c **** 
 108:Core/Src/stm32l5xx_hal_msp.c ****     __HAL_RCC_GPIOB_CLK_ENABLE();
 109:Core/Src/stm32l5xx_hal_msp.c ****     /**I2C1 GPIO Configuration
 110:Core/Src/stm32l5xx_hal_msp.c ****     PB8     ------> I2C1_SCL
 111:Core/Src/stm32l5xx_hal_msp.c ****     PB9     ------> I2C1_SDA
 112:Core/Src/stm32l5xx_hal_msp.c ****     */
 113:Core/Src/stm32l5xx_hal_msp.c ****     GPIO_InitStruct.Pin = GPIO_PIN_8|GPIO_PIN_9;
 114:Core/Src/stm32l5xx_hal_msp.c ****     GPIO_InitStruct.Mode = GPIO_MODE_AF_OD;
 115:Core/Src/stm32l5xx_hal_msp.c ****     GPIO_InitStruct.Pull = GPIO_NOPULL;
 116:Core/Src/stm32l5xx_hal_msp.c ****     GPIO_InitStruct.Speed = GPIO_SPEED_FREQ_LOW;
 117:Core/Src/stm32l5xx_hal_msp.c ****     GPIO_InitStruct.Alternate = GPIO_AF4_I2C1;
 118:Core/Src/stm32l5xx_hal_msp.c ****     HAL_GPIO_Init(GPIOB, &GPIO_InitStruct);
 119:Core/Src/stm32l5xx_hal_msp.c **** 
 120:Core/Src/stm32l5xx_hal_msp.c ****     /* Peripheral clock enable */
 121:Core/Src/stm32l5xx_hal_msp.c ****     __HAL_RCC_I2C1_CLK_ENABLE();
 122:Core/Src/stm32l5xx_hal_msp.c ****   /* USER CODE BEGIN I2C1_MspInit 1 */
 123:Core/Src/stm32l5xx_hal_msp.c **** 
 124:Core/Src/stm32l5xx_hal_msp.c ****   /* USER CODE END I2C1_MspInit 1 */
 125:Core/Src/stm32l5xx_hal_msp.c ****   }
 126:Core/Src/stm32l5xx_hal_msp.c ****   else if(hi2c->Instance==I2C2)
 135              		.loc 1 126 8 is_stmt 1 view .LVU25
 136              		.loc 1 126 10 is_stmt 0 view .LVU26
 137 0022 314A     		ldr	r2, .L15+4
 138 0024 9342     		cmp	r3, r2
 139 0026 2FD0     		beq	.L12
 140              	.LVL4:
 141              	.L5:
 127:Core/Src/stm32l5xx_hal_msp.c ****   {
 128:Core/Src/stm32l5xx_hal_msp.c ****   /* USER CODE BEGIN I2C2_MspInit 0 */
 129:Core/Src/stm32l5xx_hal_msp.c **** 
 130:Core/Src/stm32l5xx_hal_msp.c ****   /* USER CODE END I2C2_MspInit 0 */
 131:Core/Src/stm32l5xx_hal_msp.c **** 
 132:Core/Src/stm32l5xx_hal_msp.c ****   /** Initializes the peripherals clock
 133:Core/Src/stm32l5xx_hal_msp.c ****   */
 134:Core/Src/stm32l5xx_hal_msp.c ****     PeriphClkInit.PeriphClockSelection = RCC_PERIPHCLK_I2C2;
 135:Core/Src/stm32l5xx_hal_msp.c ****     PeriphClkInit.I2c2ClockSelection = RCC_I2C2CLKSOURCE_HSI;
 136:Core/Src/stm32l5xx_hal_msp.c ****     if (HAL_RCCEx_PeriphCLKConfig(&PeriphClkInit) != HAL_OK)
 137:Core/Src/stm32l5xx_hal_msp.c ****     {
 138:Core/Src/stm32l5xx_hal_msp.c ****       Error_Handler();
 139:Core/Src/stm32l5xx_hal_msp.c ****     }
 140:Core/Src/stm32l5xx_hal_msp.c **** 
 141:Core/Src/stm32l5xx_hal_msp.c ****     __HAL_RCC_GPIOB_CLK_ENABLE();
 142:Core/Src/stm32l5xx_hal_msp.c ****     /**I2C2 GPIO Configuration
 143:Core/Src/stm32l5xx_hal_msp.c ****     PB13     ------> I2C2_SCL
 144:Core/Src/stm32l5xx_hal_msp.c ****     PB14     ------> I2C2_SDA
 145:Core/Src/stm32l5xx_hal_msp.c ****     */
 146:Core/Src/stm32l5xx_hal_msp.c ****     GPIO_InitStruct.Pin = GPIO_PIN_13|GPIO_PIN_14;
 147:Core/Src/stm32l5xx_hal_msp.c ****     GPIO_InitStruct.Mode = GPIO_MODE_AF_OD;
ARM GAS  /tmp/cc83dAXL.s 			page 6


 148:Core/Src/stm32l5xx_hal_msp.c ****     GPIO_InitStruct.Pull = GPIO_NOPULL;
 149:Core/Src/stm32l5xx_hal_msp.c ****     GPIO_InitStruct.Speed = GPIO_SPEED_FREQ_LOW;
 150:Core/Src/stm32l5xx_hal_msp.c ****     GPIO_InitStruct.Alternate = GPIO_AF4_I2C2;
 151:Core/Src/stm32l5xx_hal_msp.c ****     HAL_GPIO_Init(GPIOB, &GPIO_InitStruct);
 152:Core/Src/stm32l5xx_hal_msp.c **** 
 153:Core/Src/stm32l5xx_hal_msp.c ****     /* Peripheral clock enable */
 154:Core/Src/stm32l5xx_hal_msp.c ****     __HAL_RCC_I2C2_CLK_ENABLE();
 155:Core/Src/stm32l5xx_hal_msp.c ****   /* USER CODE BEGIN I2C2_MspInit 1 */
 156:Core/Src/stm32l5xx_hal_msp.c **** 
 157:Core/Src/stm32l5xx_hal_msp.c ****   /* USER CODE END I2C2_MspInit 1 */
 158:Core/Src/stm32l5xx_hal_msp.c ****   }
 159:Core/Src/stm32l5xx_hal_msp.c **** 
 160:Core/Src/stm32l5xx_hal_msp.c **** }
 142              		.loc 1 160 1 view .LVU27
 143 0028 2EB0     		add	sp, sp, #184
 144              	.LCFI5:
 145              		.cfi_remember_state
 146              		.cfi_def_cfa_offset 8
 147              		@ sp needed
 148 002a 10BD     		pop	{r4, pc}
 149              	.LVL5:
 150              	.L11:
 151              	.LCFI6:
 152              		.cfi_restore_state
 101:Core/Src/stm32l5xx_hal_msp.c ****     PeriphClkInit.I2c1ClockSelection = RCC_I2C1CLKSOURCE_HSI;
 153              		.loc 1 101 5 is_stmt 1 view .LVU28
 101:Core/Src/stm32l5xx_hal_msp.c ****     PeriphClkInit.I2c1ClockSelection = RCC_I2C1CLKSOURCE_HSI;
 154              		.loc 1 101 40 is_stmt 0 view .LVU29
 155 002c 4023     		movs	r3, #64
 156 002e 0493     		str	r3, [sp, #16]
 102:Core/Src/stm32l5xx_hal_msp.c ****     if (HAL_RCCEx_PeriphCLKConfig(&PeriphClkInit) != HAL_OK)
 157              		.loc 1 102 5 is_stmt 1 view .LVU30
 102:Core/Src/stm32l5xx_hal_msp.c ****     if (HAL_RCCEx_PeriphCLKConfig(&PeriphClkInit) != HAL_OK)
 158              		.loc 1 102 38 is_stmt 0 view .LVU31
 159 0030 4FF40053 		mov	r3, #8192
 160 0034 1793     		str	r3, [sp, #92]
 103:Core/Src/stm32l5xx_hal_msp.c ****     {
 161              		.loc 1 103 5 is_stmt 1 view .LVU32
 103:Core/Src/stm32l5xx_hal_msp.c ****     {
 162              		.loc 1 103 9 is_stmt 0 view .LVU33
 163 0036 04A8     		add	r0, sp, #16
 164 0038 FFF7FEFF 		bl	HAL_RCCEx_PeriphCLKConfig
 165              	.LVL6:
 103:Core/Src/stm32l5xx_hal_msp.c ****     {
 166              		.loc 1 103 8 view .LVU34
 167 003c 08BB     		cbnz	r0, .L13
 168              	.L7:
 108:Core/Src/stm32l5xx_hal_msp.c ****     /**I2C1 GPIO Configuration
 169              		.loc 1 108 5 is_stmt 1 view .LVU35
 170              	.LBB4:
 108:Core/Src/stm32l5xx_hal_msp.c ****     /**I2C1 GPIO Configuration
 171              		.loc 1 108 5 view .LVU36
 108:Core/Src/stm32l5xx_hal_msp.c ****     /**I2C1 GPIO Configuration
 172              		.loc 1 108 5 view .LVU37
 173 003e 2B4C     		ldr	r4, .L15+8
 174              	.LVL7:
 108:Core/Src/stm32l5xx_hal_msp.c ****     /**I2C1 GPIO Configuration
ARM GAS  /tmp/cc83dAXL.s 			page 7


 175              		.loc 1 108 5 is_stmt 0 view .LVU38
 176 0040 E36C     		ldr	r3, [r4, #76]
 177 0042 43F00203 		orr	r3, r3, #2
 178 0046 E364     		str	r3, [r4, #76]
 108:Core/Src/stm32l5xx_hal_msp.c ****     /**I2C1 GPIO Configuration
 179              		.loc 1 108 5 is_stmt 1 view .LVU39
 180 0048 E36C     		ldr	r3, [r4, #76]
 181 004a 03F00203 		and	r3, r3, #2
 182 004e 0093     		str	r3, [sp]
 108:Core/Src/stm32l5xx_hal_msp.c ****     /**I2C1 GPIO Configuration
 183              		.loc 1 108 5 view .LVU40
 184 0050 009B     		ldr	r3, [sp]
 185              	.LBE4:
 108:Core/Src/stm32l5xx_hal_msp.c ****     /**I2C1 GPIO Configuration
 186              		.loc 1 108 5 view .LVU41
 113:Core/Src/stm32l5xx_hal_msp.c ****     GPIO_InitStruct.Mode = GPIO_MODE_AF_OD;
 187              		.loc 1 113 5 view .LVU42
 113:Core/Src/stm32l5xx_hal_msp.c ****     GPIO_InitStruct.Mode = GPIO_MODE_AF_OD;
 188              		.loc 1 113 25 is_stmt 0 view .LVU43
 189 0052 4FF44073 		mov	r3, #768
 190 0056 2993     		str	r3, [sp, #164]
 114:Core/Src/stm32l5xx_hal_msp.c ****     GPIO_InitStruct.Pull = GPIO_NOPULL;
 191              		.loc 1 114 5 is_stmt 1 view .LVU44
 114:Core/Src/stm32l5xx_hal_msp.c ****     GPIO_InitStruct.Pull = GPIO_NOPULL;
 192              		.loc 1 114 26 is_stmt 0 view .LVU45
 193 0058 1223     		movs	r3, #18
 194 005a 2A93     		str	r3, [sp, #168]
 115:Core/Src/stm32l5xx_hal_msp.c ****     GPIO_InitStruct.Speed = GPIO_SPEED_FREQ_LOW;
 195              		.loc 1 115 5 is_stmt 1 view .LVU46
 115:Core/Src/stm32l5xx_hal_msp.c ****     GPIO_InitStruct.Speed = GPIO_SPEED_FREQ_LOW;
 196              		.loc 1 115 26 is_stmt 0 view .LVU47
 197 005c 0023     		movs	r3, #0
 198 005e 2B93     		str	r3, [sp, #172]
 116:Core/Src/stm32l5xx_hal_msp.c ****     GPIO_InitStruct.Alternate = GPIO_AF4_I2C1;
 199              		.loc 1 116 5 is_stmt 1 view .LVU48
 116:Core/Src/stm32l5xx_hal_msp.c ****     GPIO_InitStruct.Alternate = GPIO_AF4_I2C1;
 200              		.loc 1 116 27 is_stmt 0 view .LVU49
 201 0060 2C93     		str	r3, [sp, #176]
 117:Core/Src/stm32l5xx_hal_msp.c ****     HAL_GPIO_Init(GPIOB, &GPIO_InitStruct);
 202              		.loc 1 117 5 is_stmt 1 view .LVU50
 117:Core/Src/stm32l5xx_hal_msp.c ****     HAL_GPIO_Init(GPIOB, &GPIO_InitStruct);
 203              		.loc 1 117 31 is_stmt 0 view .LVU51
 204 0062 0423     		movs	r3, #4
 205 0064 2D93     		str	r3, [sp, #180]
 118:Core/Src/stm32l5xx_hal_msp.c **** 
 206              		.loc 1 118 5 is_stmt 1 view .LVU52
 207 0066 29A9     		add	r1, sp, #164
 208 0068 2148     		ldr	r0, .L15+12
 209 006a FFF7FEFF 		bl	HAL_GPIO_Init
 210              	.LVL8:
 121:Core/Src/stm32l5xx_hal_msp.c ****   /* USER CODE BEGIN I2C1_MspInit 1 */
 211              		.loc 1 121 5 view .LVU53
 212              	.LBB5:
 121:Core/Src/stm32l5xx_hal_msp.c ****   /* USER CODE BEGIN I2C1_MspInit 1 */
 213              		.loc 1 121 5 view .LVU54
 121:Core/Src/stm32l5xx_hal_msp.c ****   /* USER CODE BEGIN I2C1_MspInit 1 */
 214              		.loc 1 121 5 view .LVU55
ARM GAS  /tmp/cc83dAXL.s 			page 8


 215 006e A36D     		ldr	r3, [r4, #88]
 216 0070 43F40013 		orr	r3, r3, #2097152
 217 0074 A365     		str	r3, [r4, #88]
 121:Core/Src/stm32l5xx_hal_msp.c ****   /* USER CODE BEGIN I2C1_MspInit 1 */
 218              		.loc 1 121 5 view .LVU56
 219 0076 A36D     		ldr	r3, [r4, #88]
 220 0078 03F40013 		and	r3, r3, #2097152
 221 007c 0193     		str	r3, [sp, #4]
 121:Core/Src/stm32l5xx_hal_msp.c ****   /* USER CODE BEGIN I2C1_MspInit 1 */
 222              		.loc 1 121 5 view .LVU57
 223 007e 019B     		ldr	r3, [sp, #4]
 224              	.LBE5:
 121:Core/Src/stm32l5xx_hal_msp.c ****   /* USER CODE BEGIN I2C1_MspInit 1 */
 225              		.loc 1 121 5 view .LVU58
 226 0080 D2E7     		b	.L5
 227              	.LVL9:
 228              	.L13:
 105:Core/Src/stm32l5xx_hal_msp.c ****     }
 229              		.loc 1 105 7 view .LVU59
 230 0082 FFF7FEFF 		bl	Error_Handler
 231              	.LVL10:
 232 0086 DAE7     		b	.L7
 233              	.L12:
 134:Core/Src/stm32l5xx_hal_msp.c ****     PeriphClkInit.I2c2ClockSelection = RCC_I2C2CLKSOURCE_HSI;
 234              		.loc 1 134 5 view .LVU60
 134:Core/Src/stm32l5xx_hal_msp.c ****     PeriphClkInit.I2c2ClockSelection = RCC_I2C2CLKSOURCE_HSI;
 235              		.loc 1 134 40 is_stmt 0 view .LVU61
 236 0088 8023     		movs	r3, #128
 237 008a 0493     		str	r3, [sp, #16]
 135:Core/Src/stm32l5xx_hal_msp.c ****     if (HAL_RCCEx_PeriphCLKConfig(&PeriphClkInit) != HAL_OK)
 238              		.loc 1 135 5 is_stmt 1 view .LVU62
 135:Core/Src/stm32l5xx_hal_msp.c ****     if (HAL_RCCEx_PeriphCLKConfig(&PeriphClkInit) != HAL_OK)
 239              		.loc 1 135 38 is_stmt 0 view .LVU63
 240 008c 4FF40043 		mov	r3, #32768
 241 0090 1893     		str	r3, [sp, #96]
 136:Core/Src/stm32l5xx_hal_msp.c ****     {
 242              		.loc 1 136 5 is_stmt 1 view .LVU64
 136:Core/Src/stm32l5xx_hal_msp.c ****     {
 243              		.loc 1 136 9 is_stmt 0 view .LVU65
 244 0092 04A8     		add	r0, sp, #16
 245 0094 FFF7FEFF 		bl	HAL_RCCEx_PeriphCLKConfig
 246              	.LVL11:
 136:Core/Src/stm32l5xx_hal_msp.c ****     {
 247              		.loc 1 136 8 view .LVU66
 248 0098 08BB     		cbnz	r0, .L14
 249              	.L9:
 141:Core/Src/stm32l5xx_hal_msp.c ****     /**I2C2 GPIO Configuration
 250              		.loc 1 141 5 is_stmt 1 view .LVU67
 251              	.LBB6:
 141:Core/Src/stm32l5xx_hal_msp.c ****     /**I2C2 GPIO Configuration
 252              		.loc 1 141 5 view .LVU68
 141:Core/Src/stm32l5xx_hal_msp.c ****     /**I2C2 GPIO Configuration
 253              		.loc 1 141 5 view .LVU69
 254 009a 144C     		ldr	r4, .L15+8
 255              	.LVL12:
 141:Core/Src/stm32l5xx_hal_msp.c ****     /**I2C2 GPIO Configuration
 256              		.loc 1 141 5 is_stmt 0 view .LVU70
ARM GAS  /tmp/cc83dAXL.s 			page 9


 257 009c E36C     		ldr	r3, [r4, #76]
 258 009e 43F00203 		orr	r3, r3, #2
 259 00a2 E364     		str	r3, [r4, #76]
 141:Core/Src/stm32l5xx_hal_msp.c ****     /**I2C2 GPIO Configuration
 260              		.loc 1 141 5 is_stmt 1 view .LVU71
 261 00a4 E36C     		ldr	r3, [r4, #76]
 262 00a6 03F00203 		and	r3, r3, #2
 263 00aa 0293     		str	r3, [sp, #8]
 141:Core/Src/stm32l5xx_hal_msp.c ****     /**I2C2 GPIO Configuration
 264              		.loc 1 141 5 view .LVU72
 265 00ac 029B     		ldr	r3, [sp, #8]
 266              	.LBE6:
 141:Core/Src/stm32l5xx_hal_msp.c ****     /**I2C2 GPIO Configuration
 267              		.loc 1 141 5 view .LVU73
 146:Core/Src/stm32l5xx_hal_msp.c ****     GPIO_InitStruct.Mode = GPIO_MODE_AF_OD;
 268              		.loc 1 146 5 view .LVU74
 146:Core/Src/stm32l5xx_hal_msp.c ****     GPIO_InitStruct.Mode = GPIO_MODE_AF_OD;
 269              		.loc 1 146 25 is_stmt 0 view .LVU75
 270 00ae 4FF4C043 		mov	r3, #24576
 271 00b2 2993     		str	r3, [sp, #164]
 147:Core/Src/stm32l5xx_hal_msp.c ****     GPIO_InitStruct.Pull = GPIO_NOPULL;
 272              		.loc 1 147 5 is_stmt 1 view .LVU76
 147:Core/Src/stm32l5xx_hal_msp.c ****     GPIO_InitStruct.Pull = GPIO_NOPULL;
 273              		.loc 1 147 26 is_stmt 0 view .LVU77
 274 00b4 1223     		movs	r3, #18
 275 00b6 2A93     		str	r3, [sp, #168]
 148:Core/Src/stm32l5xx_hal_msp.c ****     GPIO_InitStruct.Speed = GPIO_SPEED_FREQ_LOW;
 276              		.loc 1 148 5 is_stmt 1 view .LVU78
 148:Core/Src/stm32l5xx_hal_msp.c ****     GPIO_InitStruct.Speed = GPIO_SPEED_FREQ_LOW;
 277              		.loc 1 148 26 is_stmt 0 view .LVU79
 278 00b8 0023     		movs	r3, #0
 279 00ba 2B93     		str	r3, [sp, #172]
 149:Core/Src/stm32l5xx_hal_msp.c ****     GPIO_InitStruct.Alternate = GPIO_AF4_I2C2;
 280              		.loc 1 149 5 is_stmt 1 view .LVU80
 149:Core/Src/stm32l5xx_hal_msp.c ****     GPIO_InitStruct.Alternate = GPIO_AF4_I2C2;
 281              		.loc 1 149 27 is_stmt 0 view .LVU81
 282 00bc 2C93     		str	r3, [sp, #176]
 150:Core/Src/stm32l5xx_hal_msp.c ****     HAL_GPIO_Init(GPIOB, &GPIO_InitStruct);
 283              		.loc 1 150 5 is_stmt 1 view .LVU82
 150:Core/Src/stm32l5xx_hal_msp.c ****     HAL_GPIO_Init(GPIOB, &GPIO_InitStruct);
 284              		.loc 1 150 31 is_stmt 0 view .LVU83
 285 00be 0423     		movs	r3, #4
 286 00c0 2D93     		str	r3, [sp, #180]
 151:Core/Src/stm32l5xx_hal_msp.c **** 
 287              		.loc 1 151 5 is_stmt 1 view .LVU84
 288 00c2 29A9     		add	r1, sp, #164
 289 00c4 0A48     		ldr	r0, .L15+12
 290 00c6 FFF7FEFF 		bl	HAL_GPIO_Init
 291              	.LVL13:
 154:Core/Src/stm32l5xx_hal_msp.c ****   /* USER CODE BEGIN I2C2_MspInit 1 */
 292              		.loc 1 154 5 view .LVU85
 293              	.LBB7:
 154:Core/Src/stm32l5xx_hal_msp.c ****   /* USER CODE BEGIN I2C2_MspInit 1 */
 294              		.loc 1 154 5 view .LVU86
 154:Core/Src/stm32l5xx_hal_msp.c ****   /* USER CODE BEGIN I2C2_MspInit 1 */
 295              		.loc 1 154 5 view .LVU87
 296 00ca A36D     		ldr	r3, [r4, #88]
ARM GAS  /tmp/cc83dAXL.s 			page 10


 297 00cc 43F48003 		orr	r3, r3, #4194304
 298 00d0 A365     		str	r3, [r4, #88]
 154:Core/Src/stm32l5xx_hal_msp.c ****   /* USER CODE BEGIN I2C2_MspInit 1 */
 299              		.loc 1 154 5 view .LVU88
 300 00d2 A36D     		ldr	r3, [r4, #88]
 301 00d4 03F48003 		and	r3, r3, #4194304
 302 00d8 0393     		str	r3, [sp, #12]
 154:Core/Src/stm32l5xx_hal_msp.c ****   /* USER CODE BEGIN I2C2_MspInit 1 */
 303              		.loc 1 154 5 view .LVU89
 304 00da 039B     		ldr	r3, [sp, #12]
 305              	.LBE7:
 154:Core/Src/stm32l5xx_hal_msp.c ****   /* USER CODE BEGIN I2C2_MspInit 1 */
 306              		.loc 1 154 5 view .LVU90
 307              		.loc 1 160 1 is_stmt 0 view .LVU91
 308 00dc A4E7     		b	.L5
 309              	.LVL14:
 310              	.L14:
 138:Core/Src/stm32l5xx_hal_msp.c ****     }
 311              		.loc 1 138 7 is_stmt 1 view .LVU92
 312 00de FFF7FEFF 		bl	Error_Handler
 313              	.LVL15:
 314 00e2 DAE7     		b	.L9
 315              	.L16:
 316              		.align	2
 317              	.L15:
 318 00e4 00540040 		.word	1073763328
 319 00e8 00580040 		.word	1073764352
 320 00ec 00100240 		.word	1073876992
 321 00f0 00040242 		.word	1107428352
 322              		.cfi_endproc
 323              	.LFE157:
 325              		.section	.text.HAL_I2C_MspDeInit,"ax",%progbits
 326              		.align	1
 327              		.global	HAL_I2C_MspDeInit
 328              		.syntax unified
 329              		.thumb
 330              		.thumb_func
 332              	HAL_I2C_MspDeInit:
 333              	.LVL16:
 334              	.LFB158:
 161:Core/Src/stm32l5xx_hal_msp.c **** 
 162:Core/Src/stm32l5xx_hal_msp.c **** /**
 163:Core/Src/stm32l5xx_hal_msp.c **** * @brief I2C MSP De-Initialization
 164:Core/Src/stm32l5xx_hal_msp.c **** * This function freeze the hardware resources used in this example
 165:Core/Src/stm32l5xx_hal_msp.c **** * @param hi2c: I2C handle pointer
 166:Core/Src/stm32l5xx_hal_msp.c **** * @retval None
 167:Core/Src/stm32l5xx_hal_msp.c **** */
 168:Core/Src/stm32l5xx_hal_msp.c **** void HAL_I2C_MspDeInit(I2C_HandleTypeDef* hi2c)
 169:Core/Src/stm32l5xx_hal_msp.c **** {
 335              		.loc 1 169 1 view -0
 336              		.cfi_startproc
 337              		@ args = 0, pretend = 0, frame = 0
 338              		@ frame_needed = 0, uses_anonymous_args = 0
 339              		.loc 1 169 1 is_stmt 0 view .LVU94
 340 0000 10B5     		push	{r4, lr}
 341              	.LCFI7:
 342              		.cfi_def_cfa_offset 8
ARM GAS  /tmp/cc83dAXL.s 			page 11


 343              		.cfi_offset 4, -8
 344              		.cfi_offset 14, -4
 170:Core/Src/stm32l5xx_hal_msp.c ****   if(hi2c->Instance==I2C1)
 345              		.loc 1 170 3 is_stmt 1 view .LVU95
 346              		.loc 1 170 10 is_stmt 0 view .LVU96
 347 0002 0368     		ldr	r3, [r0]
 348              		.loc 1 170 5 view .LVU97
 349 0004 154A     		ldr	r2, .L23
 350 0006 9342     		cmp	r3, r2
 351 0008 03D0     		beq	.L21
 171:Core/Src/stm32l5xx_hal_msp.c ****   {
 172:Core/Src/stm32l5xx_hal_msp.c ****   /* USER CODE BEGIN I2C1_MspDeInit 0 */
 173:Core/Src/stm32l5xx_hal_msp.c **** 
 174:Core/Src/stm32l5xx_hal_msp.c ****   /* USER CODE END I2C1_MspDeInit 0 */
 175:Core/Src/stm32l5xx_hal_msp.c ****     /* Peripheral clock disable */
 176:Core/Src/stm32l5xx_hal_msp.c ****     __HAL_RCC_I2C1_CLK_DISABLE();
 177:Core/Src/stm32l5xx_hal_msp.c **** 
 178:Core/Src/stm32l5xx_hal_msp.c ****     /**I2C1 GPIO Configuration
 179:Core/Src/stm32l5xx_hal_msp.c ****     PB8     ------> I2C1_SCL
 180:Core/Src/stm32l5xx_hal_msp.c ****     PB9     ------> I2C1_SDA
 181:Core/Src/stm32l5xx_hal_msp.c ****     */
 182:Core/Src/stm32l5xx_hal_msp.c ****     HAL_GPIO_DeInit(GPIOB, GPIO_PIN_8);
 183:Core/Src/stm32l5xx_hal_msp.c **** 
 184:Core/Src/stm32l5xx_hal_msp.c ****     HAL_GPIO_DeInit(GPIOB, GPIO_PIN_9);
 185:Core/Src/stm32l5xx_hal_msp.c **** 
 186:Core/Src/stm32l5xx_hal_msp.c ****   /* USER CODE BEGIN I2C1_MspDeInit 1 */
 187:Core/Src/stm32l5xx_hal_msp.c **** 
 188:Core/Src/stm32l5xx_hal_msp.c ****   /* USER CODE END I2C1_MspDeInit 1 */
 189:Core/Src/stm32l5xx_hal_msp.c ****   }
 190:Core/Src/stm32l5xx_hal_msp.c ****   else if(hi2c->Instance==I2C2)
 352              		.loc 1 190 8 is_stmt 1 view .LVU98
 353              		.loc 1 190 10 is_stmt 0 view .LVU99
 354 000a 154A     		ldr	r2, .L23+4
 355 000c 9342     		cmp	r3, r2
 356 000e 12D0     		beq	.L22
 357              	.LVL17:
 358              	.L17:
 191:Core/Src/stm32l5xx_hal_msp.c ****   {
 192:Core/Src/stm32l5xx_hal_msp.c ****   /* USER CODE BEGIN I2C2_MspDeInit 0 */
 193:Core/Src/stm32l5xx_hal_msp.c **** 
 194:Core/Src/stm32l5xx_hal_msp.c ****   /* USER CODE END I2C2_MspDeInit 0 */
 195:Core/Src/stm32l5xx_hal_msp.c ****     /* Peripheral clock disable */
 196:Core/Src/stm32l5xx_hal_msp.c ****     __HAL_RCC_I2C2_CLK_DISABLE();
 197:Core/Src/stm32l5xx_hal_msp.c **** 
 198:Core/Src/stm32l5xx_hal_msp.c ****     /**I2C2 GPIO Configuration
 199:Core/Src/stm32l5xx_hal_msp.c ****     PB13     ------> I2C2_SCL
 200:Core/Src/stm32l5xx_hal_msp.c ****     PB14     ------> I2C2_SDA
 201:Core/Src/stm32l5xx_hal_msp.c ****     */
 202:Core/Src/stm32l5xx_hal_msp.c ****     HAL_GPIO_DeInit(GPIOB, GPIO_PIN_13);
 203:Core/Src/stm32l5xx_hal_msp.c **** 
 204:Core/Src/stm32l5xx_hal_msp.c ****     HAL_GPIO_DeInit(GPIOB, GPIO_PIN_14);
 205:Core/Src/stm32l5xx_hal_msp.c **** 
 206:Core/Src/stm32l5xx_hal_msp.c ****   /* USER CODE BEGIN I2C2_MspDeInit 1 */
 207:Core/Src/stm32l5xx_hal_msp.c **** 
 208:Core/Src/stm32l5xx_hal_msp.c ****   /* USER CODE END I2C2_MspDeInit 1 */
 209:Core/Src/stm32l5xx_hal_msp.c ****   }
 210:Core/Src/stm32l5xx_hal_msp.c **** 
ARM GAS  /tmp/cc83dAXL.s 			page 12


 211:Core/Src/stm32l5xx_hal_msp.c **** }
 359              		.loc 1 211 1 view .LVU100
 360 0010 10BD     		pop	{r4, pc}
 361              	.LVL18:
 362              	.L21:
 176:Core/Src/stm32l5xx_hal_msp.c **** 
 363              		.loc 1 176 5 is_stmt 1 view .LVU101
 364 0012 02F5DE32 		add	r2, r2, #113664
 365 0016 936D     		ldr	r3, [r2, #88]
 366 0018 23F40013 		bic	r3, r3, #2097152
 367 001c 9365     		str	r3, [r2, #88]
 182:Core/Src/stm32l5xx_hal_msp.c **** 
 368              		.loc 1 182 5 view .LVU102
 369 001e 114C     		ldr	r4, .L23+8
 370 0020 4FF48071 		mov	r1, #256
 371 0024 2046     		mov	r0, r4
 372              	.LVL19:
 182:Core/Src/stm32l5xx_hal_msp.c **** 
 373              		.loc 1 182 5 is_stmt 0 view .LVU103
 374 0026 FFF7FEFF 		bl	HAL_GPIO_DeInit
 375              	.LVL20:
 184:Core/Src/stm32l5xx_hal_msp.c **** 
 376              		.loc 1 184 5 is_stmt 1 view .LVU104
 377 002a 4FF40071 		mov	r1, #512
 378 002e 2046     		mov	r0, r4
 379 0030 FFF7FEFF 		bl	HAL_GPIO_DeInit
 380              	.LVL21:
 381 0034 ECE7     		b	.L17
 382              	.LVL22:
 383              	.L22:
 196:Core/Src/stm32l5xx_hal_msp.c **** 
 384              		.loc 1 196 5 view .LVU105
 385 0036 02F5DC32 		add	r2, r2, #112640
 386 003a 936D     		ldr	r3, [r2, #88]
 387 003c 23F48003 		bic	r3, r3, #4194304
 388 0040 9365     		str	r3, [r2, #88]
 202:Core/Src/stm32l5xx_hal_msp.c **** 
 389              		.loc 1 202 5 view .LVU106
 390 0042 084C     		ldr	r4, .L23+8
 391 0044 4FF40051 		mov	r1, #8192
 392 0048 2046     		mov	r0, r4
 393              	.LVL23:
 202:Core/Src/stm32l5xx_hal_msp.c **** 
 394              		.loc 1 202 5 is_stmt 0 view .LVU107
 395 004a FFF7FEFF 		bl	HAL_GPIO_DeInit
 396              	.LVL24:
 204:Core/Src/stm32l5xx_hal_msp.c **** 
 397              		.loc 1 204 5 is_stmt 1 view .LVU108
 398 004e 4FF48041 		mov	r1, #16384
 399 0052 2046     		mov	r0, r4
 400 0054 FFF7FEFF 		bl	HAL_GPIO_DeInit
 401              	.LVL25:
 402              		.loc 1 211 1 is_stmt 0 view .LVU109
 403 0058 DAE7     		b	.L17
 404              	.L24:
 405 005a 00BF     		.align	2
 406              	.L23:
ARM GAS  /tmp/cc83dAXL.s 			page 13


 407 005c 00540040 		.word	1073763328
 408 0060 00580040 		.word	1073764352
 409 0064 00040242 		.word	1107428352
 410              		.cfi_endproc
 411              	.LFE158:
 413              		.section	.text.HAL_UART_MspInit,"ax",%progbits
 414              		.align	1
 415              		.global	HAL_UART_MspInit
 416              		.syntax unified
 417              		.thumb
 418              		.thumb_func
 420              	HAL_UART_MspInit:
 421              	.LVL26:
 422              	.LFB159:
 212:Core/Src/stm32l5xx_hal_msp.c **** 
 213:Core/Src/stm32l5xx_hal_msp.c **** /**
 214:Core/Src/stm32l5xx_hal_msp.c **** * @brief UART MSP Initialization
 215:Core/Src/stm32l5xx_hal_msp.c **** * This function configures the hardware resources used in this example
 216:Core/Src/stm32l5xx_hal_msp.c **** * @param huart: UART handle pointer
 217:Core/Src/stm32l5xx_hal_msp.c **** * @retval None
 218:Core/Src/stm32l5xx_hal_msp.c **** */
 219:Core/Src/stm32l5xx_hal_msp.c **** void HAL_UART_MspInit(UART_HandleTypeDef* huart)
 220:Core/Src/stm32l5xx_hal_msp.c **** {
 423              		.loc 1 220 1 is_stmt 1 view -0
 424              		.cfi_startproc
 425              		@ args = 0, pretend = 0, frame = 176
 426              		@ frame_needed = 0, uses_anonymous_args = 0
 427              		.loc 1 220 1 is_stmt 0 view .LVU111
 428 0000 10B5     		push	{r4, lr}
 429              	.LCFI8:
 430              		.cfi_def_cfa_offset 8
 431              		.cfi_offset 4, -8
 432              		.cfi_offset 14, -4
 433 0002 ACB0     		sub	sp, sp, #176
 434              	.LCFI9:
 435              		.cfi_def_cfa_offset 184
 436 0004 0446     		mov	r4, r0
 221:Core/Src/stm32l5xx_hal_msp.c ****   GPIO_InitTypeDef GPIO_InitStruct = {0};
 437              		.loc 1 221 3 is_stmt 1 view .LVU112
 438              		.loc 1 221 20 is_stmt 0 view .LVU113
 439 0006 0021     		movs	r1, #0
 440 0008 2791     		str	r1, [sp, #156]
 441 000a 2891     		str	r1, [sp, #160]
 442 000c 2991     		str	r1, [sp, #164]
 443 000e 2A91     		str	r1, [sp, #168]
 444 0010 2B91     		str	r1, [sp, #172]
 222:Core/Src/stm32l5xx_hal_msp.c ****   RCC_PeriphCLKInitTypeDef PeriphClkInit = {0};
 445              		.loc 1 222 3 is_stmt 1 view .LVU114
 446              		.loc 1 222 28 is_stmt 0 view .LVU115
 447 0012 9422     		movs	r2, #148
 448 0014 02A8     		add	r0, sp, #8
 449              	.LVL27:
 450              		.loc 1 222 28 view .LVU116
 451 0016 FFF7FEFF 		bl	memset
 452              	.LVL28:
 223:Core/Src/stm32l5xx_hal_msp.c ****   if(huart->Instance==USART3)
 453              		.loc 1 223 3 is_stmt 1 view .LVU117
ARM GAS  /tmp/cc83dAXL.s 			page 14


 454              		.loc 1 223 11 is_stmt 0 view .LVU118
 455 001a 2268     		ldr	r2, [r4]
 456              		.loc 1 223 5 view .LVU119
 457 001c 184B     		ldr	r3, .L31
 458 001e 9A42     		cmp	r2, r3
 459 0020 01D0     		beq	.L29
 460              	.L25:
 224:Core/Src/stm32l5xx_hal_msp.c ****   {
 225:Core/Src/stm32l5xx_hal_msp.c ****   /* USER CODE BEGIN USART3_MspInit 0 */
 226:Core/Src/stm32l5xx_hal_msp.c **** 
 227:Core/Src/stm32l5xx_hal_msp.c ****   /* USER CODE END USART3_MspInit 0 */
 228:Core/Src/stm32l5xx_hal_msp.c **** 
 229:Core/Src/stm32l5xx_hal_msp.c ****   /** Initializes the peripherals clock
 230:Core/Src/stm32l5xx_hal_msp.c ****   */
 231:Core/Src/stm32l5xx_hal_msp.c ****     PeriphClkInit.PeriphClockSelection = RCC_PERIPHCLK_USART3;
 232:Core/Src/stm32l5xx_hal_msp.c ****     PeriphClkInit.Usart3ClockSelection = RCC_USART3CLKSOURCE_HSI;
 233:Core/Src/stm32l5xx_hal_msp.c ****     if (HAL_RCCEx_PeriphCLKConfig(&PeriphClkInit) != HAL_OK)
 234:Core/Src/stm32l5xx_hal_msp.c ****     {
 235:Core/Src/stm32l5xx_hal_msp.c ****       Error_Handler();
 236:Core/Src/stm32l5xx_hal_msp.c ****     }
 237:Core/Src/stm32l5xx_hal_msp.c **** 
 238:Core/Src/stm32l5xx_hal_msp.c ****     /* Peripheral clock enable */
 239:Core/Src/stm32l5xx_hal_msp.c ****     __HAL_RCC_USART3_CLK_ENABLE();
 240:Core/Src/stm32l5xx_hal_msp.c **** 
 241:Core/Src/stm32l5xx_hal_msp.c ****     __HAL_RCC_GPIOB_CLK_ENABLE();
 242:Core/Src/stm32l5xx_hal_msp.c ****     /**USART3 GPIO Configuration
 243:Core/Src/stm32l5xx_hal_msp.c ****     PB10     ------> USART3_TX
 244:Core/Src/stm32l5xx_hal_msp.c ****     PB11     ------> USART3_RX
 245:Core/Src/stm32l5xx_hal_msp.c ****     */
 246:Core/Src/stm32l5xx_hal_msp.c ****     GPIO_InitStruct.Pin = GPIO_PIN_10|GPIO_PIN_11;
 247:Core/Src/stm32l5xx_hal_msp.c ****     GPIO_InitStruct.Mode = GPIO_MODE_AF_PP;
 248:Core/Src/stm32l5xx_hal_msp.c ****     GPIO_InitStruct.Pull = GPIO_NOPULL;
 249:Core/Src/stm32l5xx_hal_msp.c ****     GPIO_InitStruct.Speed = GPIO_SPEED_FREQ_LOW;
 250:Core/Src/stm32l5xx_hal_msp.c ****     GPIO_InitStruct.Alternate = GPIO_AF7_USART3;
 251:Core/Src/stm32l5xx_hal_msp.c ****     HAL_GPIO_Init(GPIOB, &GPIO_InitStruct);
 252:Core/Src/stm32l5xx_hal_msp.c **** 
 253:Core/Src/stm32l5xx_hal_msp.c ****   /* USER CODE BEGIN USART3_MspInit 1 */
 254:Core/Src/stm32l5xx_hal_msp.c **** 
 255:Core/Src/stm32l5xx_hal_msp.c ****   /* USER CODE END USART3_MspInit 1 */
 256:Core/Src/stm32l5xx_hal_msp.c ****   }
 257:Core/Src/stm32l5xx_hal_msp.c **** 
 258:Core/Src/stm32l5xx_hal_msp.c **** }
 461              		.loc 1 258 1 view .LVU120
 462 0022 2CB0     		add	sp, sp, #176
 463              	.LCFI10:
 464              		.cfi_remember_state
 465              		.cfi_def_cfa_offset 8
 466              		@ sp needed
 467 0024 10BD     		pop	{r4, pc}
 468              	.LVL29:
 469              	.L29:
 470              	.LCFI11:
 471              		.cfi_restore_state
 231:Core/Src/stm32l5xx_hal_msp.c ****     PeriphClkInit.Usart3ClockSelection = RCC_USART3CLKSOURCE_HSI;
 472              		.loc 1 231 5 is_stmt 1 view .LVU121
 231:Core/Src/stm32l5xx_hal_msp.c ****     PeriphClkInit.Usart3ClockSelection = RCC_USART3CLKSOURCE_HSI;
 473              		.loc 1 231 40 is_stmt 0 view .LVU122
ARM GAS  /tmp/cc83dAXL.s 			page 15


 474 0026 0423     		movs	r3, #4
 475 0028 0293     		str	r3, [sp, #8]
 232:Core/Src/stm32l5xx_hal_msp.c ****     if (HAL_RCCEx_PeriphCLKConfig(&PeriphClkInit) != HAL_OK)
 476              		.loc 1 232 5 is_stmt 1 view .LVU123
 232:Core/Src/stm32l5xx_hal_msp.c ****     if (HAL_RCCEx_PeriphCLKConfig(&PeriphClkInit) != HAL_OK)
 477              		.loc 1 232 40 is_stmt 0 view .LVU124
 478 002a 2023     		movs	r3, #32
 479 002c 1193     		str	r3, [sp, #68]
 233:Core/Src/stm32l5xx_hal_msp.c ****     {
 480              		.loc 1 233 5 is_stmt 1 view .LVU125
 233:Core/Src/stm32l5xx_hal_msp.c ****     {
 481              		.loc 1 233 9 is_stmt 0 view .LVU126
 482 002e 02A8     		add	r0, sp, #8
 483 0030 FFF7FEFF 		bl	HAL_RCCEx_PeriphCLKConfig
 484              	.LVL30:
 233:Core/Src/stm32l5xx_hal_msp.c ****     {
 485              		.loc 1 233 8 view .LVU127
 486 0034 08BB     		cbnz	r0, .L30
 487              	.L27:
 239:Core/Src/stm32l5xx_hal_msp.c **** 
 488              		.loc 1 239 5 is_stmt 1 view .LVU128
 489              	.LBB8:
 239:Core/Src/stm32l5xx_hal_msp.c **** 
 490              		.loc 1 239 5 view .LVU129
 239:Core/Src/stm32l5xx_hal_msp.c **** 
 491              		.loc 1 239 5 view .LVU130
 492 0036 134B     		ldr	r3, .L31+4
 493 0038 9A6D     		ldr	r2, [r3, #88]
 494 003a 42F48022 		orr	r2, r2, #262144
 495 003e 9A65     		str	r2, [r3, #88]
 239:Core/Src/stm32l5xx_hal_msp.c **** 
 496              		.loc 1 239 5 view .LVU131
 497 0040 9A6D     		ldr	r2, [r3, #88]
 498 0042 02F48022 		and	r2, r2, #262144
 499 0046 0092     		str	r2, [sp]
 239:Core/Src/stm32l5xx_hal_msp.c **** 
 500              		.loc 1 239 5 view .LVU132
 501 0048 009A     		ldr	r2, [sp]
 502              	.LBE8:
 239:Core/Src/stm32l5xx_hal_msp.c **** 
 503              		.loc 1 239 5 view .LVU133
 241:Core/Src/stm32l5xx_hal_msp.c ****     /**USART3 GPIO Configuration
 504              		.loc 1 241 5 view .LVU134
 505              	.LBB9:
 241:Core/Src/stm32l5xx_hal_msp.c ****     /**USART3 GPIO Configuration
 506              		.loc 1 241 5 view .LVU135
 241:Core/Src/stm32l5xx_hal_msp.c ****     /**USART3 GPIO Configuration
 507              		.loc 1 241 5 view .LVU136
 508 004a DA6C     		ldr	r2, [r3, #76]
 509 004c 42F00202 		orr	r2, r2, #2
 510 0050 DA64     		str	r2, [r3, #76]
 241:Core/Src/stm32l5xx_hal_msp.c ****     /**USART3 GPIO Configuration
 511              		.loc 1 241 5 view .LVU137
 512 0052 DB6C     		ldr	r3, [r3, #76]
 513 0054 03F00203 		and	r3, r3, #2
 514 0058 0193     		str	r3, [sp, #4]
 241:Core/Src/stm32l5xx_hal_msp.c ****     /**USART3 GPIO Configuration
ARM GAS  /tmp/cc83dAXL.s 			page 16


 515              		.loc 1 241 5 view .LVU138
 516 005a 019B     		ldr	r3, [sp, #4]
 517              	.LBE9:
 241:Core/Src/stm32l5xx_hal_msp.c ****     /**USART3 GPIO Configuration
 518              		.loc 1 241 5 view .LVU139
 246:Core/Src/stm32l5xx_hal_msp.c ****     GPIO_InitStruct.Mode = GPIO_MODE_AF_PP;
 519              		.loc 1 246 5 view .LVU140
 246:Core/Src/stm32l5xx_hal_msp.c ****     GPIO_InitStruct.Mode = GPIO_MODE_AF_PP;
 520              		.loc 1 246 25 is_stmt 0 view .LVU141
 521 005c 4FF44063 		mov	r3, #3072
 522 0060 2793     		str	r3, [sp, #156]
 247:Core/Src/stm32l5xx_hal_msp.c ****     GPIO_InitStruct.Pull = GPIO_NOPULL;
 523              		.loc 1 247 5 is_stmt 1 view .LVU142
 247:Core/Src/stm32l5xx_hal_msp.c ****     GPIO_InitStruct.Pull = GPIO_NOPULL;
 524              		.loc 1 247 26 is_stmt 0 view .LVU143
 525 0062 0223     		movs	r3, #2
 526 0064 2893     		str	r3, [sp, #160]
 248:Core/Src/stm32l5xx_hal_msp.c ****     GPIO_InitStruct.Speed = GPIO_SPEED_FREQ_LOW;
 527              		.loc 1 248 5 is_stmt 1 view .LVU144
 248:Core/Src/stm32l5xx_hal_msp.c ****     GPIO_InitStruct.Speed = GPIO_SPEED_FREQ_LOW;
 528              		.loc 1 248 26 is_stmt 0 view .LVU145
 529 0066 0023     		movs	r3, #0
 530 0068 2993     		str	r3, [sp, #164]
 249:Core/Src/stm32l5xx_hal_msp.c ****     GPIO_InitStruct.Alternate = GPIO_AF7_USART3;
 531              		.loc 1 249 5 is_stmt 1 view .LVU146
 249:Core/Src/stm32l5xx_hal_msp.c ****     GPIO_InitStruct.Alternate = GPIO_AF7_USART3;
 532              		.loc 1 249 27 is_stmt 0 view .LVU147
 533 006a 2A93     		str	r3, [sp, #168]
 250:Core/Src/stm32l5xx_hal_msp.c ****     HAL_GPIO_Init(GPIOB, &GPIO_InitStruct);
 534              		.loc 1 250 5 is_stmt 1 view .LVU148
 250:Core/Src/stm32l5xx_hal_msp.c ****     HAL_GPIO_Init(GPIOB, &GPIO_InitStruct);
 535              		.loc 1 250 31 is_stmt 0 view .LVU149
 536 006c 0723     		movs	r3, #7
 537 006e 2B93     		str	r3, [sp, #172]
 251:Core/Src/stm32l5xx_hal_msp.c **** 
 538              		.loc 1 251 5 is_stmt 1 view .LVU150
 539 0070 27A9     		add	r1, sp, #156
 540 0072 0548     		ldr	r0, .L31+8
 541 0074 FFF7FEFF 		bl	HAL_GPIO_Init
 542              	.LVL31:
 543              		.loc 1 258 1 is_stmt 0 view .LVU151
 544 0078 D3E7     		b	.L25
 545              	.L30:
 235:Core/Src/stm32l5xx_hal_msp.c ****     }
 546              		.loc 1 235 7 is_stmt 1 view .LVU152
 547 007a FFF7FEFF 		bl	Error_Handler
 548              	.LVL32:
 549 007e DAE7     		b	.L27
 550              	.L32:
 551              		.align	2
 552              	.L31:
 553 0080 00480040 		.word	1073760256
 554 0084 00100240 		.word	1073876992
 555 0088 00040242 		.word	1107428352
 556              		.cfi_endproc
 557              	.LFE159:
 559              		.section	.text.HAL_UART_MspDeInit,"ax",%progbits
ARM GAS  /tmp/cc83dAXL.s 			page 17


 560              		.align	1
 561              		.global	HAL_UART_MspDeInit
 562              		.syntax unified
 563              		.thumb
 564              		.thumb_func
 566              	HAL_UART_MspDeInit:
 567              	.LVL33:
 568              	.LFB160:
 259:Core/Src/stm32l5xx_hal_msp.c **** 
 260:Core/Src/stm32l5xx_hal_msp.c **** /**
 261:Core/Src/stm32l5xx_hal_msp.c **** * @brief UART MSP De-Initialization
 262:Core/Src/stm32l5xx_hal_msp.c **** * This function freeze the hardware resources used in this example
 263:Core/Src/stm32l5xx_hal_msp.c **** * @param huart: UART handle pointer
 264:Core/Src/stm32l5xx_hal_msp.c **** * @retval None
 265:Core/Src/stm32l5xx_hal_msp.c **** */
 266:Core/Src/stm32l5xx_hal_msp.c **** void HAL_UART_MspDeInit(UART_HandleTypeDef* huart)
 267:Core/Src/stm32l5xx_hal_msp.c **** {
 569              		.loc 1 267 1 view -0
 570              		.cfi_startproc
 571              		@ args = 0, pretend = 0, frame = 0
 572              		@ frame_needed = 0, uses_anonymous_args = 0
 573              		.loc 1 267 1 is_stmt 0 view .LVU154
 574 0000 08B5     		push	{r3, lr}
 575              	.LCFI12:
 576              		.cfi_def_cfa_offset 8
 577              		.cfi_offset 3, -8
 578              		.cfi_offset 14, -4
 268:Core/Src/stm32l5xx_hal_msp.c ****   if(huart->Instance==USART3)
 579              		.loc 1 268 3 is_stmt 1 view .LVU155
 580              		.loc 1 268 11 is_stmt 0 view .LVU156
 581 0002 0268     		ldr	r2, [r0]
 582              		.loc 1 268 5 view .LVU157
 583 0004 074B     		ldr	r3, .L37
 584 0006 9A42     		cmp	r2, r3
 585 0008 00D0     		beq	.L36
 586              	.LVL34:
 587              	.L33:
 269:Core/Src/stm32l5xx_hal_msp.c ****   {
 270:Core/Src/stm32l5xx_hal_msp.c ****   /* USER CODE BEGIN USART3_MspDeInit 0 */
 271:Core/Src/stm32l5xx_hal_msp.c **** 
 272:Core/Src/stm32l5xx_hal_msp.c ****   /* USER CODE END USART3_MspDeInit 0 */
 273:Core/Src/stm32l5xx_hal_msp.c ****     /* Peripheral clock disable */
 274:Core/Src/stm32l5xx_hal_msp.c ****     __HAL_RCC_USART3_CLK_DISABLE();
 275:Core/Src/stm32l5xx_hal_msp.c **** 
 276:Core/Src/stm32l5xx_hal_msp.c ****     /**USART3 GPIO Configuration
 277:Core/Src/stm32l5xx_hal_msp.c ****     PB10     ------> USART3_TX
 278:Core/Src/stm32l5xx_hal_msp.c ****     PB11     ------> USART3_RX
 279:Core/Src/stm32l5xx_hal_msp.c ****     */
 280:Core/Src/stm32l5xx_hal_msp.c ****     HAL_GPIO_DeInit(GPIOB, GPIO_PIN_10|GPIO_PIN_11);
 281:Core/Src/stm32l5xx_hal_msp.c **** 
 282:Core/Src/stm32l5xx_hal_msp.c ****   /* USER CODE BEGIN USART3_MspDeInit 1 */
 283:Core/Src/stm32l5xx_hal_msp.c **** 
 284:Core/Src/stm32l5xx_hal_msp.c ****   /* USER CODE END USART3_MspDeInit 1 */
 285:Core/Src/stm32l5xx_hal_msp.c ****   }
 286:Core/Src/stm32l5xx_hal_msp.c **** 
 287:Core/Src/stm32l5xx_hal_msp.c **** }
 588              		.loc 1 287 1 view .LVU158
ARM GAS  /tmp/cc83dAXL.s 			page 18


 589 000a 08BD     		pop	{r3, pc}
 590              	.LVL35:
 591              	.L36:
 274:Core/Src/stm32l5xx_hal_msp.c **** 
 592              		.loc 1 274 5 is_stmt 1 view .LVU159
 593 000c 064A     		ldr	r2, .L37+4
 594 000e 936D     		ldr	r3, [r2, #88]
 595 0010 23F48023 		bic	r3, r3, #262144
 596 0014 9365     		str	r3, [r2, #88]
 280:Core/Src/stm32l5xx_hal_msp.c **** 
 597              		.loc 1 280 5 view .LVU160
 598 0016 4FF44061 		mov	r1, #3072
 599 001a 0448     		ldr	r0, .L37+8
 600              	.LVL36:
 280:Core/Src/stm32l5xx_hal_msp.c **** 
 601              		.loc 1 280 5 is_stmt 0 view .LVU161
 602 001c FFF7FEFF 		bl	HAL_GPIO_DeInit
 603              	.LVL37:
 604              		.loc 1 287 1 view .LVU162
 605 0020 F3E7     		b	.L33
 606              	.L38:
 607 0022 00BF     		.align	2
 608              	.L37:
 609 0024 00480040 		.word	1073760256
 610 0028 00100240 		.word	1073876992
 611 002c 00040242 		.word	1107428352
 612              		.cfi_endproc
 613              	.LFE160:
 615              		.text
 616              	.Letext0:
 617              		.file 2 "/home/yul/toolchain/arm-gnu-toolchain-12.2.rel1-x86_64-arm-none-eabi/arm-none-eabi/includ
 618              		.file 3 "/home/yul/toolchain/arm-gnu-toolchain-12.2.rel1-x86_64-arm-none-eabi/arm-none-eabi/includ
 619              		.file 4 "Drivers/CMSIS/Device/ST/STM32L5xx/Include/stm32l562xx.h"
 620              		.file 5 "Drivers/STM32L5xx_HAL_Driver/Inc/stm32l5xx_hal_def.h"
 621              		.file 6 "Drivers/STM32L5xx_HAL_Driver/Inc/stm32l5xx_hal_rcc_ex.h"
 622              		.file 7 "Drivers/STM32L5xx_HAL_Driver/Inc/stm32l5xx_hal_gpio.h"
 623              		.file 8 "Drivers/STM32L5xx_HAL_Driver/Inc/stm32l5xx_hal_dma.h"
 624              		.file 9 "Drivers/STM32L5xx_HAL_Driver/Inc/stm32l5xx_hal_i2c.h"
 625              		.file 10 "Drivers/STM32L5xx_HAL_Driver/Inc/stm32l5xx_hal_uart.h"
 626              		.file 11 "Core/Inc/main.h"
 627              		.file 12 "Drivers/STM32L5xx_HAL_Driver/Inc/stm32l5xx_hal_pwr_ex.h"
 628              		.file 13 "<built-in>"
ARM GAS  /tmp/cc83dAXL.s 			page 19

