ARM GAS  /tmp/ccQg3iPh.s 			page 1


   1              		.cpu cortex-m33
   2              		.arch armv8-m.main
   3              		.fpu fpv4-sp-d16
   4              		.arch_extension dsp
   5              		.eabi_attribute 27, 1
   6              		.eabi_attribute 28, 1
   7              		.eabi_attribute 20, 1
   8              		.eabi_attribute 21, 1
   9              		.eabi_attribute 23, 3
  10              		.eabi_attribute 24, 1
  11              		.eabi_attribute 25, 1
  12              		.eabi_attribute 26, 1
  13              		.eabi_attribute 30, 1
  14              		.eabi_attribute 34, 1
  15              		.eabi_attribute 18, 4
  16              		.file	"stm32l5xx_ll_usb.c"
  17              		.text
  18              	.Ltext0:
  19              		.cfi_sections	.debug_frame
  20              		.file 1 "Drivers/STM32L5xx_HAL_Driver/Src/stm32l5xx_ll_usb.c"
  21              		.section	.text.USB_CoreInit,"ax",%progbits
  22              		.align	1
  23              		.global	USB_CoreInit
  24              		.syntax unified
  25              		.thumb
  26              		.thumb_func
  28              	USB_CoreInit:
  29              	.LVL0:
  30              	.LFB152:
   1:Drivers/STM32L5xx_HAL_Driver/Src/stm32l5xx_ll_usb.c **** /**
   2:Drivers/STM32L5xx_HAL_Driver/Src/stm32l5xx_ll_usb.c ****   ******************************************************************************
   3:Drivers/STM32L5xx_HAL_Driver/Src/stm32l5xx_ll_usb.c ****   * @file    stm32l5xx_ll_usb.c
   4:Drivers/STM32L5xx_HAL_Driver/Src/stm32l5xx_ll_usb.c ****   * @author  MCD Application Team
   5:Drivers/STM32L5xx_HAL_Driver/Src/stm32l5xx_ll_usb.c ****   * @brief   USB Low Layer HAL module driver.
   6:Drivers/STM32L5xx_HAL_Driver/Src/stm32l5xx_ll_usb.c ****   *
   7:Drivers/STM32L5xx_HAL_Driver/Src/stm32l5xx_ll_usb.c ****   *          This file provides firmware functions to manage the following
   8:Drivers/STM32L5xx_HAL_Driver/Src/stm32l5xx_ll_usb.c ****   *          functionalities of the USB Peripheral Controller:
   9:Drivers/STM32L5xx_HAL_Driver/Src/stm32l5xx_ll_usb.c ****   *           + Initialization/de-initialization functions
  10:Drivers/STM32L5xx_HAL_Driver/Src/stm32l5xx_ll_usb.c ****   *           + I/O operation functions
  11:Drivers/STM32L5xx_HAL_Driver/Src/stm32l5xx_ll_usb.c ****   *           + Peripheral Control functions
  12:Drivers/STM32L5xx_HAL_Driver/Src/stm32l5xx_ll_usb.c ****   *           + Peripheral State functions
  13:Drivers/STM32L5xx_HAL_Driver/Src/stm32l5xx_ll_usb.c ****   *
  14:Drivers/STM32L5xx_HAL_Driver/Src/stm32l5xx_ll_usb.c ****   ******************************************************************************
  15:Drivers/STM32L5xx_HAL_Driver/Src/stm32l5xx_ll_usb.c ****   * @attention
  16:Drivers/STM32L5xx_HAL_Driver/Src/stm32l5xx_ll_usb.c ****   *
  17:Drivers/STM32L5xx_HAL_Driver/Src/stm32l5xx_ll_usb.c ****   * Copyright (c) 2019 STMicroelectronics.
  18:Drivers/STM32L5xx_HAL_Driver/Src/stm32l5xx_ll_usb.c ****   * All rights reserved.
  19:Drivers/STM32L5xx_HAL_Driver/Src/stm32l5xx_ll_usb.c ****   *
  20:Drivers/STM32L5xx_HAL_Driver/Src/stm32l5xx_ll_usb.c ****   * This software is licensed under terms that can be found in the LICENSE file
  21:Drivers/STM32L5xx_HAL_Driver/Src/stm32l5xx_ll_usb.c ****   * in the root directory of this software component.
  22:Drivers/STM32L5xx_HAL_Driver/Src/stm32l5xx_ll_usb.c ****   * If no LICENSE file comes with this software, it is provided AS-IS.
  23:Drivers/STM32L5xx_HAL_Driver/Src/stm32l5xx_ll_usb.c ****   *
  24:Drivers/STM32L5xx_HAL_Driver/Src/stm32l5xx_ll_usb.c ****   ******************************************************************************
  25:Drivers/STM32L5xx_HAL_Driver/Src/stm32l5xx_ll_usb.c ****   @verbatim
  26:Drivers/STM32L5xx_HAL_Driver/Src/stm32l5xx_ll_usb.c ****   ==============================================================================
  27:Drivers/STM32L5xx_HAL_Driver/Src/stm32l5xx_ll_usb.c ****                     ##### How to use this driver #####
  28:Drivers/STM32L5xx_HAL_Driver/Src/stm32l5xx_ll_usb.c ****   ==============================================================================
ARM GAS  /tmp/ccQg3iPh.s 			page 2


  29:Drivers/STM32L5xx_HAL_Driver/Src/stm32l5xx_ll_usb.c ****     [..]
  30:Drivers/STM32L5xx_HAL_Driver/Src/stm32l5xx_ll_usb.c ****       (#) Fill parameters of Init structure in USB_CfgTypeDef structure.
  31:Drivers/STM32L5xx_HAL_Driver/Src/stm32l5xx_ll_usb.c **** 
  32:Drivers/STM32L5xx_HAL_Driver/Src/stm32l5xx_ll_usb.c ****       (#) Call USB_CoreInit() API to initialize the USB Core peripheral.
  33:Drivers/STM32L5xx_HAL_Driver/Src/stm32l5xx_ll_usb.c **** 
  34:Drivers/STM32L5xx_HAL_Driver/Src/stm32l5xx_ll_usb.c ****       (#) The upper HAL HCD/PCD driver will call the right routines for its internal processes.
  35:Drivers/STM32L5xx_HAL_Driver/Src/stm32l5xx_ll_usb.c **** 
  36:Drivers/STM32L5xx_HAL_Driver/Src/stm32l5xx_ll_usb.c ****   @endverbatim
  37:Drivers/STM32L5xx_HAL_Driver/Src/stm32l5xx_ll_usb.c **** 
  38:Drivers/STM32L5xx_HAL_Driver/Src/stm32l5xx_ll_usb.c ****   ******************************************************************************
  39:Drivers/STM32L5xx_HAL_Driver/Src/stm32l5xx_ll_usb.c ****   */
  40:Drivers/STM32L5xx_HAL_Driver/Src/stm32l5xx_ll_usb.c **** 
  41:Drivers/STM32L5xx_HAL_Driver/Src/stm32l5xx_ll_usb.c **** /* Includes ------------------------------------------------------------------*/
  42:Drivers/STM32L5xx_HAL_Driver/Src/stm32l5xx_ll_usb.c **** #include "stm32l5xx_hal.h"
  43:Drivers/STM32L5xx_HAL_Driver/Src/stm32l5xx_ll_usb.c **** 
  44:Drivers/STM32L5xx_HAL_Driver/Src/stm32l5xx_ll_usb.c **** /** @addtogroup STM32L5xx_LL_USB_DRIVER
  45:Drivers/STM32L5xx_HAL_Driver/Src/stm32l5xx_ll_usb.c ****   * @{
  46:Drivers/STM32L5xx_HAL_Driver/Src/stm32l5xx_ll_usb.c ****   */
  47:Drivers/STM32L5xx_HAL_Driver/Src/stm32l5xx_ll_usb.c **** 
  48:Drivers/STM32L5xx_HAL_Driver/Src/stm32l5xx_ll_usb.c **** #if defined (HAL_PCD_MODULE_ENABLED) || defined (HAL_HCD_MODULE_ENABLED)
  49:Drivers/STM32L5xx_HAL_Driver/Src/stm32l5xx_ll_usb.c **** #if defined (USB)
  50:Drivers/STM32L5xx_HAL_Driver/Src/stm32l5xx_ll_usb.c **** /* Private typedef -----------------------------------------------------------*/
  51:Drivers/STM32L5xx_HAL_Driver/Src/stm32l5xx_ll_usb.c **** /* Private define ------------------------------------------------------------*/
  52:Drivers/STM32L5xx_HAL_Driver/Src/stm32l5xx_ll_usb.c **** /* Private macro -------------------------------------------------------------*/
  53:Drivers/STM32L5xx_HAL_Driver/Src/stm32l5xx_ll_usb.c **** /* Private variables ---------------------------------------------------------*/
  54:Drivers/STM32L5xx_HAL_Driver/Src/stm32l5xx_ll_usb.c **** /* Private function prototypes -----------------------------------------------*/
  55:Drivers/STM32L5xx_HAL_Driver/Src/stm32l5xx_ll_usb.c **** /* Private functions ---------------------------------------------------------*/
  56:Drivers/STM32L5xx_HAL_Driver/Src/stm32l5xx_ll_usb.c **** 
  57:Drivers/STM32L5xx_HAL_Driver/Src/stm32l5xx_ll_usb.c **** /**
  58:Drivers/STM32L5xx_HAL_Driver/Src/stm32l5xx_ll_usb.c ****   * @brief  Initializes the USB Core
  59:Drivers/STM32L5xx_HAL_Driver/Src/stm32l5xx_ll_usb.c ****   * @param  USBx USB Instance
  60:Drivers/STM32L5xx_HAL_Driver/Src/stm32l5xx_ll_usb.c ****   * @param  cfg pointer to a USB_CfgTypeDef structure that contains
  61:Drivers/STM32L5xx_HAL_Driver/Src/stm32l5xx_ll_usb.c ****   *         the configuration information for the specified USBx peripheral.
  62:Drivers/STM32L5xx_HAL_Driver/Src/stm32l5xx_ll_usb.c ****   * @retval HAL status
  63:Drivers/STM32L5xx_HAL_Driver/Src/stm32l5xx_ll_usb.c ****   */
  64:Drivers/STM32L5xx_HAL_Driver/Src/stm32l5xx_ll_usb.c **** HAL_StatusTypeDef USB_CoreInit(USB_TypeDef *USBx, USB_CfgTypeDef cfg)
  65:Drivers/STM32L5xx_HAL_Driver/Src/stm32l5xx_ll_usb.c **** {
  31              		.loc 1 65 1 view -0
  32              		.cfi_startproc
  33              		@ args = 36, pretend = 16, frame = 0
  34              		@ frame_needed = 0, uses_anonymous_args = 0
  35              		@ link register save eliminated.
  36              		.loc 1 65 1 is_stmt 0 view .LVU1
  37 0000 84B0     		sub	sp, sp, #16
  38              	.LCFI0:
  39              		.cfi_def_cfa_offset 16
  40 0002 01A8     		add	r0, sp, #4
  41              	.LVL1:
  42              		.loc 1 65 1 view .LVU2
  43 0004 80E80E00 		stm	r0, {r1, r2, r3}
  66:Drivers/STM32L5xx_HAL_Driver/Src/stm32l5xx_ll_usb.c ****   /* Prevent unused argument(s) compilation warning */
  67:Drivers/STM32L5xx_HAL_Driver/Src/stm32l5xx_ll_usb.c ****   UNUSED(USBx);
  44              		.loc 1 67 3 is_stmt 1 view .LVU3
  68:Drivers/STM32L5xx_HAL_Driver/Src/stm32l5xx_ll_usb.c ****   UNUSED(cfg);
  45              		.loc 1 68 3 view .LVU4
  69:Drivers/STM32L5xx_HAL_Driver/Src/stm32l5xx_ll_usb.c **** 
  70:Drivers/STM32L5xx_HAL_Driver/Src/stm32l5xx_ll_usb.c ****   /* NOTE : - This function is not required by USB Device FS peripheral, it is used
ARM GAS  /tmp/ccQg3iPh.s 			page 3


  71:Drivers/STM32L5xx_HAL_Driver/Src/stm32l5xx_ll_usb.c ****               only by USB OTG FS peripheral.
  72:Drivers/STM32L5xx_HAL_Driver/Src/stm32l5xx_ll_usb.c ****             - This function is added to ensure compatibility across platforms.
  73:Drivers/STM32L5xx_HAL_Driver/Src/stm32l5xx_ll_usb.c ****    */
  74:Drivers/STM32L5xx_HAL_Driver/Src/stm32l5xx_ll_usb.c **** 
  75:Drivers/STM32L5xx_HAL_Driver/Src/stm32l5xx_ll_usb.c ****   return HAL_OK;
  46              		.loc 1 75 3 view .LVU5
  76:Drivers/STM32L5xx_HAL_Driver/Src/stm32l5xx_ll_usb.c **** }
  47              		.loc 1 76 1 is_stmt 0 view .LVU6
  48 0008 0020     		movs	r0, #0
  49 000a 04B0     		add	sp, sp, #16
  50              	.LCFI1:
  51              		.cfi_def_cfa_offset 0
  52 000c 7047     		bx	lr
  53              		.cfi_endproc
  54              	.LFE152:
  56              		.section	.text.USB_EnableGlobalInt,"ax",%progbits
  57              		.align	1
  58              		.global	USB_EnableGlobalInt
  59              		.syntax unified
  60              		.thumb
  61              		.thumb_func
  63              	USB_EnableGlobalInt:
  64              	.LVL2:
  65              	.LFB153:
  77:Drivers/STM32L5xx_HAL_Driver/Src/stm32l5xx_ll_usb.c **** 
  78:Drivers/STM32L5xx_HAL_Driver/Src/stm32l5xx_ll_usb.c **** /**
  79:Drivers/STM32L5xx_HAL_Driver/Src/stm32l5xx_ll_usb.c ****   * @brief  USB_EnableGlobalInt
  80:Drivers/STM32L5xx_HAL_Driver/Src/stm32l5xx_ll_usb.c ****   *         Enables the controller's Global Int in the AHB Config reg
  81:Drivers/STM32L5xx_HAL_Driver/Src/stm32l5xx_ll_usb.c ****   * @param  USBx Selected device
  82:Drivers/STM32L5xx_HAL_Driver/Src/stm32l5xx_ll_usb.c ****   * @retval HAL status
  83:Drivers/STM32L5xx_HAL_Driver/Src/stm32l5xx_ll_usb.c ****   */
  84:Drivers/STM32L5xx_HAL_Driver/Src/stm32l5xx_ll_usb.c **** HAL_StatusTypeDef USB_EnableGlobalInt(USB_TypeDef *USBx)
  85:Drivers/STM32L5xx_HAL_Driver/Src/stm32l5xx_ll_usb.c **** {
  66              		.loc 1 85 1 is_stmt 1 view -0
  67              		.cfi_startproc
  68              		@ args = 0, pretend = 0, frame = 0
  69              		@ frame_needed = 0, uses_anonymous_args = 0
  70              		@ link register save eliminated.
  71              		.loc 1 85 1 is_stmt 0 view .LVU8
  72 0000 0346     		mov	r3, r0
  86:Drivers/STM32L5xx_HAL_Driver/Src/stm32l5xx_ll_usb.c ****   uint32_t winterruptmask;
  73              		.loc 1 86 3 is_stmt 1 view .LVU9
  87:Drivers/STM32L5xx_HAL_Driver/Src/stm32l5xx_ll_usb.c **** 
  88:Drivers/STM32L5xx_HAL_Driver/Src/stm32l5xx_ll_usb.c ****   /* Clear pending interrupts */
  89:Drivers/STM32L5xx_HAL_Driver/Src/stm32l5xx_ll_usb.c ****   USBx->ISTR = 0U;
  74              		.loc 1 89 3 view .LVU10
  75              		.loc 1 89 14 is_stmt 0 view .LVU11
  76 0002 0020     		movs	r0, #0
  77              	.LVL3:
  78              		.loc 1 89 14 view .LVU12
  79 0004 A3F84400 		strh	r0, [r3, #68]	@ movhi
  90:Drivers/STM32L5xx_HAL_Driver/Src/stm32l5xx_ll_usb.c **** 
  91:Drivers/STM32L5xx_HAL_Driver/Src/stm32l5xx_ll_usb.c ****   /* Set winterruptmask variable */
  92:Drivers/STM32L5xx_HAL_Driver/Src/stm32l5xx_ll_usb.c ****   winterruptmask = USB_CNTR_CTRM  | USB_CNTR_WKUPM |
  80              		.loc 1 92 3 is_stmt 1 view .LVU13
  81              	.LVL4:
  93:Drivers/STM32L5xx_HAL_Driver/Src/stm32l5xx_ll_usb.c ****                    USB_CNTR_SUSPM | USB_CNTR_ERRM |
ARM GAS  /tmp/ccQg3iPh.s 			page 4


  94:Drivers/STM32L5xx_HAL_Driver/Src/stm32l5xx_ll_usb.c ****                    USB_CNTR_SOFM | USB_CNTR_ESOFM |
  95:Drivers/STM32L5xx_HAL_Driver/Src/stm32l5xx_ll_usb.c ****                    USB_CNTR_RESETM | USB_CNTR_L1REQM;
  96:Drivers/STM32L5xx_HAL_Driver/Src/stm32l5xx_ll_usb.c **** 
  97:Drivers/STM32L5xx_HAL_Driver/Src/stm32l5xx_ll_usb.c ****   /* Set interrupt mask */
  98:Drivers/STM32L5xx_HAL_Driver/Src/stm32l5xx_ll_usb.c ****   USBx->CNTR = (uint16_t)winterruptmask;
  82              		.loc 1 98 3 view .LVU14
  83              		.loc 1 98 14 is_stmt 0 view .LVU15
  84 0008 4BF68072 		movw	r2, #49024
  85 000c A3F84020 		strh	r2, [r3, #64]	@ movhi
  99:Drivers/STM32L5xx_HAL_Driver/Src/stm32l5xx_ll_usb.c **** 
 100:Drivers/STM32L5xx_HAL_Driver/Src/stm32l5xx_ll_usb.c ****   return HAL_OK;
  86              		.loc 1 100 3 is_stmt 1 view .LVU16
 101:Drivers/STM32L5xx_HAL_Driver/Src/stm32l5xx_ll_usb.c **** }
  87              		.loc 1 101 1 is_stmt 0 view .LVU17
  88 0010 7047     		bx	lr
  89              		.cfi_endproc
  90              	.LFE153:
  92              		.section	.text.USB_DisableGlobalInt,"ax",%progbits
  93              		.align	1
  94              		.global	USB_DisableGlobalInt
  95              		.syntax unified
  96              		.thumb
  97              		.thumb_func
  99              	USB_DisableGlobalInt:
 100              	.LVL5:
 101              	.LFB154:
 102:Drivers/STM32L5xx_HAL_Driver/Src/stm32l5xx_ll_usb.c **** 
 103:Drivers/STM32L5xx_HAL_Driver/Src/stm32l5xx_ll_usb.c **** /**
 104:Drivers/STM32L5xx_HAL_Driver/Src/stm32l5xx_ll_usb.c ****   * @brief  USB_DisableGlobalInt
 105:Drivers/STM32L5xx_HAL_Driver/Src/stm32l5xx_ll_usb.c ****   *         Disable the controller's Global Int in the AHB Config reg
 106:Drivers/STM32L5xx_HAL_Driver/Src/stm32l5xx_ll_usb.c ****   * @param  USBx Selected device
 107:Drivers/STM32L5xx_HAL_Driver/Src/stm32l5xx_ll_usb.c ****   * @retval HAL status
 108:Drivers/STM32L5xx_HAL_Driver/Src/stm32l5xx_ll_usb.c ****   */
 109:Drivers/STM32L5xx_HAL_Driver/Src/stm32l5xx_ll_usb.c **** HAL_StatusTypeDef USB_DisableGlobalInt(USB_TypeDef *USBx)
 110:Drivers/STM32L5xx_HAL_Driver/Src/stm32l5xx_ll_usb.c **** {
 102              		.loc 1 110 1 is_stmt 1 view -0
 103              		.cfi_startproc
 104              		@ args = 0, pretend = 0, frame = 0
 105              		@ frame_needed = 0, uses_anonymous_args = 0
 106              		@ link register save eliminated.
 111:Drivers/STM32L5xx_HAL_Driver/Src/stm32l5xx_ll_usb.c ****   uint32_t winterruptmask;
 107              		.loc 1 111 3 view .LVU19
 112:Drivers/STM32L5xx_HAL_Driver/Src/stm32l5xx_ll_usb.c **** 
 113:Drivers/STM32L5xx_HAL_Driver/Src/stm32l5xx_ll_usb.c ****   /* Set winterruptmask variable */
 114:Drivers/STM32L5xx_HAL_Driver/Src/stm32l5xx_ll_usb.c ****   winterruptmask = USB_CNTR_CTRM  | USB_CNTR_WKUPM |
 108              		.loc 1 114 3 view .LVU20
 115:Drivers/STM32L5xx_HAL_Driver/Src/stm32l5xx_ll_usb.c ****                    USB_CNTR_SUSPM | USB_CNTR_ERRM |
 116:Drivers/STM32L5xx_HAL_Driver/Src/stm32l5xx_ll_usb.c ****                    USB_CNTR_SOFM | USB_CNTR_ESOFM |
 117:Drivers/STM32L5xx_HAL_Driver/Src/stm32l5xx_ll_usb.c ****                    USB_CNTR_RESETM | USB_CNTR_L1REQM;
 118:Drivers/STM32L5xx_HAL_Driver/Src/stm32l5xx_ll_usb.c **** 
 119:Drivers/STM32L5xx_HAL_Driver/Src/stm32l5xx_ll_usb.c ****   /* Clear interrupt mask */
 120:Drivers/STM32L5xx_HAL_Driver/Src/stm32l5xx_ll_usb.c ****   USBx->CNTR &= (uint16_t)(~winterruptmask);
 109              		.loc 1 120 3 view .LVU21
 110              		.loc 1 120 7 is_stmt 0 view .LVU22
 111 0000 B0F84030 		ldrh	r3, [r0, #64]
 112              		.loc 1 120 14 view .LVU23
 113 0004 23F47E53 		bic	r3, r3, #16256
ARM GAS  /tmp/ccQg3iPh.s 			page 5


 114 0008 5B04     		lsls	r3, r3, #17
 115 000a 5B0C     		lsrs	r3, r3, #17
 116 000c A0F84030 		strh	r3, [r0, #64]	@ movhi
 121:Drivers/STM32L5xx_HAL_Driver/Src/stm32l5xx_ll_usb.c **** 
 122:Drivers/STM32L5xx_HAL_Driver/Src/stm32l5xx_ll_usb.c ****   return HAL_OK;
 117              		.loc 1 122 3 is_stmt 1 view .LVU24
 123:Drivers/STM32L5xx_HAL_Driver/Src/stm32l5xx_ll_usb.c **** }
 118              		.loc 1 123 1 is_stmt 0 view .LVU25
 119 0010 0020     		movs	r0, #0
 120              	.LVL6:
 121              		.loc 1 123 1 view .LVU26
 122 0012 7047     		bx	lr
 123              		.cfi_endproc
 124              	.LFE154:
 126              		.section	.text.USB_SetCurrentMode,"ax",%progbits
 127              		.align	1
 128              		.global	USB_SetCurrentMode
 129              		.syntax unified
 130              		.thumb
 131              		.thumb_func
 133              	USB_SetCurrentMode:
 134              	.LVL7:
 135              	.LFB155:
 124:Drivers/STM32L5xx_HAL_Driver/Src/stm32l5xx_ll_usb.c **** 
 125:Drivers/STM32L5xx_HAL_Driver/Src/stm32l5xx_ll_usb.c **** /**
 126:Drivers/STM32L5xx_HAL_Driver/Src/stm32l5xx_ll_usb.c ****   * @brief  USB_SetCurrentMode Set functional mode
 127:Drivers/STM32L5xx_HAL_Driver/Src/stm32l5xx_ll_usb.c ****   * @param  USBx Selected device
 128:Drivers/STM32L5xx_HAL_Driver/Src/stm32l5xx_ll_usb.c ****   * @param  mode current core mode
 129:Drivers/STM32L5xx_HAL_Driver/Src/stm32l5xx_ll_usb.c ****   *          This parameter can be one of the these values:
 130:Drivers/STM32L5xx_HAL_Driver/Src/stm32l5xx_ll_usb.c ****   *            @arg USB_DEVICE_MODE Peripheral mode
 131:Drivers/STM32L5xx_HAL_Driver/Src/stm32l5xx_ll_usb.c ****   * @retval HAL status
 132:Drivers/STM32L5xx_HAL_Driver/Src/stm32l5xx_ll_usb.c ****   */
 133:Drivers/STM32L5xx_HAL_Driver/Src/stm32l5xx_ll_usb.c **** HAL_StatusTypeDef USB_SetCurrentMode(USB_TypeDef *USBx, USB_ModeTypeDef mode)
 134:Drivers/STM32L5xx_HAL_Driver/Src/stm32l5xx_ll_usb.c **** {
 136              		.loc 1 134 1 is_stmt 1 view -0
 137              		.cfi_startproc
 138              		@ args = 0, pretend = 0, frame = 0
 139              		@ frame_needed = 0, uses_anonymous_args = 0
 140              		@ link register save eliminated.
 135:Drivers/STM32L5xx_HAL_Driver/Src/stm32l5xx_ll_usb.c ****   /* Prevent unused argument(s) compilation warning */
 136:Drivers/STM32L5xx_HAL_Driver/Src/stm32l5xx_ll_usb.c ****   UNUSED(USBx);
 141              		.loc 1 136 3 view .LVU28
 137:Drivers/STM32L5xx_HAL_Driver/Src/stm32l5xx_ll_usb.c ****   UNUSED(mode);
 142              		.loc 1 137 3 view .LVU29
 138:Drivers/STM32L5xx_HAL_Driver/Src/stm32l5xx_ll_usb.c **** 
 139:Drivers/STM32L5xx_HAL_Driver/Src/stm32l5xx_ll_usb.c ****   /* NOTE : - This function is not required by USB Device FS peripheral, it is used
 140:Drivers/STM32L5xx_HAL_Driver/Src/stm32l5xx_ll_usb.c ****               only by USB OTG FS peripheral.
 141:Drivers/STM32L5xx_HAL_Driver/Src/stm32l5xx_ll_usb.c ****             - This function is added to ensure compatibility across platforms.
 142:Drivers/STM32L5xx_HAL_Driver/Src/stm32l5xx_ll_usb.c ****    */
 143:Drivers/STM32L5xx_HAL_Driver/Src/stm32l5xx_ll_usb.c ****   return HAL_OK;
 143              		.loc 1 143 3 view .LVU30
 144:Drivers/STM32L5xx_HAL_Driver/Src/stm32l5xx_ll_usb.c **** }
 144              		.loc 1 144 1 is_stmt 0 view .LVU31
 145 0000 0020     		movs	r0, #0
 146              	.LVL8:
 147              		.loc 1 144 1 view .LVU32
 148 0002 7047     		bx	lr
ARM GAS  /tmp/ccQg3iPh.s 			page 6


 149              		.cfi_endproc
 150              	.LFE155:
 152              		.section	.text.USB_DevInit,"ax",%progbits
 153              		.align	1
 154              		.global	USB_DevInit
 155              		.syntax unified
 156              		.thumb
 157              		.thumb_func
 159              	USB_DevInit:
 160              	.LVL9:
 161              	.LFB156:
 145:Drivers/STM32L5xx_HAL_Driver/Src/stm32l5xx_ll_usb.c **** 
 146:Drivers/STM32L5xx_HAL_Driver/Src/stm32l5xx_ll_usb.c **** /**
 147:Drivers/STM32L5xx_HAL_Driver/Src/stm32l5xx_ll_usb.c ****   * @brief  USB_DevInit Initializes the USB controller registers
 148:Drivers/STM32L5xx_HAL_Driver/Src/stm32l5xx_ll_usb.c ****   *         for device mode
 149:Drivers/STM32L5xx_HAL_Driver/Src/stm32l5xx_ll_usb.c ****   * @param  USBx Selected device
 150:Drivers/STM32L5xx_HAL_Driver/Src/stm32l5xx_ll_usb.c ****   * @param  cfg  pointer to a USB_CfgTypeDef structure that contains
 151:Drivers/STM32L5xx_HAL_Driver/Src/stm32l5xx_ll_usb.c ****   *         the configuration information for the specified USBx peripheral.
 152:Drivers/STM32L5xx_HAL_Driver/Src/stm32l5xx_ll_usb.c ****   * @retval HAL status
 153:Drivers/STM32L5xx_HAL_Driver/Src/stm32l5xx_ll_usb.c ****   */
 154:Drivers/STM32L5xx_HAL_Driver/Src/stm32l5xx_ll_usb.c **** HAL_StatusTypeDef USB_DevInit(USB_TypeDef *USBx, USB_CfgTypeDef cfg)
 155:Drivers/STM32L5xx_HAL_Driver/Src/stm32l5xx_ll_usb.c **** {
 162              		.loc 1 155 1 is_stmt 1 view -0
 163              		.cfi_startproc
 164              		@ args = 36, pretend = 16, frame = 0
 165              		@ frame_needed = 0, uses_anonymous_args = 0
 166              		@ link register save eliminated.
 167              		.loc 1 155 1 is_stmt 0 view .LVU34
 168 0000 84B0     		sub	sp, sp, #16
 169              	.LCFI2:
 170              		.cfi_def_cfa_offset 16
 171 0002 8446     		mov	ip, r0
 172 0004 01A8     		add	r0, sp, #4
 173              	.LVL10:
 174              		.loc 1 155 1 view .LVU35
 175 0006 80E80E00 		stm	r0, {r1, r2, r3}
 156:Drivers/STM32L5xx_HAL_Driver/Src/stm32l5xx_ll_usb.c ****   /* Prevent unused argument(s) compilation warning */
 157:Drivers/STM32L5xx_HAL_Driver/Src/stm32l5xx_ll_usb.c ****   UNUSED(cfg);
 176              		.loc 1 157 3 is_stmt 1 view .LVU36
 158:Drivers/STM32L5xx_HAL_Driver/Src/stm32l5xx_ll_usb.c **** 
 159:Drivers/STM32L5xx_HAL_Driver/Src/stm32l5xx_ll_usb.c ****   /* Init Device */
 160:Drivers/STM32L5xx_HAL_Driver/Src/stm32l5xx_ll_usb.c ****   /* CNTR_FRES = 1 */
 161:Drivers/STM32L5xx_HAL_Driver/Src/stm32l5xx_ll_usb.c ****   USBx->CNTR = (uint16_t)USB_CNTR_FRES;
 177              		.loc 1 161 3 view .LVU37
 178              		.loc 1 161 14 is_stmt 0 view .LVU38
 179 000a 0123     		movs	r3, #1
 180 000c ACF84030 		strh	r3, [ip, #64]	@ movhi
 162:Drivers/STM32L5xx_HAL_Driver/Src/stm32l5xx_ll_usb.c **** 
 163:Drivers/STM32L5xx_HAL_Driver/Src/stm32l5xx_ll_usb.c ****   /* CNTR_FRES = 0 */
 164:Drivers/STM32L5xx_HAL_Driver/Src/stm32l5xx_ll_usb.c ****   USBx->CNTR = 0U;
 181              		.loc 1 164 3 is_stmt 1 view .LVU39
 182              		.loc 1 164 14 is_stmt 0 view .LVU40
 183 0010 0020     		movs	r0, #0
 184 0012 ACF84000 		strh	r0, [ip, #64]	@ movhi
 165:Drivers/STM32L5xx_HAL_Driver/Src/stm32l5xx_ll_usb.c **** 
 166:Drivers/STM32L5xx_HAL_Driver/Src/stm32l5xx_ll_usb.c ****   /* Clear pending interrupts */
 167:Drivers/STM32L5xx_HAL_Driver/Src/stm32l5xx_ll_usb.c ****   USBx->ISTR = 0U;
ARM GAS  /tmp/ccQg3iPh.s 			page 7


 185              		.loc 1 167 3 is_stmt 1 view .LVU41
 186              		.loc 1 167 14 is_stmt 0 view .LVU42
 187 0016 ACF84400 		strh	r0, [ip, #68]	@ movhi
 168:Drivers/STM32L5xx_HAL_Driver/Src/stm32l5xx_ll_usb.c **** 
 169:Drivers/STM32L5xx_HAL_Driver/Src/stm32l5xx_ll_usb.c ****   /*Set Btable Address*/
 170:Drivers/STM32L5xx_HAL_Driver/Src/stm32l5xx_ll_usb.c ****   USBx->BTABLE = BTABLE_ADDRESS;
 188              		.loc 1 170 3 is_stmt 1 view .LVU43
 189              		.loc 1 170 16 is_stmt 0 view .LVU44
 190 001a ACF85000 		strh	r0, [ip, #80]	@ movhi
 171:Drivers/STM32L5xx_HAL_Driver/Src/stm32l5xx_ll_usb.c **** 
 172:Drivers/STM32L5xx_HAL_Driver/Src/stm32l5xx_ll_usb.c ****   return HAL_OK;
 191              		.loc 1 172 3 is_stmt 1 view .LVU45
 173:Drivers/STM32L5xx_HAL_Driver/Src/stm32l5xx_ll_usb.c **** }
 192              		.loc 1 173 1 is_stmt 0 view .LVU46
 193 001e 04B0     		add	sp, sp, #16
 194              	.LCFI3:
 195              		.cfi_def_cfa_offset 0
 196 0020 7047     		bx	lr
 197              		.cfi_endproc
 198              	.LFE156:
 200              		.section	.text.USB_ActivateEndpoint,"ax",%progbits
 201              		.align	1
 202              		.global	USB_ActivateEndpoint
 203              		.syntax unified
 204              		.thumb
 205              		.thumb_func
 207              	USB_ActivateEndpoint:
 208              	.LVL11:
 209              	.LFB157:
 174:Drivers/STM32L5xx_HAL_Driver/Src/stm32l5xx_ll_usb.c **** 
 175:Drivers/STM32L5xx_HAL_Driver/Src/stm32l5xx_ll_usb.c **** #if defined (HAL_PCD_MODULE_ENABLED)
 176:Drivers/STM32L5xx_HAL_Driver/Src/stm32l5xx_ll_usb.c **** /**
 177:Drivers/STM32L5xx_HAL_Driver/Src/stm32l5xx_ll_usb.c ****   * @brief  Activate and configure an endpoint
 178:Drivers/STM32L5xx_HAL_Driver/Src/stm32l5xx_ll_usb.c ****   * @param  USBx Selected device
 179:Drivers/STM32L5xx_HAL_Driver/Src/stm32l5xx_ll_usb.c ****   * @param  ep pointer to endpoint structure
 180:Drivers/STM32L5xx_HAL_Driver/Src/stm32l5xx_ll_usb.c ****   * @retval HAL status
 181:Drivers/STM32L5xx_HAL_Driver/Src/stm32l5xx_ll_usb.c ****   */
 182:Drivers/STM32L5xx_HAL_Driver/Src/stm32l5xx_ll_usb.c **** HAL_StatusTypeDef USB_ActivateEndpoint(USB_TypeDef *USBx, USB_EPTypeDef *ep)
 183:Drivers/STM32L5xx_HAL_Driver/Src/stm32l5xx_ll_usb.c **** {
 210              		.loc 1 183 1 is_stmt 1 view -0
 211              		.cfi_startproc
 212              		@ args = 0, pretend = 0, frame = 0
 213              		@ frame_needed = 0, uses_anonymous_args = 0
 214              		.loc 1 183 1 is_stmt 0 view .LVU48
 215 0000 10B5     		push	{r4, lr}
 216              	.LCFI4:
 217              		.cfi_def_cfa_offset 8
 218              		.cfi_offset 4, -8
 219              		.cfi_offset 14, -4
 220 0002 0346     		mov	r3, r0
 184:Drivers/STM32L5xx_HAL_Driver/Src/stm32l5xx_ll_usb.c ****   HAL_StatusTypeDef ret = HAL_OK;
 221              		.loc 1 184 3 is_stmt 1 view .LVU49
 222              	.LVL12:
 185:Drivers/STM32L5xx_HAL_Driver/Src/stm32l5xx_ll_usb.c ****   uint16_t wEpRegVal;
 223              		.loc 1 185 3 view .LVU50
 186:Drivers/STM32L5xx_HAL_Driver/Src/stm32l5xx_ll_usb.c **** 
 187:Drivers/STM32L5xx_HAL_Driver/Src/stm32l5xx_ll_usb.c ****   wEpRegVal = PCD_GET_ENDPOINT(USBx, ep->num) & USB_EP_T_MASK;
ARM GAS  /tmp/ccQg3iPh.s 			page 8


 224              		.loc 1 187 3 view .LVU51
 225              		.loc 1 187 15 is_stmt 0 view .LVU52
 226 0004 91F800C0 		ldrb	ip, [r1]	@ zero_extendqisi2
 227              		.loc 1 187 47 view .LVU53
 228 0008 30F82C20 		ldrh	r2, [r0, ip, lsl #2]
 229 000c 92B2     		uxth	r2, r2
 230              		.loc 1 187 13 view .LVU54
 231 000e 22F4EC42 		bic	r2, r2, #30208
 232 0012 22F07002 		bic	r2, r2, #112
 233 0016 92B2     		uxth	r2, r2
 234              	.LVL13:
 188:Drivers/STM32L5xx_HAL_Driver/Src/stm32l5xx_ll_usb.c **** 
 189:Drivers/STM32L5xx_HAL_Driver/Src/stm32l5xx_ll_usb.c ****   /* initialize Endpoint */
 190:Drivers/STM32L5xx_HAL_Driver/Src/stm32l5xx_ll_usb.c ****   switch (ep->type)
 235              		.loc 1 190 3 is_stmt 1 view .LVU55
 236              		.loc 1 190 13 is_stmt 0 view .LVU56
 237 0018 C878     		ldrb	r0, [r1, #3]	@ zero_extendqisi2
 238              	.LVL14:
 239              		.loc 1 190 3 view .LVU57
 240 001a 0328     		cmp	r0, #3
 241 001c 61D8     		bhi	.L36
 242 001e DFE800F0 		tbb	[pc, r0]
 243              	.L11:
 244 0022 55       		.byte	(.L14-.L11)/2
 245 0023 5C       		.byte	(.L13-.L11)/2
 246 0024 02       		.byte	(.L12-.L11)/2
 247 0025 58       		.byte	(.L10-.L11)/2
 248              		.p2align 1
 249              	.L12:
 250 0026 0020     		movs	r0, #0
 251              	.L9:
 252              	.LVL15:
 191:Drivers/STM32L5xx_HAL_Driver/Src/stm32l5xx_ll_usb.c ****   {
 192:Drivers/STM32L5xx_HAL_Driver/Src/stm32l5xx_ll_usb.c ****     case EP_TYPE_CTRL:
 193:Drivers/STM32L5xx_HAL_Driver/Src/stm32l5xx_ll_usb.c ****       wEpRegVal |= USB_EP_CONTROL;
 194:Drivers/STM32L5xx_HAL_Driver/Src/stm32l5xx_ll_usb.c ****       break;
 195:Drivers/STM32L5xx_HAL_Driver/Src/stm32l5xx_ll_usb.c **** 
 196:Drivers/STM32L5xx_HAL_Driver/Src/stm32l5xx_ll_usb.c ****     case EP_TYPE_BULK:
 197:Drivers/STM32L5xx_HAL_Driver/Src/stm32l5xx_ll_usb.c ****       wEpRegVal |= USB_EP_BULK;
 198:Drivers/STM32L5xx_HAL_Driver/Src/stm32l5xx_ll_usb.c ****       break;
 199:Drivers/STM32L5xx_HAL_Driver/Src/stm32l5xx_ll_usb.c **** 
 200:Drivers/STM32L5xx_HAL_Driver/Src/stm32l5xx_ll_usb.c ****     case EP_TYPE_INTR:
 201:Drivers/STM32L5xx_HAL_Driver/Src/stm32l5xx_ll_usb.c ****       wEpRegVal |= USB_EP_INTERRUPT;
 202:Drivers/STM32L5xx_HAL_Driver/Src/stm32l5xx_ll_usb.c ****       break;
 203:Drivers/STM32L5xx_HAL_Driver/Src/stm32l5xx_ll_usb.c **** 
 204:Drivers/STM32L5xx_HAL_Driver/Src/stm32l5xx_ll_usb.c ****     case EP_TYPE_ISOC:
 205:Drivers/STM32L5xx_HAL_Driver/Src/stm32l5xx_ll_usb.c ****       wEpRegVal |= USB_EP_ISOCHRONOUS;
 206:Drivers/STM32L5xx_HAL_Driver/Src/stm32l5xx_ll_usb.c ****       break;
 207:Drivers/STM32L5xx_HAL_Driver/Src/stm32l5xx_ll_usb.c **** 
 208:Drivers/STM32L5xx_HAL_Driver/Src/stm32l5xx_ll_usb.c ****     default:
 209:Drivers/STM32L5xx_HAL_Driver/Src/stm32l5xx_ll_usb.c ****       ret = HAL_ERROR;
 210:Drivers/STM32L5xx_HAL_Driver/Src/stm32l5xx_ll_usb.c ****       break;
 211:Drivers/STM32L5xx_HAL_Driver/Src/stm32l5xx_ll_usb.c ****   }
 212:Drivers/STM32L5xx_HAL_Driver/Src/stm32l5xx_ll_usb.c **** 
 213:Drivers/STM32L5xx_HAL_Driver/Src/stm32l5xx_ll_usb.c ****   PCD_SET_ENDPOINT(USBx, ep->num, (wEpRegVal | USB_EP_CTR_RX | USB_EP_CTR_TX));
 253              		.loc 1 213 3 is_stmt 1 view .LVU58
 254 0028 48F2800E 		movw	lr, #32896
ARM GAS  /tmp/ccQg3iPh.s 			page 9


 255 002c 42EA0E02 		orr	r2, r2, lr
 256              	.LVL16:
 257              		.loc 1 213 3 is_stmt 0 view .LVU59
 258 0030 23F82C20 		strh	r2, [r3, ip, lsl #2]	@ movhi
 214:Drivers/STM32L5xx_HAL_Driver/Src/stm32l5xx_ll_usb.c **** 
 215:Drivers/STM32L5xx_HAL_Driver/Src/stm32l5xx_ll_usb.c ****   PCD_SET_EP_ADDRESS(USBx, ep->num, ep->num);
 259              		.loc 1 215 3 is_stmt 1 view .LVU60
 260              	.LBB2:
 261              		.loc 1 215 3 view .LVU61
 262              		.loc 1 215 3 view .LVU62
 263 0034 91F800C0 		ldrb	ip, [r1]	@ zero_extendqisi2
 264 0038 33F82C20 		ldrh	r2, [r3, ip, lsl #2]
 265 003c 92B2     		uxth	r2, r2
 266 003e 22F4E042 		bic	r2, r2, #28672
 267 0042 22F07002 		bic	r2, r2, #112
 268 0046 4CEA0202 		orr	r2, ip, r2
 269              	.LVL17:
 270              		.loc 1 215 3 view .LVU63
 271 004a 42EA0E02 		orr	r2, r2, lr
 272              	.LVL18:
 273              		.loc 1 215 3 is_stmt 0 view .LVU64
 274 004e 23F82C20 		strh	r2, [r3, ip, lsl #2]	@ movhi
 275              	.LBE2:
 276              		.loc 1 215 3 is_stmt 1 view .LVU65
 216:Drivers/STM32L5xx_HAL_Driver/Src/stm32l5xx_ll_usb.c **** 
 217:Drivers/STM32L5xx_HAL_Driver/Src/stm32l5xx_ll_usb.c ****   if (ep->doublebuffer == 0U)
 277              		.loc 1 217 3 view .LVU66
 278              		.loc 1 217 9 is_stmt 0 view .LVU67
 279 0052 0A7B     		ldrb	r2, [r1, #12]	@ zero_extendqisi2
 280              		.loc 1 217 6 view .LVU68
 281 0054 002A     		cmp	r2, #0
 282 0056 40F0DC80 		bne	.L15
 218:Drivers/STM32L5xx_HAL_Driver/Src/stm32l5xx_ll_usb.c ****   {
 219:Drivers/STM32L5xx_HAL_Driver/Src/stm32l5xx_ll_usb.c ****     if (ep->is_in != 0U)
 283              		.loc 1 219 5 is_stmt 1 view .LVU69
 284              		.loc 1 219 11 is_stmt 0 view .LVU70
 285 005a 4A78     		ldrb	r2, [r1, #1]	@ zero_extendqisi2
 286              		.loc 1 219 8 view .LVU71
 287 005c 002A     		cmp	r2, #0
 288 005e 51D0     		beq	.L16
 220:Drivers/STM32L5xx_HAL_Driver/Src/stm32l5xx_ll_usb.c ****     {
 221:Drivers/STM32L5xx_HAL_Driver/Src/stm32l5xx_ll_usb.c ****       /*Set the endpoint Transmit buffer address */
 222:Drivers/STM32L5xx_HAL_Driver/Src/stm32l5xx_ll_usb.c ****       PCD_SET_EP_TX_ADDRESS(USBx, ep->num, ep->pmaadress);
 289              		.loc 1 222 7 is_stmt 1 view .LVU72
 290              	.LBB3:
 291              		.loc 1 222 7 view .LVU73
 292              		.loc 1 222 7 view .LVU74
 293              	.LVL19:
 294              		.loc 1 222 7 view .LVU75
 295 0060 B3F85020 		ldrh	r2, [r3, #80]
 296 0064 13FA82F2 		uxtah	r2, r3, r2
 297              	.LVL20:
 298              		.loc 1 222 7 view .LVU76
 299 0068 0C78     		ldrb	r4, [r1]	@ zero_extendqisi2
 300 006a 02EBC402 		add	r2, r2, r4, lsl #3
 301              	.LVL21:
 302              		.loc 1 222 7 view .LVU77
ARM GAS  /tmp/ccQg3iPh.s 			page 10


 303 006e B1F806C0 		ldrh	ip, [r1, #6]
 304              		.loc 1 222 7 is_stmt 0 view .LVU78
 305 0072 4FEA5C0C 		lsr	ip, ip, #1
 306 0076 4FEA4C0C 		lsl	ip, ip, #1
 307 007a A2F800C4 		strh	ip, [r2, #1024]	@ movhi
 308              	.LBE3:
 309              		.loc 1 222 7 is_stmt 1 view .LVU79
 223:Drivers/STM32L5xx_HAL_Driver/Src/stm32l5xx_ll_usb.c ****       PCD_CLEAR_TX_DTOG(USBx, ep->num);
 310              		.loc 1 223 7 view .LVU80
 311              	.LBB4:
 312              		.loc 1 223 7 view .LVU81
 313              		.loc 1 223 7 view .LVU82
 314 007e 0C78     		ldrb	r4, [r1]	@ zero_extendqisi2
 315 0080 33F82420 		ldrh	r2, [r3, r4, lsl #2]
 316              	.LVL22:
 317              		.loc 1 223 7 view .LVU83
 318 0084 12F0400F 		tst	r2, #64
 319 0088 0CD0     		beq	.L17
 320              		.loc 1 223 7 discriminator 1 view .LVU84
 321              	.LBB5:
 322              		.loc 1 223 7 discriminator 1 view .LVU85
 323              		.loc 1 223 7 discriminator 1 view .LVU86
 324 008a 33F82420 		ldrh	r2, [r3, r4, lsl #2]
 325              	.LVL23:
 326              		.loc 1 223 7 is_stmt 0 discriminator 1 view .LVU87
 327 008e 92B2     		uxth	r2, r2
 328 0090 22F4E042 		bic	r2, r2, #28672
 329 0094 22F07002 		bic	r2, r2, #112
 330              	.LVL24:
 331              		.loc 1 223 7 is_stmt 1 discriminator 1 view .LVU88
 332 0098 42F40042 		orr	r2, r2, #32768
 333              	.LVL25:
 334              		.loc 1 223 7 is_stmt 0 discriminator 1 view .LVU89
 335 009c 42F0C002 		orr	r2, r2, #192
 336 00a0 23F82420 		strh	r2, [r3, r4, lsl #2]	@ movhi
 337              	.LVL26:
 338              	.L17:
 339              		.loc 1 223 7 discriminator 1 view .LVU90
 340              	.LBE5:
 341              		.loc 1 223 7 is_stmt 1 discriminator 3 view .LVU91
 342              	.LBE4:
 343              		.loc 1 223 7 discriminator 3 view .LVU92
 224:Drivers/STM32L5xx_HAL_Driver/Src/stm32l5xx_ll_usb.c **** 
 225:Drivers/STM32L5xx_HAL_Driver/Src/stm32l5xx_ll_usb.c ****       if (ep->type != EP_TYPE_ISOC)
 344              		.loc 1 225 7 discriminator 3 view .LVU93
 345              		.loc 1 225 13 is_stmt 0 discriminator 3 view .LVU94
 346 00a4 CA78     		ldrb	r2, [r1, #3]	@ zero_extendqisi2
 347              		.loc 1 225 10 discriminator 3 view .LVU95
 348 00a6 012A     		cmp	r2, #1
 349 00a8 1DD0     		beq	.L18
 226:Drivers/STM32L5xx_HAL_Driver/Src/stm32l5xx_ll_usb.c ****       {
 227:Drivers/STM32L5xx_HAL_Driver/Src/stm32l5xx_ll_usb.c ****         /* Configure NAK status for the Endpoint */
 228:Drivers/STM32L5xx_HAL_Driver/Src/stm32l5xx_ll_usb.c ****         PCD_SET_EP_TX_STATUS(USBx, ep->num, USB_EP_TX_NAK);
 350              		.loc 1 228 9 is_stmt 1 view .LVU96
 351              	.LBB6:
 352              		.loc 1 228 9 view .LVU97
 353              		.loc 1 228 9 view .LVU98
ARM GAS  /tmp/ccQg3iPh.s 			page 11


 354 00aa 0978     		ldrb	r1, [r1]	@ zero_extendqisi2
 355              	.LVL27:
 356              		.loc 1 228 9 is_stmt 0 view .LVU99
 357 00ac 33F82120 		ldrh	r2, [r3, r1, lsl #2]
 358 00b0 92B2     		uxth	r2, r2
 359 00b2 22F4E042 		bic	r2, r2, #28672
 360 00b6 22F04002 		bic	r2, r2, #64
 361              	.LVL28:
 362              		.loc 1 228 9 is_stmt 1 view .LVU100
 363              		.loc 1 228 9 view .LVU101
 364              		.loc 1 228 9 view .LVU102
 365 00ba 82F02002 		eor	r2, r2, #32
 366              	.LVL29:
 367              		.loc 1 228 9 view .LVU103
 368 00be 42F40042 		orr	r2, r2, #32768
 369              	.LVL30:
 370              		.loc 1 228 9 is_stmt 0 view .LVU104
 371 00c2 42F08002 		orr	r2, r2, #128
 372 00c6 23F82120 		strh	r2, [r3, r1, lsl #2]	@ movhi
 373              	.LBE6:
 374              		.loc 1 228 9 is_stmt 1 view .LVU105
 375 00ca 17E1     		b	.L19
 376              	.LVL31:
 377              	.L14:
 193:Drivers/STM32L5xx_HAL_Driver/Src/stm32l5xx_ll_usb.c ****       break;
 378              		.loc 1 193 7 view .LVU106
 193:Drivers/STM32L5xx_HAL_Driver/Src/stm32l5xx_ll_usb.c ****       break;
 379              		.loc 1 193 17 is_stmt 0 view .LVU107
 380 00cc 42F40072 		orr	r2, r2, #512
 381              	.LVL32:
 194:Drivers/STM32L5xx_HAL_Driver/Src/stm32l5xx_ll_usb.c **** 
 382              		.loc 1 194 7 is_stmt 1 view .LVU108
 383 00d0 AAE7     		b	.L9
 384              	.L10:
 201:Drivers/STM32L5xx_HAL_Driver/Src/stm32l5xx_ll_usb.c ****       break;
 385              		.loc 1 201 7 view .LVU109
 201:Drivers/STM32L5xx_HAL_Driver/Src/stm32l5xx_ll_usb.c ****       break;
 386              		.loc 1 201 17 is_stmt 0 view .LVU110
 387 00d2 42F4C062 		orr	r2, r2, #1536
 388              	.LVL33:
 202:Drivers/STM32L5xx_HAL_Driver/Src/stm32l5xx_ll_usb.c **** 
 389              		.loc 1 202 7 is_stmt 1 view .LVU111
 184:Drivers/STM32L5xx_HAL_Driver/Src/stm32l5xx_ll_usb.c ****   uint16_t wEpRegVal;
 390              		.loc 1 184 21 is_stmt 0 view .LVU112
 391 00d6 0020     		movs	r0, #0
 202:Drivers/STM32L5xx_HAL_Driver/Src/stm32l5xx_ll_usb.c **** 
 392              		.loc 1 202 7 view .LVU113
 393 00d8 A6E7     		b	.L9
 394              	.L13:
 205:Drivers/STM32L5xx_HAL_Driver/Src/stm32l5xx_ll_usb.c ****       break;
 395              		.loc 1 205 7 is_stmt 1 view .LVU114
 205:Drivers/STM32L5xx_HAL_Driver/Src/stm32l5xx_ll_usb.c ****       break;
 396              		.loc 1 205 17 is_stmt 0 view .LVU115
 397 00da 42F48062 		orr	r2, r2, #1024
 398              	.LVL34:
 206:Drivers/STM32L5xx_HAL_Driver/Src/stm32l5xx_ll_usb.c **** 
 399              		.loc 1 206 7 is_stmt 1 view .LVU116
ARM GAS  /tmp/ccQg3iPh.s 			page 12


 184:Drivers/STM32L5xx_HAL_Driver/Src/stm32l5xx_ll_usb.c ****   uint16_t wEpRegVal;
 400              		.loc 1 184 21 is_stmt 0 view .LVU117
 401 00de 0020     		movs	r0, #0
 206:Drivers/STM32L5xx_HAL_Driver/Src/stm32l5xx_ll_usb.c **** 
 402              		.loc 1 206 7 view .LVU118
 403 00e0 A2E7     		b	.L9
 404              	.L36:
 209:Drivers/STM32L5xx_HAL_Driver/Src/stm32l5xx_ll_usb.c ****       break;
 405              		.loc 1 209 11 view .LVU119
 406 00e2 0120     		movs	r0, #1
 407 00e4 A0E7     		b	.L9
 408              	.LVL35:
 409              	.L18:
 229:Drivers/STM32L5xx_HAL_Driver/Src/stm32l5xx_ll_usb.c ****       }
 230:Drivers/STM32L5xx_HAL_Driver/Src/stm32l5xx_ll_usb.c ****       else
 231:Drivers/STM32L5xx_HAL_Driver/Src/stm32l5xx_ll_usb.c ****       {
 232:Drivers/STM32L5xx_HAL_Driver/Src/stm32l5xx_ll_usb.c ****         /* Configure TX Endpoint to disabled state */
 233:Drivers/STM32L5xx_HAL_Driver/Src/stm32l5xx_ll_usb.c ****         PCD_SET_EP_TX_STATUS(USBx, ep->num, USB_EP_TX_DIS);
 410              		.loc 1 233 9 is_stmt 1 view .LVU120
 411              	.LBB7:
 412              		.loc 1 233 9 view .LVU121
 413              		.loc 1 233 9 view .LVU122
 414 00e6 0978     		ldrb	r1, [r1]	@ zero_extendqisi2
 415              	.LVL36:
 416              		.loc 1 233 9 is_stmt 0 view .LVU123
 417 00e8 33F82120 		ldrh	r2, [r3, r1, lsl #2]
 418 00ec 92B2     		uxth	r2, r2
 419 00ee 22F4E042 		bic	r2, r2, #28672
 420 00f2 22F04002 		bic	r2, r2, #64
 421              	.LVL37:
 422              		.loc 1 233 9 is_stmt 1 view .LVU124
 423              		.loc 1 233 9 view .LVU125
 424              		.loc 1 233 9 view .LVU126
 425 00f6 42F40042 		orr	r2, r2, #32768
 426              	.LVL38:
 427              		.loc 1 233 9 is_stmt 0 view .LVU127
 428 00fa 42F08002 		orr	r2, r2, #128
 429 00fe 23F82120 		strh	r2, [r3, r1, lsl #2]	@ movhi
 430 0102 FBE0     		b	.L19
 431              	.LVL39:
 432              	.L16:
 433              		.loc 1 233 9 view .LVU128
 434              	.LBE7:
 234:Drivers/STM32L5xx_HAL_Driver/Src/stm32l5xx_ll_usb.c ****       }
 235:Drivers/STM32L5xx_HAL_Driver/Src/stm32l5xx_ll_usb.c ****     }
 236:Drivers/STM32L5xx_HAL_Driver/Src/stm32l5xx_ll_usb.c ****     else
 237:Drivers/STM32L5xx_HAL_Driver/Src/stm32l5xx_ll_usb.c ****     {
 238:Drivers/STM32L5xx_HAL_Driver/Src/stm32l5xx_ll_usb.c ****       /* Set the endpoint Receive buffer address */
 239:Drivers/STM32L5xx_HAL_Driver/Src/stm32l5xx_ll_usb.c ****       PCD_SET_EP_RX_ADDRESS(USBx, ep->num, ep->pmaadress);
 435              		.loc 1 239 7 is_stmt 1 view .LVU129
 436              	.LBB8:
 437              		.loc 1 239 7 view .LVU130
 438              		.loc 1 239 7 view .LVU131
 439              		.loc 1 239 7 view .LVU132
 440 0104 B3F85020 		ldrh	r2, [r3, #80]
 441 0108 13FA82F2 		uxtah	r2, r3, r2
 442              	.LVL40:
ARM GAS  /tmp/ccQg3iPh.s 			page 13


 443              		.loc 1 239 7 view .LVU133
 444 010c 0C78     		ldrb	r4, [r1]	@ zero_extendqisi2
 445 010e 02EBC402 		add	r2, r2, r4, lsl #3
 446              	.LVL41:
 447              		.loc 1 239 7 view .LVU134
 448 0112 B1F806C0 		ldrh	ip, [r1, #6]
 449              		.loc 1 239 7 is_stmt 0 view .LVU135
 450 0116 4FEA5C0C 		lsr	ip, ip, #1
 451 011a 4FEA4C0C 		lsl	ip, ip, #1
 452 011e A2F804C4 		strh	ip, [r2, #1028]	@ movhi
 453              	.LBE8:
 454              		.loc 1 239 7 is_stmt 1 view .LVU136
 240:Drivers/STM32L5xx_HAL_Driver/Src/stm32l5xx_ll_usb.c **** 
 241:Drivers/STM32L5xx_HAL_Driver/Src/stm32l5xx_ll_usb.c ****       /* Set the endpoint Receive buffer counter */
 242:Drivers/STM32L5xx_HAL_Driver/Src/stm32l5xx_ll_usb.c ****       PCD_SET_EP_RX_CNT(USBx, ep->num, ep->maxpacket);
 455              		.loc 1 242 7 view .LVU137
 456              	.LBB9:
 457              		.loc 1 242 7 view .LVU138
 458              	.LVL42:
 459              		.loc 1 242 7 view .LVU139
 460              		.loc 1 242 7 view .LVU140
 461 0122 B3F85020 		ldrh	r2, [r3, #80]
 462              	.LVL43:
 463              		.loc 1 242 7 is_stmt 0 view .LVU141
 464 0126 13FA82F2 		uxtah	r2, r3, r2
 465              	.LVL44:
 466              		.loc 1 242 7 is_stmt 1 view .LVU142
 467 012a 0C78     		ldrb	r4, [r1]	@ zero_extendqisi2
 468              		.loc 1 242 7 is_stmt 0 view .LVU143
 469 012c 02EBC402 		add	r2, r2, r4, lsl #3
 470              	.LVL45:
 471              		.loc 1 242 7 is_stmt 1 view .LVU144
 472              	.LBB10:
 473              		.loc 1 242 7 view .LVU145
 474              		.loc 1 242 7 view .LVU146
 475 0130 B2F806C4 		ldrh	ip, [r2, #1030]
 476 0134 CCF3090C 		ubfx	ip, ip, #0, #10
 477 0138 A2F806C4 		strh	ip, [r2, #1030]	@ movhi
 478              		.loc 1 242 7 view .LVU147
 479 013c 0C69     		ldr	r4, [r1, #16]
 480 013e 3E2C     		cmp	r4, #62
 481 0140 39D9     		bls	.L20
 482              		.loc 1 242 7 discriminator 1 view .LVU148
 483              		.loc 1 242 7 discriminator 1 view .LVU149
 484 0142 4FEA541E 		lsr	lr, r4, #5
 485              	.LVL46:
 486              		.loc 1 242 7 discriminator 1 view .LVU150
 487 0146 14F01F0F 		tst	r4, #31
 488 014a 01D1     		bne	.L21
 489              		.loc 1 242 7 discriminator 3 view .LVU151
 490 014c 0EF1FF3E 		add	lr, lr, #-1
 491              	.LVL47:
 492              	.L21:
 493              		.loc 1 242 7 discriminator 5 view .LVU152
 494 0150 B2F806C4 		ldrh	ip, [r2, #1030]
 495 0154 1FFA8CFC 		uxth	ip, ip
 496 0158 4FEA8E2E 		lsl	lr, lr, #10
ARM GAS  /tmp/ccQg3iPh.s 			page 14


 497              	.LVL48:
 498              		.loc 1 242 7 is_stmt 0 discriminator 5 view .LVU153
 499 015c 1FFA8EFE 		uxth	lr, lr
 500 0160 4CEA0E0C 		orr	ip, ip, lr
 501 0164 4CF4004C 		orr	ip, ip, #32768
 502 0168 A2F806C4 		strh	ip, [r2, #1030]	@ movhi
 503              		.loc 1 242 7 is_stmt 1 discriminator 5 view .LVU154
 504              	.LVL49:
 505              	.L22:
 506              		.loc 1 242 7 discriminator 13 view .LVU155
 507              	.LBE10:
 508              		.loc 1 242 7 discriminator 13 view .LVU156
 509              	.LBE9:
 510              		.loc 1 242 7 discriminator 13 view .LVU157
 243:Drivers/STM32L5xx_HAL_Driver/Src/stm32l5xx_ll_usb.c ****       PCD_CLEAR_RX_DTOG(USBx, ep->num);
 511              		.loc 1 243 7 discriminator 13 view .LVU158
 512              	.LBB12:
 513              		.loc 1 243 7 discriminator 13 view .LVU159
 514              		.loc 1 243 7 discriminator 13 view .LVU160
 515 016c 0C78     		ldrb	r4, [r1]	@ zero_extendqisi2
 516 016e 33F82420 		ldrh	r2, [r3, r4, lsl #2]
 517              	.LVL50:
 518              		.loc 1 243 7 discriminator 13 view .LVU161
 519 0172 12F4804F 		tst	r2, #16384
 520 0176 0CD0     		beq	.L25
 521              		.loc 1 243 7 discriminator 1 view .LVU162
 522              	.LBB13:
 523              		.loc 1 243 7 discriminator 1 view .LVU163
 524              		.loc 1 243 7 discriminator 1 view .LVU164
 525 0178 33F82420 		ldrh	r2, [r3, r4, lsl #2]
 526              	.LVL51:
 527              		.loc 1 243 7 is_stmt 0 discriminator 1 view .LVU165
 528 017c 92B2     		uxth	r2, r2
 529 017e 22F4E042 		bic	r2, r2, #28672
 530 0182 22F07002 		bic	r2, r2, #112
 531              	.LVL52:
 532              		.loc 1 243 7 is_stmt 1 discriminator 1 view .LVU166
 533 0186 42F44042 		orr	r2, r2, #49152
 534              	.LVL53:
 535              		.loc 1 243 7 is_stmt 0 discriminator 1 view .LVU167
 536 018a 42F08002 		orr	r2, r2, #128
 537 018e 23F82420 		strh	r2, [r3, r4, lsl #2]	@ movhi
 538              	.LVL54:
 539              	.L25:
 540              		.loc 1 243 7 discriminator 1 view .LVU168
 541              	.LBE13:
 542              		.loc 1 243 7 is_stmt 1 discriminator 3 view .LVU169
 543              	.LBE12:
 544              		.loc 1 243 7 discriminator 3 view .LVU170
 244:Drivers/STM32L5xx_HAL_Driver/Src/stm32l5xx_ll_usb.c **** 
 245:Drivers/STM32L5xx_HAL_Driver/Src/stm32l5xx_ll_usb.c ****       if (ep->num == 0U)
 545              		.loc 1 245 7 discriminator 3 view .LVU171
 546              		.loc 1 245 13 is_stmt 0 discriminator 3 view .LVU172
 547 0192 0978     		ldrb	r1, [r1]	@ zero_extendqisi2
 548              	.LVL55:
 549              		.loc 1 245 10 discriminator 3 view .LVU173
 550 0194 69BB     		cbnz	r1, .L26
ARM GAS  /tmp/ccQg3iPh.s 			page 15


 246:Drivers/STM32L5xx_HAL_Driver/Src/stm32l5xx_ll_usb.c ****       {
 247:Drivers/STM32L5xx_HAL_Driver/Src/stm32l5xx_ll_usb.c ****         /* Configure VALID status for EP0 */
 248:Drivers/STM32L5xx_HAL_Driver/Src/stm32l5xx_ll_usb.c ****         PCD_SET_EP_RX_STATUS(USBx, ep->num, USB_EP_RX_VALID);
 551              		.loc 1 248 9 is_stmt 1 view .LVU174
 552              	.LBB14:
 553              		.loc 1 248 9 view .LVU175
 554              		.loc 1 248 9 view .LVU176
 555 0196 33F82120 		ldrh	r2, [r3, r1, lsl #2]
 556 019a 92B2     		uxth	r2, r2
 557 019c 22F48042 		bic	r2, r2, #16384
 558 01a0 22F07002 		bic	r2, r2, #112
 559              	.LVL56:
 560              		.loc 1 248 9 view .LVU177
 561              		.loc 1 248 9 view .LVU178
 562              		.loc 1 248 9 view .LVU179
 563              		.loc 1 248 9 view .LVU180
 564 01a4 82F44052 		eor	r2, r2, #12288
 565              	.LVL57:
 566              		.loc 1 248 9 view .LVU181
 567 01a8 42F40042 		orr	r2, r2, #32768
 568              	.LVL58:
 569              		.loc 1 248 9 is_stmt 0 view .LVU182
 570 01ac 42F08002 		orr	r2, r2, #128
 571 01b0 23F82120 		strh	r2, [r3, r1, lsl #2]	@ movhi
 572              	.LBE14:
 573              		.loc 1 248 9 is_stmt 1 view .LVU183
 574 01b4 A2E0     		b	.L19
 575              	.LVL59:
 576              	.L20:
 577              	.LBB15:
 578              	.LBB11:
 242:Drivers/STM32L5xx_HAL_Driver/Src/stm32l5xx_ll_usb.c ****       PCD_CLEAR_RX_DTOG(USBx, ep->num);
 579              		.loc 1 242 7 discriminator 2 view .LVU184
 580 01b6 4CB9     		cbnz	r4, .L23
 242:Drivers/STM32L5xx_HAL_Driver/Src/stm32l5xx_ll_usb.c ****       PCD_CLEAR_RX_DTOG(USBx, ep->num);
 581              		.loc 1 242 7 discriminator 7 view .LVU185
 582 01b8 B2F80644 		ldrh	r4, [r2, #1030]
 583 01bc 6FEA4444 		mvn	r4, r4, lsl #17
 584 01c0 6FEA5444 		mvn	r4, r4, lsr #17
 585 01c4 A4B2     		uxth	r4, r4
 586 01c6 A2F80644 		strh	r4, [r2, #1030]	@ movhi
 587 01ca CFE7     		b	.L22
 588              	.L23:
 242:Drivers/STM32L5xx_HAL_Driver/Src/stm32l5xx_ll_usb.c ****       PCD_CLEAR_RX_DTOG(USBx, ep->num);
 589              		.loc 1 242 7 discriminator 8 view .LVU186
 242:Drivers/STM32L5xx_HAL_Driver/Src/stm32l5xx_ll_usb.c ****       PCD_CLEAR_RX_DTOG(USBx, ep->num);
 590              		.loc 1 242 7 discriminator 8 view .LVU187
 591 01cc 4FEA540C 		lsr	ip, r4, #1
 592              	.LVL60:
 242:Drivers/STM32L5xx_HAL_Driver/Src/stm32l5xx_ll_usb.c ****       PCD_CLEAR_RX_DTOG(USBx, ep->num);
 593              		.loc 1 242 7 discriminator 8 view .LVU188
 594 01d0 14F0010F 		tst	r4, #1
 595 01d4 01D0     		beq	.L24
 242:Drivers/STM32L5xx_HAL_Driver/Src/stm32l5xx_ll_usb.c ****       PCD_CLEAR_RX_DTOG(USBx, ep->num);
 596              		.loc 1 242 7 discriminator 10 view .LVU189
 597 01d6 0CF1010C 		add	ip, ip, #1
 598              	.LVL61:
ARM GAS  /tmp/ccQg3iPh.s 			page 16


 599              	.L24:
 242:Drivers/STM32L5xx_HAL_Driver/Src/stm32l5xx_ll_usb.c ****       PCD_CLEAR_RX_DTOG(USBx, ep->num);
 600              		.loc 1 242 7 discriminator 12 view .LVU190
 601 01da B2F80644 		ldrh	r4, [r2, #1030]
 602 01de A4B2     		uxth	r4, r4
 603 01e0 4FEA8C2C 		lsl	ip, ip, #10
 604              	.LVL62:
 242:Drivers/STM32L5xx_HAL_Driver/Src/stm32l5xx_ll_usb.c ****       PCD_CLEAR_RX_DTOG(USBx, ep->num);
 605              		.loc 1 242 7 is_stmt 0 discriminator 12 view .LVU191
 606 01e4 1FFA8CFC 		uxth	ip, ip
 607 01e8 44EA0C04 		orr	r4, r4, ip
 608 01ec A2F80644 		strh	r4, [r2, #1030]	@ movhi
 609 01f0 BCE7     		b	.L22
 610              	.LVL63:
 611              	.L26:
 242:Drivers/STM32L5xx_HAL_Driver/Src/stm32l5xx_ll_usb.c ****       PCD_CLEAR_RX_DTOG(USBx, ep->num);
 612              		.loc 1 242 7 discriminator 12 view .LVU192
 613              	.LBE11:
 614              	.LBE15:
 249:Drivers/STM32L5xx_HAL_Driver/Src/stm32l5xx_ll_usb.c ****       }
 250:Drivers/STM32L5xx_HAL_Driver/Src/stm32l5xx_ll_usb.c ****       else
 251:Drivers/STM32L5xx_HAL_Driver/Src/stm32l5xx_ll_usb.c ****       {
 252:Drivers/STM32L5xx_HAL_Driver/Src/stm32l5xx_ll_usb.c ****         /* Configure NAK status for OUT Endpoint */
 253:Drivers/STM32L5xx_HAL_Driver/Src/stm32l5xx_ll_usb.c ****         PCD_SET_EP_RX_STATUS(USBx, ep->num, USB_EP_RX_NAK);
 615              		.loc 1 253 9 is_stmt 1 view .LVU193
 616              	.LBB16:
 617              		.loc 1 253 9 view .LVU194
 618              		.loc 1 253 9 view .LVU195
 619 01f2 33F82120 		ldrh	r2, [r3, r1, lsl #2]
 620 01f6 92B2     		uxth	r2, r2
 621 01f8 22F48042 		bic	r2, r2, #16384
 622 01fc 22F07002 		bic	r2, r2, #112
 623              	.LVL64:
 624              		.loc 1 253 9 view .LVU196
 625              		.loc 1 253 9 view .LVU197
 626              		.loc 1 253 9 view .LVU198
 627 0200 82F40052 		eor	r2, r2, #8192
 628              	.LVL65:
 629              		.loc 1 253 9 view .LVU199
 630 0204 42F40042 		orr	r2, r2, #32768
 631              	.LVL66:
 632              		.loc 1 253 9 is_stmt 0 view .LVU200
 633 0208 42F08002 		orr	r2, r2, #128
 634 020c 23F82120 		strh	r2, [r3, r1, lsl #2]	@ movhi
 635 0210 74E0     		b	.L19
 636              	.LVL67:
 637              	.L15:
 638              		.loc 1 253 9 view .LVU201
 639              	.LBE16:
 254:Drivers/STM32L5xx_HAL_Driver/Src/stm32l5xx_ll_usb.c ****       }
 255:Drivers/STM32L5xx_HAL_Driver/Src/stm32l5xx_ll_usb.c ****     }
 256:Drivers/STM32L5xx_HAL_Driver/Src/stm32l5xx_ll_usb.c ****   }
 257:Drivers/STM32L5xx_HAL_Driver/Src/stm32l5xx_ll_usb.c **** #if (USE_USB_DOUBLE_BUFFER == 1U)
 258:Drivers/STM32L5xx_HAL_Driver/Src/stm32l5xx_ll_usb.c ****   /* Double Buffer */
 259:Drivers/STM32L5xx_HAL_Driver/Src/stm32l5xx_ll_usb.c ****   else
 260:Drivers/STM32L5xx_HAL_Driver/Src/stm32l5xx_ll_usb.c ****   {
 261:Drivers/STM32L5xx_HAL_Driver/Src/stm32l5xx_ll_usb.c ****     if (ep->type == EP_TYPE_BULK)
ARM GAS  /tmp/ccQg3iPh.s 			page 17


 640              		.loc 1 261 5 is_stmt 1 view .LVU202
 641              		.loc 1 261 11 is_stmt 0 view .LVU203
 642 0212 CA78     		ldrb	r2, [r1, #3]	@ zero_extendqisi2
 643              		.loc 1 261 8 view .LVU204
 644 0214 022A     		cmp	r2, #2
 645 0216 72D0     		beq	.L38
 262:Drivers/STM32L5xx_HAL_Driver/Src/stm32l5xx_ll_usb.c ****     {
 263:Drivers/STM32L5xx_HAL_Driver/Src/stm32l5xx_ll_usb.c ****       /* Set bulk endpoint as double buffered */
 264:Drivers/STM32L5xx_HAL_Driver/Src/stm32l5xx_ll_usb.c ****       PCD_SET_BULK_EP_DBUF(USBx, ep->num);
 265:Drivers/STM32L5xx_HAL_Driver/Src/stm32l5xx_ll_usb.c ****     }
 266:Drivers/STM32L5xx_HAL_Driver/Src/stm32l5xx_ll_usb.c ****     else
 267:Drivers/STM32L5xx_HAL_Driver/Src/stm32l5xx_ll_usb.c ****     {
 268:Drivers/STM32L5xx_HAL_Driver/Src/stm32l5xx_ll_usb.c ****       /* Set the ISOC endpoint in double buffer mode */
 269:Drivers/STM32L5xx_HAL_Driver/Src/stm32l5xx_ll_usb.c ****       PCD_CLEAR_EP_KIND(USBx, ep->num);
 646              		.loc 1 269 7 is_stmt 1 view .LVU205
 647              	.LBB17:
 648              		.loc 1 269 7 view .LVU206
 649              		.loc 1 269 7 view .LVU207
 650 0218 0C78     		ldrb	r4, [r1]	@ zero_extendqisi2
 651 021a 33F82420 		ldrh	r2, [r3, r4, lsl #2]
 652 021e 92B2     		uxth	r2, r2
 653 0220 22F4E242 		bic	r2, r2, #28928
 654 0224 22F07002 		bic	r2, r2, #112
 655              	.LVL68:
 656              		.loc 1 269 7 view .LVU208
 657 0228 42F40042 		orr	r2, r2, #32768
 658              	.LVL69:
 659              		.loc 1 269 7 is_stmt 0 view .LVU209
 660 022c 42F08002 		orr	r2, r2, #128
 661 0230 23F82420 		strh	r2, [r3, r4, lsl #2]	@ movhi
 662              	.LVL70:
 663              	.L28:
 664              		.loc 1 269 7 view .LVU210
 665              	.LBE17:
 666              		.loc 1 269 7 is_stmt 1 discriminator 1 view .LVU211
 270:Drivers/STM32L5xx_HAL_Driver/Src/stm32l5xx_ll_usb.c ****     }
 271:Drivers/STM32L5xx_HAL_Driver/Src/stm32l5xx_ll_usb.c **** 
 272:Drivers/STM32L5xx_HAL_Driver/Src/stm32l5xx_ll_usb.c ****     /* Set buffer address for double buffered mode */
 273:Drivers/STM32L5xx_HAL_Driver/Src/stm32l5xx_ll_usb.c ****     PCD_SET_EP_DBUF_ADDR(USBx, ep->num, ep->pmaaddr0, ep->pmaaddr1);
 667              		.loc 1 273 5 discriminator 1 view .LVU212
 668              		.loc 1 273 5 discriminator 1 view .LVU213
 669              		.loc 1 273 5 discriminator 1 view .LVU214
 670              	.LBB18:
 671              		.loc 1 273 5 discriminator 1 view .LVU215
 672              		.loc 1 273 5 discriminator 1 view .LVU216
 673              		.loc 1 273 5 discriminator 1 view .LVU217
 674 0234 B3F85020 		ldrh	r2, [r3, #80]
 675 0238 13FA82F2 		uxtah	r2, r3, r2
 676              	.LVL71:
 677              		.loc 1 273 5 discriminator 1 view .LVU218
 678 023c 91F800C0 		ldrb	ip, [r1]	@ zero_extendqisi2
 679              		.loc 1 273 5 is_stmt 0 discriminator 1 view .LVU219
 680 0240 02EBCC02 		add	r2, r2, ip, lsl #3
 681              	.LVL72:
 682              		.loc 1 273 5 is_stmt 1 discriminator 1 view .LVU220
 683 0244 B1F808C0 		ldrh	ip, [r1, #8]
 684 0248 4FEA5C0C 		lsr	ip, ip, #1
ARM GAS  /tmp/ccQg3iPh.s 			page 18


 685 024c 4FEA4C0C 		lsl	ip, ip, #1
 686 0250 A2F800C4 		strh	ip, [r2, #1024]	@ movhi
 687              	.LBE18:
 688              		.loc 1 273 5 discriminator 1 view .LVU221
 689              		.loc 1 273 5 discriminator 1 view .LVU222
 690              		.loc 1 273 5 discriminator 1 view .LVU223
 691              		.loc 1 273 5 discriminator 1 view .LVU224
 692              	.LBB19:
 693              		.loc 1 273 5 discriminator 1 view .LVU225
 694              		.loc 1 273 5 discriminator 1 view .LVU226
 695              	.LVL73:
 696              		.loc 1 273 5 discriminator 1 view .LVU227
 697 0254 B3F85020 		ldrh	r2, [r3, #80]
 698              	.LVL74:
 699              		.loc 1 273 5 is_stmt 0 discriminator 1 view .LVU228
 700 0258 13FA82F2 		uxtah	r2, r3, r2
 701              	.LVL75:
 702              		.loc 1 273 5 is_stmt 1 discriminator 1 view .LVU229
 703 025c 91F800C0 		ldrb	ip, [r1]	@ zero_extendqisi2
 704 0260 02EBCC02 		add	r2, r2, ip, lsl #3
 705              	.LVL76:
 706              		.loc 1 273 5 discriminator 1 view .LVU230
 707 0264 B1F80AC0 		ldrh	ip, [r1, #10]
 708 0268 4FEA5C0C 		lsr	ip, ip, #1
 709 026c 4FEA4C0C 		lsl	ip, ip, #1
 710 0270 A2F804C4 		strh	ip, [r2, #1028]	@ movhi
 711              	.LBE19:
 712              		.loc 1 273 5 discriminator 1 view .LVU231
 713              		.loc 1 273 5 discriminator 1 view .LVU232
 714              		.loc 1 273 5 discriminator 1 view .LVU233
 274:Drivers/STM32L5xx_HAL_Driver/Src/stm32l5xx_ll_usb.c **** 
 275:Drivers/STM32L5xx_HAL_Driver/Src/stm32l5xx_ll_usb.c ****     if (ep->is_in == 0U)
 715              		.loc 1 275 5 discriminator 1 view .LVU234
 716              		.loc 1 275 11 is_stmt 0 discriminator 1 view .LVU235
 717 0274 4A78     		ldrb	r2, [r1, #1]	@ zero_extendqisi2
 718              	.LVL77:
 719              		.loc 1 275 8 discriminator 1 view .LVU236
 720 0276 002A     		cmp	r2, #0
 721 0278 50D1     		bne	.L29
 276:Drivers/STM32L5xx_HAL_Driver/Src/stm32l5xx_ll_usb.c ****     {
 277:Drivers/STM32L5xx_HAL_Driver/Src/stm32l5xx_ll_usb.c ****       /* Clear the data toggle bits for the endpoint IN/OUT */
 278:Drivers/STM32L5xx_HAL_Driver/Src/stm32l5xx_ll_usb.c ****       PCD_CLEAR_RX_DTOG(USBx, ep->num);
 722              		.loc 1 278 7 is_stmt 1 view .LVU237
 723              	.LBB20:
 724              		.loc 1 278 7 view .LVU238
 725              		.loc 1 278 7 view .LVU239
 726 027a 0C78     		ldrb	r4, [r1]	@ zero_extendqisi2
 727 027c 33F82420 		ldrh	r2, [r3, r4, lsl #2]
 728              	.LVL78:
 729              		.loc 1 278 7 view .LVU240
 730 0280 12F4804F 		tst	r2, #16384
 731 0284 0CD0     		beq	.L30
 732              		.loc 1 278 7 discriminator 1 view .LVU241
 733              	.LBB21:
 734              		.loc 1 278 7 discriminator 1 view .LVU242
 735              		.loc 1 278 7 discriminator 1 view .LVU243
 736 0286 33F82420 		ldrh	r2, [r3, r4, lsl #2]
ARM GAS  /tmp/ccQg3iPh.s 			page 19


 737              	.LVL79:
 738              		.loc 1 278 7 is_stmt 0 discriminator 1 view .LVU244
 739 028a 92B2     		uxth	r2, r2
 740 028c 22F4E042 		bic	r2, r2, #28672
 741 0290 22F07002 		bic	r2, r2, #112
 742              	.LVL80:
 743              		.loc 1 278 7 is_stmt 1 discriminator 1 view .LVU245
 744 0294 42F44042 		orr	r2, r2, #49152
 745              	.LVL81:
 746              		.loc 1 278 7 is_stmt 0 discriminator 1 view .LVU246
 747 0298 42F08002 		orr	r2, r2, #128
 748 029c 23F82420 		strh	r2, [r3, r4, lsl #2]	@ movhi
 749              	.LVL82:
 750              	.L30:
 751              		.loc 1 278 7 discriminator 1 view .LVU247
 752              	.LBE21:
 753              		.loc 1 278 7 is_stmt 1 discriminator 3 view .LVU248
 754              	.LBE20:
 755              		.loc 1 278 7 discriminator 3 view .LVU249
 279:Drivers/STM32L5xx_HAL_Driver/Src/stm32l5xx_ll_usb.c ****       PCD_CLEAR_TX_DTOG(USBx, ep->num);
 756              		.loc 1 279 7 discriminator 3 view .LVU250
 757              	.LBB22:
 758              		.loc 1 279 7 discriminator 3 view .LVU251
 759              		.loc 1 279 7 discriminator 3 view .LVU252
 760 02a0 0C78     		ldrb	r4, [r1]	@ zero_extendqisi2
 761 02a2 33F82420 		ldrh	r2, [r3, r4, lsl #2]
 762              	.LVL83:
 763              		.loc 1 279 7 discriminator 3 view .LVU253
 764 02a6 12F0400F 		tst	r2, #64
 765 02aa 0CD0     		beq	.L31
 766              		.loc 1 279 7 discriminator 1 view .LVU254
 767              	.LBB23:
 768              		.loc 1 279 7 discriminator 1 view .LVU255
 769              		.loc 1 279 7 discriminator 1 view .LVU256
 770 02ac 33F82420 		ldrh	r2, [r3, r4, lsl #2]
 771              	.LVL84:
 772              		.loc 1 279 7 is_stmt 0 discriminator 1 view .LVU257
 773 02b0 92B2     		uxth	r2, r2
 774 02b2 22F4E042 		bic	r2, r2, #28672
 775 02b6 22F07002 		bic	r2, r2, #112
 776              	.LVL85:
 777              		.loc 1 279 7 is_stmt 1 discriminator 1 view .LVU258
 778 02ba 42F40042 		orr	r2, r2, #32768
 779              	.LVL86:
 780              		.loc 1 279 7 is_stmt 0 discriminator 1 view .LVU259
 781 02be 42F0C002 		orr	r2, r2, #192
 782 02c2 23F82420 		strh	r2, [r3, r4, lsl #2]	@ movhi
 783              	.LVL87:
 784              	.L31:
 785              		.loc 1 279 7 discriminator 1 view .LVU260
 786              	.LBE23:
 787              		.loc 1 279 7 is_stmt 1 discriminator 3 view .LVU261
 788              	.LBE22:
 789              		.loc 1 279 7 discriminator 3 view .LVU262
 280:Drivers/STM32L5xx_HAL_Driver/Src/stm32l5xx_ll_usb.c **** 
 281:Drivers/STM32L5xx_HAL_Driver/Src/stm32l5xx_ll_usb.c ****       PCD_SET_EP_RX_STATUS(USBx, ep->num, USB_EP_RX_VALID);
 790              		.loc 1 281 7 discriminator 3 view .LVU263
ARM GAS  /tmp/ccQg3iPh.s 			page 20


 791              	.LBB24:
 792              		.loc 1 281 7 discriminator 3 view .LVU264
 793              		.loc 1 281 7 discriminator 3 view .LVU265
 794 02c6 91F800C0 		ldrb	ip, [r1]	@ zero_extendqisi2
 795 02ca 33F82C20 		ldrh	r2, [r3, ip, lsl #2]
 796 02ce 92B2     		uxth	r2, r2
 797 02d0 22F48042 		bic	r2, r2, #16384
 798 02d4 22F07002 		bic	r2, r2, #112
 799              	.LVL88:
 800              		.loc 1 281 7 discriminator 3 view .LVU266
 801              		.loc 1 281 7 discriminator 3 view .LVU267
 802              		.loc 1 281 7 discriminator 3 view .LVU268
 803              		.loc 1 281 7 discriminator 3 view .LVU269
 804 02d8 82F44052 		eor	r2, r2, #12288
 805              	.LVL89:
 806              		.loc 1 281 7 discriminator 3 view .LVU270
 807 02dc 48F28004 		movw	r4, #32896
 808 02e0 2243     		orrs	r2, r2, r4
 809              	.LVL90:
 810              		.loc 1 281 7 is_stmt 0 discriminator 3 view .LVU271
 811 02e2 23F82C20 		strh	r2, [r3, ip, lsl #2]	@ movhi
 812              	.LBE24:
 813              		.loc 1 281 7 is_stmt 1 discriminator 3 view .LVU272
 282:Drivers/STM32L5xx_HAL_Driver/Src/stm32l5xx_ll_usb.c ****       PCD_SET_EP_TX_STATUS(USBx, ep->num, USB_EP_TX_DIS);
 814              		.loc 1 282 7 discriminator 3 view .LVU273
 815              	.LBB25:
 816              		.loc 1 282 7 discriminator 3 view .LVU274
 817              		.loc 1 282 7 discriminator 3 view .LVU275
 818 02e6 0978     		ldrb	r1, [r1]	@ zero_extendqisi2
 819              	.LVL91:
 820              		.loc 1 282 7 is_stmt 0 discriminator 3 view .LVU276
 821 02e8 33F82120 		ldrh	r2, [r3, r1, lsl #2]
 822 02ec 92B2     		uxth	r2, r2
 823 02ee 22F4E042 		bic	r2, r2, #28672
 824 02f2 22F04002 		bic	r2, r2, #64
 825              	.LVL92:
 826              		.loc 1 282 7 is_stmt 1 discriminator 3 view .LVU277
 827              		.loc 1 282 7 discriminator 3 view .LVU278
 828              		.loc 1 282 7 discriminator 3 view .LVU279
 829 02f6 2243     		orrs	r2, r2, r4
 830              	.LVL93:
 831              		.loc 1 282 7 is_stmt 0 discriminator 3 view .LVU280
 832 02f8 23F82120 		strh	r2, [r3, r1, lsl #2]	@ movhi
 833              	.LBE25:
 834              		.loc 1 282 7 is_stmt 1 discriminator 3 view .LVU281
 835              	.LVL94:
 836              	.L19:
 283:Drivers/STM32L5xx_HAL_Driver/Src/stm32l5xx_ll_usb.c ****     }
 284:Drivers/STM32L5xx_HAL_Driver/Src/stm32l5xx_ll_usb.c ****     else
 285:Drivers/STM32L5xx_HAL_Driver/Src/stm32l5xx_ll_usb.c ****     {
 286:Drivers/STM32L5xx_HAL_Driver/Src/stm32l5xx_ll_usb.c ****       /* Clear the data toggle bits for the endpoint IN/OUT */
 287:Drivers/STM32L5xx_HAL_Driver/Src/stm32l5xx_ll_usb.c ****       PCD_CLEAR_RX_DTOG(USBx, ep->num);
 288:Drivers/STM32L5xx_HAL_Driver/Src/stm32l5xx_ll_usb.c ****       PCD_CLEAR_TX_DTOG(USBx, ep->num);
 289:Drivers/STM32L5xx_HAL_Driver/Src/stm32l5xx_ll_usb.c **** 
 290:Drivers/STM32L5xx_HAL_Driver/Src/stm32l5xx_ll_usb.c ****       if (ep->type != EP_TYPE_ISOC)
 291:Drivers/STM32L5xx_HAL_Driver/Src/stm32l5xx_ll_usb.c ****       {
 292:Drivers/STM32L5xx_HAL_Driver/Src/stm32l5xx_ll_usb.c ****         /* Configure NAK status for the Endpoint */
ARM GAS  /tmp/ccQg3iPh.s 			page 21


 293:Drivers/STM32L5xx_HAL_Driver/Src/stm32l5xx_ll_usb.c ****         PCD_SET_EP_TX_STATUS(USBx, ep->num, USB_EP_TX_NAK);
 294:Drivers/STM32L5xx_HAL_Driver/Src/stm32l5xx_ll_usb.c ****       }
 295:Drivers/STM32L5xx_HAL_Driver/Src/stm32l5xx_ll_usb.c ****       else
 296:Drivers/STM32L5xx_HAL_Driver/Src/stm32l5xx_ll_usb.c ****       {
 297:Drivers/STM32L5xx_HAL_Driver/Src/stm32l5xx_ll_usb.c ****         /* Configure TX Endpoint to disabled state */
 298:Drivers/STM32L5xx_HAL_Driver/Src/stm32l5xx_ll_usb.c ****         PCD_SET_EP_TX_STATUS(USBx, ep->num, USB_EP_TX_DIS);
 299:Drivers/STM32L5xx_HAL_Driver/Src/stm32l5xx_ll_usb.c ****       }
 300:Drivers/STM32L5xx_HAL_Driver/Src/stm32l5xx_ll_usb.c **** 
 301:Drivers/STM32L5xx_HAL_Driver/Src/stm32l5xx_ll_usb.c ****       PCD_SET_EP_RX_STATUS(USBx, ep->num, USB_EP_RX_DIS);
 837              		.loc 1 301 7 discriminator 7 view .LVU282
 302:Drivers/STM32L5xx_HAL_Driver/Src/stm32l5xx_ll_usb.c ****     }
 303:Drivers/STM32L5xx_HAL_Driver/Src/stm32l5xx_ll_usb.c ****   }
 304:Drivers/STM32L5xx_HAL_Driver/Src/stm32l5xx_ll_usb.c **** #endif /* (USE_USB_DOUBLE_BUFFER == 1U) */
 305:Drivers/STM32L5xx_HAL_Driver/Src/stm32l5xx_ll_usb.c **** 
 306:Drivers/STM32L5xx_HAL_Driver/Src/stm32l5xx_ll_usb.c ****   return ret;
 838              		.loc 1 306 3 discriminator 7 view .LVU283
 307:Drivers/STM32L5xx_HAL_Driver/Src/stm32l5xx_ll_usb.c **** }
 839              		.loc 1 307 1 is_stmt 0 discriminator 7 view .LVU284
 840 02fc 10BD     		pop	{r4, pc}
 841              	.LVL95:
 842              	.L38:
 264:Drivers/STM32L5xx_HAL_Driver/Src/stm32l5xx_ll_usb.c ****     }
 843              		.loc 1 264 7 is_stmt 1 view .LVU285
 844              	.LBB26:
 264:Drivers/STM32L5xx_HAL_Driver/Src/stm32l5xx_ll_usb.c ****     }
 845              		.loc 1 264 7 view .LVU286
 264:Drivers/STM32L5xx_HAL_Driver/Src/stm32l5xx_ll_usb.c ****     }
 846              		.loc 1 264 7 view .LVU287
 847 02fe 0C78     		ldrb	r4, [r1]	@ zero_extendqisi2
 848 0300 33F82420 		ldrh	r2, [r3, r4, lsl #2]
 849 0304 92B2     		uxth	r2, r2
 850 0306 22F4E042 		bic	r2, r2, #28672
 851 030a 22F07002 		bic	r2, r2, #112
 852              	.LVL96:
 264:Drivers/STM32L5xx_HAL_Driver/Src/stm32l5xx_ll_usb.c ****     }
 853              		.loc 1 264 7 view .LVU288
 854 030e 42F40142 		orr	r2, r2, #33024
 855              	.LVL97:
 264:Drivers/STM32L5xx_HAL_Driver/Src/stm32l5xx_ll_usb.c ****     }
 856              		.loc 1 264 7 is_stmt 0 view .LVU289
 857 0312 42F08002 		orr	r2, r2, #128
 858 0316 23F82420 		strh	r2, [r3, r4, lsl #2]	@ movhi
 859              	.LBE26:
 264:Drivers/STM32L5xx_HAL_Driver/Src/stm32l5xx_ll_usb.c ****     }
 860              		.loc 1 264 7 is_stmt 1 view .LVU290
 861 031a 8BE7     		b	.L28
 862              	.LVL98:
 863              	.L29:
 287:Drivers/STM32L5xx_HAL_Driver/Src/stm32l5xx_ll_usb.c ****       PCD_CLEAR_TX_DTOG(USBx, ep->num);
 864              		.loc 1 287 7 view .LVU291
 865              	.LBB27:
 287:Drivers/STM32L5xx_HAL_Driver/Src/stm32l5xx_ll_usb.c ****       PCD_CLEAR_TX_DTOG(USBx, ep->num);
 866              		.loc 1 287 7 view .LVU292
 287:Drivers/STM32L5xx_HAL_Driver/Src/stm32l5xx_ll_usb.c ****       PCD_CLEAR_TX_DTOG(USBx, ep->num);
 867              		.loc 1 287 7 view .LVU293
 868 031c 0C78     		ldrb	r4, [r1]	@ zero_extendqisi2
 869 031e 33F82420 		ldrh	r2, [r3, r4, lsl #2]
ARM GAS  /tmp/ccQg3iPh.s 			page 22


 870              	.LVL99:
 287:Drivers/STM32L5xx_HAL_Driver/Src/stm32l5xx_ll_usb.c ****       PCD_CLEAR_TX_DTOG(USBx, ep->num);
 871              		.loc 1 287 7 view .LVU294
 872 0322 12F4804F 		tst	r2, #16384
 873 0326 0CD0     		beq	.L32
 287:Drivers/STM32L5xx_HAL_Driver/Src/stm32l5xx_ll_usb.c ****       PCD_CLEAR_TX_DTOG(USBx, ep->num);
 874              		.loc 1 287 7 discriminator 1 view .LVU295
 875              	.LBB28:
 287:Drivers/STM32L5xx_HAL_Driver/Src/stm32l5xx_ll_usb.c ****       PCD_CLEAR_TX_DTOG(USBx, ep->num);
 876              		.loc 1 287 7 discriminator 1 view .LVU296
 287:Drivers/STM32L5xx_HAL_Driver/Src/stm32l5xx_ll_usb.c ****       PCD_CLEAR_TX_DTOG(USBx, ep->num);
 877              		.loc 1 287 7 discriminator 1 view .LVU297
 878 0328 33F82420 		ldrh	r2, [r3, r4, lsl #2]
 879              	.LVL100:
 287:Drivers/STM32L5xx_HAL_Driver/Src/stm32l5xx_ll_usb.c ****       PCD_CLEAR_TX_DTOG(USBx, ep->num);
 880              		.loc 1 287 7 is_stmt 0 discriminator 1 view .LVU298
 881 032c 92B2     		uxth	r2, r2
 882 032e 22F4E042 		bic	r2, r2, #28672
 883 0332 22F07002 		bic	r2, r2, #112
 884              	.LVL101:
 287:Drivers/STM32L5xx_HAL_Driver/Src/stm32l5xx_ll_usb.c ****       PCD_CLEAR_TX_DTOG(USBx, ep->num);
 885              		.loc 1 287 7 is_stmt 1 discriminator 1 view .LVU299
 886 0336 42F44042 		orr	r2, r2, #49152
 887              	.LVL102:
 287:Drivers/STM32L5xx_HAL_Driver/Src/stm32l5xx_ll_usb.c ****       PCD_CLEAR_TX_DTOG(USBx, ep->num);
 888              		.loc 1 287 7 is_stmt 0 discriminator 1 view .LVU300
 889 033a 42F08002 		orr	r2, r2, #128
 890 033e 23F82420 		strh	r2, [r3, r4, lsl #2]	@ movhi
 891              	.LVL103:
 892              	.L32:
 287:Drivers/STM32L5xx_HAL_Driver/Src/stm32l5xx_ll_usb.c ****       PCD_CLEAR_TX_DTOG(USBx, ep->num);
 893              		.loc 1 287 7 discriminator 1 view .LVU301
 894              	.LBE28:
 287:Drivers/STM32L5xx_HAL_Driver/Src/stm32l5xx_ll_usb.c ****       PCD_CLEAR_TX_DTOG(USBx, ep->num);
 895              		.loc 1 287 7 is_stmt 1 discriminator 3 view .LVU302
 896              	.LBE27:
 287:Drivers/STM32L5xx_HAL_Driver/Src/stm32l5xx_ll_usb.c ****       PCD_CLEAR_TX_DTOG(USBx, ep->num);
 897              		.loc 1 287 7 discriminator 3 view .LVU303
 288:Drivers/STM32L5xx_HAL_Driver/Src/stm32l5xx_ll_usb.c **** 
 898              		.loc 1 288 7 discriminator 3 view .LVU304
 899              	.LBB29:
 288:Drivers/STM32L5xx_HAL_Driver/Src/stm32l5xx_ll_usb.c **** 
 900              		.loc 1 288 7 discriminator 3 view .LVU305
 288:Drivers/STM32L5xx_HAL_Driver/Src/stm32l5xx_ll_usb.c **** 
 901              		.loc 1 288 7 discriminator 3 view .LVU306
 902 0342 0C78     		ldrb	r4, [r1]	@ zero_extendqisi2
 903 0344 33F82420 		ldrh	r2, [r3, r4, lsl #2]
 904              	.LVL104:
 288:Drivers/STM32L5xx_HAL_Driver/Src/stm32l5xx_ll_usb.c **** 
 905              		.loc 1 288 7 discriminator 3 view .LVU307
 906 0348 12F0400F 		tst	r2, #64
 907 034c 0CD0     		beq	.L33
 288:Drivers/STM32L5xx_HAL_Driver/Src/stm32l5xx_ll_usb.c **** 
 908              		.loc 1 288 7 discriminator 1 view .LVU308
 909              	.LBB30:
 288:Drivers/STM32L5xx_HAL_Driver/Src/stm32l5xx_ll_usb.c **** 
 910              		.loc 1 288 7 discriminator 1 view .LVU309
ARM GAS  /tmp/ccQg3iPh.s 			page 23


 288:Drivers/STM32L5xx_HAL_Driver/Src/stm32l5xx_ll_usb.c **** 
 911              		.loc 1 288 7 discriminator 1 view .LVU310
 912 034e 33F82420 		ldrh	r2, [r3, r4, lsl #2]
 913              	.LVL105:
 288:Drivers/STM32L5xx_HAL_Driver/Src/stm32l5xx_ll_usb.c **** 
 914              		.loc 1 288 7 is_stmt 0 discriminator 1 view .LVU311
 915 0352 92B2     		uxth	r2, r2
 916 0354 22F4E042 		bic	r2, r2, #28672
 917 0358 22F07002 		bic	r2, r2, #112
 918              	.LVL106:
 288:Drivers/STM32L5xx_HAL_Driver/Src/stm32l5xx_ll_usb.c **** 
 919              		.loc 1 288 7 is_stmt 1 discriminator 1 view .LVU312
 920 035c 42F40042 		orr	r2, r2, #32768
 921              	.LVL107:
 288:Drivers/STM32L5xx_HAL_Driver/Src/stm32l5xx_ll_usb.c **** 
 922              		.loc 1 288 7 is_stmt 0 discriminator 1 view .LVU313
 923 0360 42F0C002 		orr	r2, r2, #192
 924 0364 23F82420 		strh	r2, [r3, r4, lsl #2]	@ movhi
 925              	.LVL108:
 926              	.L33:
 288:Drivers/STM32L5xx_HAL_Driver/Src/stm32l5xx_ll_usb.c **** 
 927              		.loc 1 288 7 discriminator 1 view .LVU314
 928              	.LBE30:
 288:Drivers/STM32L5xx_HAL_Driver/Src/stm32l5xx_ll_usb.c **** 
 929              		.loc 1 288 7 is_stmt 1 discriminator 3 view .LVU315
 930              	.LBE29:
 288:Drivers/STM32L5xx_HAL_Driver/Src/stm32l5xx_ll_usb.c **** 
 931              		.loc 1 288 7 discriminator 3 view .LVU316
 290:Drivers/STM32L5xx_HAL_Driver/Src/stm32l5xx_ll_usb.c ****       {
 932              		.loc 1 290 7 discriminator 3 view .LVU317
 290:Drivers/STM32L5xx_HAL_Driver/Src/stm32l5xx_ll_usb.c ****       {
 933              		.loc 1 290 13 is_stmt 0 discriminator 3 view .LVU318
 934 0368 CA78     		ldrb	r2, [r1, #3]	@ zero_extendqisi2
 290:Drivers/STM32L5xx_HAL_Driver/Src/stm32l5xx_ll_usb.c ****       {
 935              		.loc 1 290 10 discriminator 3 view .LVU319
 936 036a 012A     		cmp	r2, #1
 937 036c 1ED0     		beq	.L34
 293:Drivers/STM32L5xx_HAL_Driver/Src/stm32l5xx_ll_usb.c ****       }
 938              		.loc 1 293 9 is_stmt 1 view .LVU320
 939              	.LBB31:
 293:Drivers/STM32L5xx_HAL_Driver/Src/stm32l5xx_ll_usb.c ****       }
 940              		.loc 1 293 9 view .LVU321
 293:Drivers/STM32L5xx_HAL_Driver/Src/stm32l5xx_ll_usb.c ****       }
 941              		.loc 1 293 9 view .LVU322
 942 036e 0C78     		ldrb	r4, [r1]	@ zero_extendqisi2
 943 0370 33F82420 		ldrh	r2, [r3, r4, lsl #2]
 944 0374 92B2     		uxth	r2, r2
 945 0376 22F4E042 		bic	r2, r2, #28672
 946 037a 22F04002 		bic	r2, r2, #64
 947              	.LVL109:
 293:Drivers/STM32L5xx_HAL_Driver/Src/stm32l5xx_ll_usb.c ****       }
 948              		.loc 1 293 9 view .LVU323
 293:Drivers/STM32L5xx_HAL_Driver/Src/stm32l5xx_ll_usb.c ****       }
 949              		.loc 1 293 9 view .LVU324
 293:Drivers/STM32L5xx_HAL_Driver/Src/stm32l5xx_ll_usb.c ****       }
 950              		.loc 1 293 9 view .LVU325
 951 037e 82F02002 		eor	r2, r2, #32
ARM GAS  /tmp/ccQg3iPh.s 			page 24


 952              	.LVL110:
 293:Drivers/STM32L5xx_HAL_Driver/Src/stm32l5xx_ll_usb.c ****       }
 953              		.loc 1 293 9 view .LVU326
 954 0382 42F40042 		orr	r2, r2, #32768
 955              	.LVL111:
 293:Drivers/STM32L5xx_HAL_Driver/Src/stm32l5xx_ll_usb.c ****       }
 956              		.loc 1 293 9 is_stmt 0 view .LVU327
 957 0386 42F08002 		orr	r2, r2, #128
 958 038a 23F82420 		strh	r2, [r3, r4, lsl #2]	@ movhi
 959              	.LBE31:
 293:Drivers/STM32L5xx_HAL_Driver/Src/stm32l5xx_ll_usb.c ****       }
 960              		.loc 1 293 9 is_stmt 1 view .LVU328
 961              	.LVL112:
 962              	.L35:
 298:Drivers/STM32L5xx_HAL_Driver/Src/stm32l5xx_ll_usb.c ****       }
 963              		.loc 1 298 9 discriminator 7 view .LVU329
 301:Drivers/STM32L5xx_HAL_Driver/Src/stm32l5xx_ll_usb.c ****     }
 964              		.loc 1 301 7 discriminator 7 view .LVU330
 965              	.LBB32:
 301:Drivers/STM32L5xx_HAL_Driver/Src/stm32l5xx_ll_usb.c ****     }
 966              		.loc 1 301 7 discriminator 7 view .LVU331
 301:Drivers/STM32L5xx_HAL_Driver/Src/stm32l5xx_ll_usb.c ****     }
 967              		.loc 1 301 7 discriminator 7 view .LVU332
 968 038e 0978     		ldrb	r1, [r1]	@ zero_extendqisi2
 969              	.LVL113:
 301:Drivers/STM32L5xx_HAL_Driver/Src/stm32l5xx_ll_usb.c ****     }
 970              		.loc 1 301 7 is_stmt 0 discriminator 7 view .LVU333
 971 0390 33F82120 		ldrh	r2, [r3, r1, lsl #2]
 972 0394 92B2     		uxth	r2, r2
 973 0396 22F48042 		bic	r2, r2, #16384
 974 039a 22F07002 		bic	r2, r2, #112
 975              	.LVL114:
 301:Drivers/STM32L5xx_HAL_Driver/Src/stm32l5xx_ll_usb.c ****     }
 976              		.loc 1 301 7 is_stmt 1 discriminator 7 view .LVU334
 301:Drivers/STM32L5xx_HAL_Driver/Src/stm32l5xx_ll_usb.c ****     }
 977              		.loc 1 301 7 discriminator 7 view .LVU335
 301:Drivers/STM32L5xx_HAL_Driver/Src/stm32l5xx_ll_usb.c ****     }
 978              		.loc 1 301 7 discriminator 7 view .LVU336
 979 039e 42F40042 		orr	r2, r2, #32768
 980              	.LVL115:
 301:Drivers/STM32L5xx_HAL_Driver/Src/stm32l5xx_ll_usb.c ****     }
 981              		.loc 1 301 7 is_stmt 0 discriminator 7 view .LVU337
 982 03a2 42F08002 		orr	r2, r2, #128
 983 03a6 23F82120 		strh	r2, [r3, r1, lsl #2]	@ movhi
 984 03aa A7E7     		b	.L19
 985              	.LVL116:
 986              	.L34:
 301:Drivers/STM32L5xx_HAL_Driver/Src/stm32l5xx_ll_usb.c ****     }
 987              		.loc 1 301 7 discriminator 7 view .LVU338
 988              	.LBE32:
 298:Drivers/STM32L5xx_HAL_Driver/Src/stm32l5xx_ll_usb.c ****       }
 989              		.loc 1 298 9 is_stmt 1 view .LVU339
 990              	.LBB33:
 298:Drivers/STM32L5xx_HAL_Driver/Src/stm32l5xx_ll_usb.c ****       }
 991              		.loc 1 298 9 view .LVU340
 298:Drivers/STM32L5xx_HAL_Driver/Src/stm32l5xx_ll_usb.c ****       }
 992              		.loc 1 298 9 view .LVU341
ARM GAS  /tmp/ccQg3iPh.s 			page 25


 993 03ac 0C78     		ldrb	r4, [r1]	@ zero_extendqisi2
 994 03ae 33F82420 		ldrh	r2, [r3, r4, lsl #2]
 995 03b2 92B2     		uxth	r2, r2
 996 03b4 22F4E042 		bic	r2, r2, #28672
 997 03b8 22F04002 		bic	r2, r2, #64
 998              	.LVL117:
 298:Drivers/STM32L5xx_HAL_Driver/Src/stm32l5xx_ll_usb.c ****       }
 999              		.loc 1 298 9 view .LVU342
 298:Drivers/STM32L5xx_HAL_Driver/Src/stm32l5xx_ll_usb.c ****       }
 1000              		.loc 1 298 9 view .LVU343
 298:Drivers/STM32L5xx_HAL_Driver/Src/stm32l5xx_ll_usb.c ****       }
 1001              		.loc 1 298 9 view .LVU344
 1002 03bc 42F40042 		orr	r2, r2, #32768
 1003              	.LVL118:
 298:Drivers/STM32L5xx_HAL_Driver/Src/stm32l5xx_ll_usb.c ****       }
 1004              		.loc 1 298 9 is_stmt 0 view .LVU345
 1005 03c0 42F08002 		orr	r2, r2, #128
 1006 03c4 23F82420 		strh	r2, [r3, r4, lsl #2]	@ movhi
 1007 03c8 E1E7     		b	.L35
 1008              	.LBE33:
 1009              		.cfi_endproc
 1010              	.LFE157:
 1012              		.section	.text.USB_DeactivateEndpoint,"ax",%progbits
 1013              		.align	1
 1014              		.global	USB_DeactivateEndpoint
 1015              		.syntax unified
 1016              		.thumb
 1017              		.thumb_func
 1019              	USB_DeactivateEndpoint:
 1020              	.LVL119:
 1021              	.LFB158:
 308:Drivers/STM32L5xx_HAL_Driver/Src/stm32l5xx_ll_usb.c **** 
 309:Drivers/STM32L5xx_HAL_Driver/Src/stm32l5xx_ll_usb.c **** /**
 310:Drivers/STM32L5xx_HAL_Driver/Src/stm32l5xx_ll_usb.c ****   * @brief  De-activate and de-initialize an endpoint
 311:Drivers/STM32L5xx_HAL_Driver/Src/stm32l5xx_ll_usb.c ****   * @param  USBx Selected device
 312:Drivers/STM32L5xx_HAL_Driver/Src/stm32l5xx_ll_usb.c ****   * @param  ep pointer to endpoint structure
 313:Drivers/STM32L5xx_HAL_Driver/Src/stm32l5xx_ll_usb.c ****   * @retval HAL status
 314:Drivers/STM32L5xx_HAL_Driver/Src/stm32l5xx_ll_usb.c ****   */
 315:Drivers/STM32L5xx_HAL_Driver/Src/stm32l5xx_ll_usb.c **** HAL_StatusTypeDef USB_DeactivateEndpoint(USB_TypeDef *USBx, USB_EPTypeDef *ep)
 316:Drivers/STM32L5xx_HAL_Driver/Src/stm32l5xx_ll_usb.c **** {
 1022              		.loc 1 316 1 is_stmt 1 view -0
 1023              		.cfi_startproc
 1024              		@ args = 0, pretend = 0, frame = 0
 1025              		@ frame_needed = 0, uses_anonymous_args = 0
 1026              		@ link register save eliminated.
 317:Drivers/STM32L5xx_HAL_Driver/Src/stm32l5xx_ll_usb.c ****   if (ep->doublebuffer == 0U)
 1027              		.loc 1 317 3 view .LVU347
 1028              		.loc 1 317 9 is_stmt 0 view .LVU348
 1029 0000 0B7B     		ldrb	r3, [r1, #12]	@ zero_extendqisi2
 1030              		.loc 1 317 6 view .LVU349
 1031 0002 002B     		cmp	r3, #0
 1032 0004 46D1     		bne	.L40
 318:Drivers/STM32L5xx_HAL_Driver/Src/stm32l5xx_ll_usb.c ****   {
 319:Drivers/STM32L5xx_HAL_Driver/Src/stm32l5xx_ll_usb.c ****     if (ep->is_in != 0U)
 1033              		.loc 1 319 5 is_stmt 1 view .LVU350
 1034              		.loc 1 319 11 is_stmt 0 view .LVU351
 1035 0006 4B78     		ldrb	r3, [r1, #1]	@ zero_extendqisi2
ARM GAS  /tmp/ccQg3iPh.s 			page 26


 1036              		.loc 1 319 8 view .LVU352
 1037 0008 13B3     		cbz	r3, .L41
 320:Drivers/STM32L5xx_HAL_Driver/Src/stm32l5xx_ll_usb.c ****     {
 321:Drivers/STM32L5xx_HAL_Driver/Src/stm32l5xx_ll_usb.c ****       PCD_CLEAR_TX_DTOG(USBx, ep->num);
 1038              		.loc 1 321 7 is_stmt 1 view .LVU353
 1039              	.LBB34:
 1040              		.loc 1 321 7 view .LVU354
 1041              		.loc 1 321 7 view .LVU355
 1042 000a 0A78     		ldrb	r2, [r1]	@ zero_extendqisi2
 1043 000c 30F82230 		ldrh	r3, [r0, r2, lsl #2]
 1044              	.LVL120:
 1045              		.loc 1 321 7 view .LVU356
 1046 0010 13F0400F 		tst	r3, #64
 1047 0014 0CD0     		beq	.L42
 1048              		.loc 1 321 7 discriminator 1 view .LVU357
 1049              	.LBB35:
 1050              		.loc 1 321 7 discriminator 1 view .LVU358
 1051              		.loc 1 321 7 discriminator 1 view .LVU359
 1052 0016 30F82230 		ldrh	r3, [r0, r2, lsl #2]
 1053              	.LVL121:
 1054              		.loc 1 321 7 is_stmt 0 discriminator 1 view .LVU360
 1055 001a 9BB2     		uxth	r3, r3
 1056 001c 23F4E043 		bic	r3, r3, #28672
 1057 0020 23F07003 		bic	r3, r3, #112
 1058              	.LVL122:
 1059              		.loc 1 321 7 is_stmt 1 discriminator 1 view .LVU361
 1060 0024 43F40043 		orr	r3, r3, #32768
 1061              	.LVL123:
 1062              		.loc 1 321 7 is_stmt 0 discriminator 1 view .LVU362
 1063 0028 43F0C003 		orr	r3, r3, #192
 1064 002c 20F82230 		strh	r3, [r0, r2, lsl #2]	@ movhi
 1065              	.LVL124:
 1066              	.L42:
 1067              		.loc 1 321 7 discriminator 1 view .LVU363
 1068              	.LBE35:
 1069              		.loc 1 321 7 is_stmt 1 discriminator 3 view .LVU364
 1070              	.LBE34:
 1071              		.loc 1 321 7 discriminator 3 view .LVU365
 322:Drivers/STM32L5xx_HAL_Driver/Src/stm32l5xx_ll_usb.c **** 
 323:Drivers/STM32L5xx_HAL_Driver/Src/stm32l5xx_ll_usb.c ****       /* Configure DISABLE status for the Endpoint */
 324:Drivers/STM32L5xx_HAL_Driver/Src/stm32l5xx_ll_usb.c ****       PCD_SET_EP_TX_STATUS(USBx, ep->num, USB_EP_TX_DIS);
 1072              		.loc 1 324 7 discriminator 3 view .LVU366
 1073              	.LBB36:
 1074              		.loc 1 324 7 discriminator 3 view .LVU367
 1075              		.loc 1 324 7 discriminator 3 view .LVU368
 1076 0030 0A78     		ldrb	r2, [r1]	@ zero_extendqisi2
 1077 0032 30F82230 		ldrh	r3, [r0, r2, lsl #2]
 1078 0036 9BB2     		uxth	r3, r3
 1079 0038 23F4E043 		bic	r3, r3, #28672
 1080 003c 23F04003 		bic	r3, r3, #64
 1081              	.LVL125:
 1082              		.loc 1 324 7 discriminator 3 view .LVU369
 1083              		.loc 1 324 7 discriminator 3 view .LVU370
 1084              		.loc 1 324 7 discriminator 3 view .LVU371
 1085 0040 43F40043 		orr	r3, r3, #32768
 1086              	.LVL126:
 1087              		.loc 1 324 7 is_stmt 0 discriminator 3 view .LVU372
ARM GAS  /tmp/ccQg3iPh.s 			page 27


 1088 0044 43F08003 		orr	r3, r3, #128
 1089 0048 20F82230 		strh	r3, [r0, r2, lsl #2]	@ movhi
 1090              	.LBE36:
 1091              		.loc 1 324 7 is_stmt 1 discriminator 3 view .LVU373
 1092              	.LVL127:
 1093              	.L43:
 325:Drivers/STM32L5xx_HAL_Driver/Src/stm32l5xx_ll_usb.c ****     }
 326:Drivers/STM32L5xx_HAL_Driver/Src/stm32l5xx_ll_usb.c **** 
 327:Drivers/STM32L5xx_HAL_Driver/Src/stm32l5xx_ll_usb.c ****     else
 328:Drivers/STM32L5xx_HAL_Driver/Src/stm32l5xx_ll_usb.c ****     {
 329:Drivers/STM32L5xx_HAL_Driver/Src/stm32l5xx_ll_usb.c ****       PCD_CLEAR_RX_DTOG(USBx, ep->num);
 330:Drivers/STM32L5xx_HAL_Driver/Src/stm32l5xx_ll_usb.c **** 
 331:Drivers/STM32L5xx_HAL_Driver/Src/stm32l5xx_ll_usb.c ****       /* Configure DISABLE status for the Endpoint */
 332:Drivers/STM32L5xx_HAL_Driver/Src/stm32l5xx_ll_usb.c ****       PCD_SET_EP_RX_STATUS(USBx, ep->num, USB_EP_RX_DIS);
 333:Drivers/STM32L5xx_HAL_Driver/Src/stm32l5xx_ll_usb.c ****     }
 334:Drivers/STM32L5xx_HAL_Driver/Src/stm32l5xx_ll_usb.c ****   }
 335:Drivers/STM32L5xx_HAL_Driver/Src/stm32l5xx_ll_usb.c **** #if (USE_USB_DOUBLE_BUFFER == 1U)
 336:Drivers/STM32L5xx_HAL_Driver/Src/stm32l5xx_ll_usb.c ****   /* Double Buffer */
 337:Drivers/STM32L5xx_HAL_Driver/Src/stm32l5xx_ll_usb.c ****   else
 338:Drivers/STM32L5xx_HAL_Driver/Src/stm32l5xx_ll_usb.c ****   {
 339:Drivers/STM32L5xx_HAL_Driver/Src/stm32l5xx_ll_usb.c ****     if (ep->is_in == 0U)
 340:Drivers/STM32L5xx_HAL_Driver/Src/stm32l5xx_ll_usb.c ****     {
 341:Drivers/STM32L5xx_HAL_Driver/Src/stm32l5xx_ll_usb.c ****       /* Clear the data toggle bits for the endpoint IN/OUT*/
 342:Drivers/STM32L5xx_HAL_Driver/Src/stm32l5xx_ll_usb.c ****       PCD_CLEAR_RX_DTOG(USBx, ep->num);
 343:Drivers/STM32L5xx_HAL_Driver/Src/stm32l5xx_ll_usb.c ****       PCD_CLEAR_TX_DTOG(USBx, ep->num);
 344:Drivers/STM32L5xx_HAL_Driver/Src/stm32l5xx_ll_usb.c **** 
 345:Drivers/STM32L5xx_HAL_Driver/Src/stm32l5xx_ll_usb.c ****       /* Reset value of the data toggle bits for the endpoint out*/
 346:Drivers/STM32L5xx_HAL_Driver/Src/stm32l5xx_ll_usb.c ****       PCD_TX_DTOG(USBx, ep->num);
 347:Drivers/STM32L5xx_HAL_Driver/Src/stm32l5xx_ll_usb.c **** 
 348:Drivers/STM32L5xx_HAL_Driver/Src/stm32l5xx_ll_usb.c ****       PCD_SET_EP_RX_STATUS(USBx, ep->num, USB_EP_RX_DIS);
 349:Drivers/STM32L5xx_HAL_Driver/Src/stm32l5xx_ll_usb.c ****       PCD_SET_EP_TX_STATUS(USBx, ep->num, USB_EP_TX_DIS);
 350:Drivers/STM32L5xx_HAL_Driver/Src/stm32l5xx_ll_usb.c ****     }
 351:Drivers/STM32L5xx_HAL_Driver/Src/stm32l5xx_ll_usb.c ****     else
 352:Drivers/STM32L5xx_HAL_Driver/Src/stm32l5xx_ll_usb.c ****     {
 353:Drivers/STM32L5xx_HAL_Driver/Src/stm32l5xx_ll_usb.c ****       /* Clear the data toggle bits for the endpoint IN/OUT*/
 354:Drivers/STM32L5xx_HAL_Driver/Src/stm32l5xx_ll_usb.c ****       PCD_CLEAR_RX_DTOG(USBx, ep->num);
 355:Drivers/STM32L5xx_HAL_Driver/Src/stm32l5xx_ll_usb.c ****       PCD_CLEAR_TX_DTOG(USBx, ep->num);
 356:Drivers/STM32L5xx_HAL_Driver/Src/stm32l5xx_ll_usb.c ****       PCD_RX_DTOG(USBx, ep->num);
 357:Drivers/STM32L5xx_HAL_Driver/Src/stm32l5xx_ll_usb.c **** 
 358:Drivers/STM32L5xx_HAL_Driver/Src/stm32l5xx_ll_usb.c ****       /* Configure DISABLE status for the Endpoint*/
 359:Drivers/STM32L5xx_HAL_Driver/Src/stm32l5xx_ll_usb.c ****       PCD_SET_EP_TX_STATUS(USBx, ep->num, USB_EP_TX_DIS);
 360:Drivers/STM32L5xx_HAL_Driver/Src/stm32l5xx_ll_usb.c ****       PCD_SET_EP_RX_STATUS(USBx, ep->num, USB_EP_RX_DIS);
 1094              		.loc 1 360 7 discriminator 7 view .LVU374
 361:Drivers/STM32L5xx_HAL_Driver/Src/stm32l5xx_ll_usb.c ****     }
 362:Drivers/STM32L5xx_HAL_Driver/Src/stm32l5xx_ll_usb.c ****   }
 363:Drivers/STM32L5xx_HAL_Driver/Src/stm32l5xx_ll_usb.c **** #endif /* (USE_USB_DOUBLE_BUFFER == 1U) */
 364:Drivers/STM32L5xx_HAL_Driver/Src/stm32l5xx_ll_usb.c **** 
 365:Drivers/STM32L5xx_HAL_Driver/Src/stm32l5xx_ll_usb.c ****   return HAL_OK;
 1095              		.loc 1 365 3 discriminator 7 view .LVU375
 366:Drivers/STM32L5xx_HAL_Driver/Src/stm32l5xx_ll_usb.c **** }
 1096              		.loc 1 366 1 is_stmt 0 discriminator 7 view .LVU376
 1097 004c 0020     		movs	r0, #0
 1098              	.LVL128:
 1099              		.loc 1 366 1 discriminator 7 view .LVU377
 1100 004e 7047     		bx	lr
 1101              	.LVL129:
 1102              	.L41:
ARM GAS  /tmp/ccQg3iPh.s 			page 28


 329:Drivers/STM32L5xx_HAL_Driver/Src/stm32l5xx_ll_usb.c **** 
 1103              		.loc 1 329 7 is_stmt 1 view .LVU378
 1104              	.LBB37:
 329:Drivers/STM32L5xx_HAL_Driver/Src/stm32l5xx_ll_usb.c **** 
 1105              		.loc 1 329 7 view .LVU379
 329:Drivers/STM32L5xx_HAL_Driver/Src/stm32l5xx_ll_usb.c **** 
 1106              		.loc 1 329 7 view .LVU380
 1107 0050 0A78     		ldrb	r2, [r1]	@ zero_extendqisi2
 1108 0052 30F82230 		ldrh	r3, [r0, r2, lsl #2]
 1109              	.LVL130:
 329:Drivers/STM32L5xx_HAL_Driver/Src/stm32l5xx_ll_usb.c **** 
 1110              		.loc 1 329 7 view .LVU381
 1111 0056 13F4804F 		tst	r3, #16384
 1112 005a 0CD0     		beq	.L44
 329:Drivers/STM32L5xx_HAL_Driver/Src/stm32l5xx_ll_usb.c **** 
 1113              		.loc 1 329 7 discriminator 1 view .LVU382
 1114              	.LBB38:
 329:Drivers/STM32L5xx_HAL_Driver/Src/stm32l5xx_ll_usb.c **** 
 1115              		.loc 1 329 7 discriminator 1 view .LVU383
 329:Drivers/STM32L5xx_HAL_Driver/Src/stm32l5xx_ll_usb.c **** 
 1116              		.loc 1 329 7 discriminator 1 view .LVU384
 1117 005c 30F82230 		ldrh	r3, [r0, r2, lsl #2]
 1118              	.LVL131:
 329:Drivers/STM32L5xx_HAL_Driver/Src/stm32l5xx_ll_usb.c **** 
 1119              		.loc 1 329 7 is_stmt 0 discriminator 1 view .LVU385
 1120 0060 9BB2     		uxth	r3, r3
 1121 0062 23F4E043 		bic	r3, r3, #28672
 1122 0066 23F07003 		bic	r3, r3, #112
 1123              	.LVL132:
 329:Drivers/STM32L5xx_HAL_Driver/Src/stm32l5xx_ll_usb.c **** 
 1124              		.loc 1 329 7 is_stmt 1 discriminator 1 view .LVU386
 1125 006a 43F44043 		orr	r3, r3, #49152
 1126              	.LVL133:
 329:Drivers/STM32L5xx_HAL_Driver/Src/stm32l5xx_ll_usb.c **** 
 1127              		.loc 1 329 7 is_stmt 0 discriminator 1 view .LVU387
 1128 006e 43F08003 		orr	r3, r3, #128
 1129 0072 20F82230 		strh	r3, [r0, r2, lsl #2]	@ movhi
 1130              	.LVL134:
 1131              	.L44:
 329:Drivers/STM32L5xx_HAL_Driver/Src/stm32l5xx_ll_usb.c **** 
 1132              		.loc 1 329 7 discriminator 1 view .LVU388
 1133              	.LBE38:
 329:Drivers/STM32L5xx_HAL_Driver/Src/stm32l5xx_ll_usb.c **** 
 1134              		.loc 1 329 7 is_stmt 1 discriminator 3 view .LVU389
 1135              	.LBE37:
 329:Drivers/STM32L5xx_HAL_Driver/Src/stm32l5xx_ll_usb.c **** 
 1136              		.loc 1 329 7 discriminator 3 view .LVU390
 332:Drivers/STM32L5xx_HAL_Driver/Src/stm32l5xx_ll_usb.c ****     }
 1137              		.loc 1 332 7 discriminator 3 view .LVU391
 1138              	.LBB39:
 332:Drivers/STM32L5xx_HAL_Driver/Src/stm32l5xx_ll_usb.c ****     }
 1139              		.loc 1 332 7 discriminator 3 view .LVU392
 332:Drivers/STM32L5xx_HAL_Driver/Src/stm32l5xx_ll_usb.c ****     }
 1140              		.loc 1 332 7 discriminator 3 view .LVU393
 1141 0076 0A78     		ldrb	r2, [r1]	@ zero_extendqisi2
 1142 0078 30F82230 		ldrh	r3, [r0, r2, lsl #2]
 1143 007c 9BB2     		uxth	r3, r3
ARM GAS  /tmp/ccQg3iPh.s 			page 29


 1144 007e 23F48043 		bic	r3, r3, #16384
 1145 0082 23F07003 		bic	r3, r3, #112
 1146              	.LVL135:
 332:Drivers/STM32L5xx_HAL_Driver/Src/stm32l5xx_ll_usb.c ****     }
 1147              		.loc 1 332 7 discriminator 3 view .LVU394
 332:Drivers/STM32L5xx_HAL_Driver/Src/stm32l5xx_ll_usb.c ****     }
 1148              		.loc 1 332 7 discriminator 3 view .LVU395
 332:Drivers/STM32L5xx_HAL_Driver/Src/stm32l5xx_ll_usb.c ****     }
 1149              		.loc 1 332 7 discriminator 3 view .LVU396
 1150 0086 43F40043 		orr	r3, r3, #32768
 1151              	.LVL136:
 332:Drivers/STM32L5xx_HAL_Driver/Src/stm32l5xx_ll_usb.c ****     }
 1152              		.loc 1 332 7 is_stmt 0 discriminator 3 view .LVU397
 1153 008a 43F08003 		orr	r3, r3, #128
 1154 008e 20F82230 		strh	r3, [r0, r2, lsl #2]	@ movhi
 1155 0092 DBE7     		b	.L43
 1156              	.LVL137:
 1157              	.L40:
 332:Drivers/STM32L5xx_HAL_Driver/Src/stm32l5xx_ll_usb.c ****     }
 1158              		.loc 1 332 7 discriminator 3 view .LVU398
 1159              	.LBE39:
 339:Drivers/STM32L5xx_HAL_Driver/Src/stm32l5xx_ll_usb.c ****     {
 1160              		.loc 1 339 5 is_stmt 1 view .LVU399
 339:Drivers/STM32L5xx_HAL_Driver/Src/stm32l5xx_ll_usb.c ****     {
 1161              		.loc 1 339 11 is_stmt 0 view .LVU400
 1162 0094 4B78     		ldrb	r3, [r1, #1]	@ zero_extendqisi2
 339:Drivers/STM32L5xx_HAL_Driver/Src/stm32l5xx_ll_usb.c ****     {
 1163              		.loc 1 339 8 view .LVU401
 1164 0096 002B     		cmp	r3, #0
 1165 0098 4ED1     		bne	.L45
 342:Drivers/STM32L5xx_HAL_Driver/Src/stm32l5xx_ll_usb.c ****       PCD_CLEAR_TX_DTOG(USBx, ep->num);
 1166              		.loc 1 342 7 is_stmt 1 view .LVU402
 1167              	.LBB40:
 342:Drivers/STM32L5xx_HAL_Driver/Src/stm32l5xx_ll_usb.c ****       PCD_CLEAR_TX_DTOG(USBx, ep->num);
 1168              		.loc 1 342 7 view .LVU403
 342:Drivers/STM32L5xx_HAL_Driver/Src/stm32l5xx_ll_usb.c ****       PCD_CLEAR_TX_DTOG(USBx, ep->num);
 1169              		.loc 1 342 7 view .LVU404
 1170 009a 0A78     		ldrb	r2, [r1]	@ zero_extendqisi2
 1171 009c 30F82230 		ldrh	r3, [r0, r2, lsl #2]
 1172              	.LVL138:
 342:Drivers/STM32L5xx_HAL_Driver/Src/stm32l5xx_ll_usb.c ****       PCD_CLEAR_TX_DTOG(USBx, ep->num);
 1173              		.loc 1 342 7 view .LVU405
 1174 00a0 13F4804F 		tst	r3, #16384
 1175 00a4 0CD0     		beq	.L46
 342:Drivers/STM32L5xx_HAL_Driver/Src/stm32l5xx_ll_usb.c ****       PCD_CLEAR_TX_DTOG(USBx, ep->num);
 1176              		.loc 1 342 7 discriminator 1 view .LVU406
 1177              	.LBB41:
 342:Drivers/STM32L5xx_HAL_Driver/Src/stm32l5xx_ll_usb.c ****       PCD_CLEAR_TX_DTOG(USBx, ep->num);
 1178              		.loc 1 342 7 discriminator 1 view .LVU407
 342:Drivers/STM32L5xx_HAL_Driver/Src/stm32l5xx_ll_usb.c ****       PCD_CLEAR_TX_DTOG(USBx, ep->num);
 1179              		.loc 1 342 7 discriminator 1 view .LVU408
 1180 00a6 30F82230 		ldrh	r3, [r0, r2, lsl #2]
 1181              	.LVL139:
 342:Drivers/STM32L5xx_HAL_Driver/Src/stm32l5xx_ll_usb.c ****       PCD_CLEAR_TX_DTOG(USBx, ep->num);
 1182              		.loc 1 342 7 is_stmt 0 discriminator 1 view .LVU409
 1183 00aa 9BB2     		uxth	r3, r3
 1184 00ac 23F4E043 		bic	r3, r3, #28672
ARM GAS  /tmp/ccQg3iPh.s 			page 30


 1185 00b0 23F07003 		bic	r3, r3, #112
 1186              	.LVL140:
 342:Drivers/STM32L5xx_HAL_Driver/Src/stm32l5xx_ll_usb.c ****       PCD_CLEAR_TX_DTOG(USBx, ep->num);
 1187              		.loc 1 342 7 is_stmt 1 discriminator 1 view .LVU410
 1188 00b4 43F44043 		orr	r3, r3, #49152
 1189              	.LVL141:
 342:Drivers/STM32L5xx_HAL_Driver/Src/stm32l5xx_ll_usb.c ****       PCD_CLEAR_TX_DTOG(USBx, ep->num);
 1190              		.loc 1 342 7 is_stmt 0 discriminator 1 view .LVU411
 1191 00b8 43F08003 		orr	r3, r3, #128
 1192 00bc 20F82230 		strh	r3, [r0, r2, lsl #2]	@ movhi
 1193              	.LVL142:
 1194              	.L46:
 342:Drivers/STM32L5xx_HAL_Driver/Src/stm32l5xx_ll_usb.c ****       PCD_CLEAR_TX_DTOG(USBx, ep->num);
 1195              		.loc 1 342 7 discriminator 1 view .LVU412
 1196              	.LBE41:
 342:Drivers/STM32L5xx_HAL_Driver/Src/stm32l5xx_ll_usb.c ****       PCD_CLEAR_TX_DTOG(USBx, ep->num);
 1197              		.loc 1 342 7 is_stmt 1 discriminator 3 view .LVU413
 1198              	.LBE40:
 342:Drivers/STM32L5xx_HAL_Driver/Src/stm32l5xx_ll_usb.c ****       PCD_CLEAR_TX_DTOG(USBx, ep->num);
 1199              		.loc 1 342 7 discriminator 3 view .LVU414
 343:Drivers/STM32L5xx_HAL_Driver/Src/stm32l5xx_ll_usb.c **** 
 1200              		.loc 1 343 7 discriminator 3 view .LVU415
 1201              	.LBB42:
 343:Drivers/STM32L5xx_HAL_Driver/Src/stm32l5xx_ll_usb.c **** 
 1202              		.loc 1 343 7 discriminator 3 view .LVU416
 343:Drivers/STM32L5xx_HAL_Driver/Src/stm32l5xx_ll_usb.c **** 
 1203              		.loc 1 343 7 discriminator 3 view .LVU417
 1204 00c0 0A78     		ldrb	r2, [r1]	@ zero_extendqisi2
 1205 00c2 30F82230 		ldrh	r3, [r0, r2, lsl #2]
 1206              	.LVL143:
 343:Drivers/STM32L5xx_HAL_Driver/Src/stm32l5xx_ll_usb.c **** 
 1207              		.loc 1 343 7 discriminator 3 view .LVU418
 1208 00c6 13F0400F 		tst	r3, #64
 1209 00ca 0CD0     		beq	.L47
 343:Drivers/STM32L5xx_HAL_Driver/Src/stm32l5xx_ll_usb.c **** 
 1210              		.loc 1 343 7 discriminator 1 view .LVU419
 1211              	.LBB43:
 343:Drivers/STM32L5xx_HAL_Driver/Src/stm32l5xx_ll_usb.c **** 
 1212              		.loc 1 343 7 discriminator 1 view .LVU420
 343:Drivers/STM32L5xx_HAL_Driver/Src/stm32l5xx_ll_usb.c **** 
 1213              		.loc 1 343 7 discriminator 1 view .LVU421
 1214 00cc 30F82230 		ldrh	r3, [r0, r2, lsl #2]
 1215              	.LVL144:
 343:Drivers/STM32L5xx_HAL_Driver/Src/stm32l5xx_ll_usb.c **** 
 1216              		.loc 1 343 7 is_stmt 0 discriminator 1 view .LVU422
 1217 00d0 9BB2     		uxth	r3, r3
 1218 00d2 23F4E043 		bic	r3, r3, #28672
 1219 00d6 23F07003 		bic	r3, r3, #112
 1220              	.LVL145:
 343:Drivers/STM32L5xx_HAL_Driver/Src/stm32l5xx_ll_usb.c **** 
 1221              		.loc 1 343 7 is_stmt 1 discriminator 1 view .LVU423
 1222 00da 43F40043 		orr	r3, r3, #32768
 1223              	.LVL146:
 343:Drivers/STM32L5xx_HAL_Driver/Src/stm32l5xx_ll_usb.c **** 
 1224              		.loc 1 343 7 is_stmt 0 discriminator 1 view .LVU424
 1225 00de 43F0C003 		orr	r3, r3, #192
 1226 00e2 20F82230 		strh	r3, [r0, r2, lsl #2]	@ movhi
ARM GAS  /tmp/ccQg3iPh.s 			page 31


 1227              	.LVL147:
 1228              	.L47:
 343:Drivers/STM32L5xx_HAL_Driver/Src/stm32l5xx_ll_usb.c **** 
 1229              		.loc 1 343 7 discriminator 1 view .LVU425
 1230              	.LBE43:
 343:Drivers/STM32L5xx_HAL_Driver/Src/stm32l5xx_ll_usb.c **** 
 1231              		.loc 1 343 7 is_stmt 1 discriminator 3 view .LVU426
 1232              	.LBE42:
 343:Drivers/STM32L5xx_HAL_Driver/Src/stm32l5xx_ll_usb.c **** 
 1233              		.loc 1 343 7 discriminator 3 view .LVU427
 346:Drivers/STM32L5xx_HAL_Driver/Src/stm32l5xx_ll_usb.c **** 
 1234              		.loc 1 346 7 discriminator 3 view .LVU428
 1235              	.LBB44:
 346:Drivers/STM32L5xx_HAL_Driver/Src/stm32l5xx_ll_usb.c **** 
 1236              		.loc 1 346 7 discriminator 3 view .LVU429
 346:Drivers/STM32L5xx_HAL_Driver/Src/stm32l5xx_ll_usb.c **** 
 1237              		.loc 1 346 7 discriminator 3 view .LVU430
 1238 00e6 0A78     		ldrb	r2, [r1]	@ zero_extendqisi2
 1239 00e8 30F82230 		ldrh	r3, [r0, r2, lsl #2]
 1240 00ec 9BB2     		uxth	r3, r3
 1241 00ee 23F4E043 		bic	r3, r3, #28672
 1242 00f2 23F07003 		bic	r3, r3, #112
 1243              	.LVL148:
 346:Drivers/STM32L5xx_HAL_Driver/Src/stm32l5xx_ll_usb.c **** 
 1244              		.loc 1 346 7 discriminator 3 view .LVU431
 1245 00f6 43F40043 		orr	r3, r3, #32768
 1246              	.LVL149:
 346:Drivers/STM32L5xx_HAL_Driver/Src/stm32l5xx_ll_usb.c **** 
 1247              		.loc 1 346 7 is_stmt 0 discriminator 3 view .LVU432
 1248 00fa 43F0C003 		orr	r3, r3, #192
 1249 00fe 20F82230 		strh	r3, [r0, r2, lsl #2]	@ movhi
 1250              	.LBE44:
 346:Drivers/STM32L5xx_HAL_Driver/Src/stm32l5xx_ll_usb.c **** 
 1251              		.loc 1 346 7 is_stmt 1 discriminator 3 view .LVU433
 348:Drivers/STM32L5xx_HAL_Driver/Src/stm32l5xx_ll_usb.c ****       PCD_SET_EP_TX_STATUS(USBx, ep->num, USB_EP_TX_DIS);
 1252              		.loc 1 348 7 discriminator 3 view .LVU434
 1253              	.LBB45:
 348:Drivers/STM32L5xx_HAL_Driver/Src/stm32l5xx_ll_usb.c ****       PCD_SET_EP_TX_STATUS(USBx, ep->num, USB_EP_TX_DIS);
 1254              		.loc 1 348 7 discriminator 3 view .LVU435
 348:Drivers/STM32L5xx_HAL_Driver/Src/stm32l5xx_ll_usb.c ****       PCD_SET_EP_TX_STATUS(USBx, ep->num, USB_EP_TX_DIS);
 1255              		.loc 1 348 7 discriminator 3 view .LVU436
 1256 0102 0A78     		ldrb	r2, [r1]	@ zero_extendqisi2
 1257 0104 30F82230 		ldrh	r3, [r0, r2, lsl #2]
 1258 0108 9BB2     		uxth	r3, r3
 1259 010a 23F48043 		bic	r3, r3, #16384
 1260 010e 23F07003 		bic	r3, r3, #112
 1261              	.LVL150:
 348:Drivers/STM32L5xx_HAL_Driver/Src/stm32l5xx_ll_usb.c ****       PCD_SET_EP_TX_STATUS(USBx, ep->num, USB_EP_TX_DIS);
 1262              		.loc 1 348 7 discriminator 3 view .LVU437
 348:Drivers/STM32L5xx_HAL_Driver/Src/stm32l5xx_ll_usb.c ****       PCD_SET_EP_TX_STATUS(USBx, ep->num, USB_EP_TX_DIS);
 1263              		.loc 1 348 7 discriminator 3 view .LVU438
 348:Drivers/STM32L5xx_HAL_Driver/Src/stm32l5xx_ll_usb.c ****       PCD_SET_EP_TX_STATUS(USBx, ep->num, USB_EP_TX_DIS);
 1264              		.loc 1 348 7 discriminator 3 view .LVU439
 1265 0112 48F2800C 		movw	ip, #32896
 1266 0116 43EA0C03 		orr	r3, r3, ip
 1267              	.LVL151:
 348:Drivers/STM32L5xx_HAL_Driver/Src/stm32l5xx_ll_usb.c ****       PCD_SET_EP_TX_STATUS(USBx, ep->num, USB_EP_TX_DIS);
ARM GAS  /tmp/ccQg3iPh.s 			page 32


 1268              		.loc 1 348 7 is_stmt 0 discriminator 3 view .LVU440
 1269 011a 20F82230 		strh	r3, [r0, r2, lsl #2]	@ movhi
 1270              	.LBE45:
 348:Drivers/STM32L5xx_HAL_Driver/Src/stm32l5xx_ll_usb.c ****       PCD_SET_EP_TX_STATUS(USBx, ep->num, USB_EP_TX_DIS);
 1271              		.loc 1 348 7 is_stmt 1 discriminator 3 view .LVU441
 349:Drivers/STM32L5xx_HAL_Driver/Src/stm32l5xx_ll_usb.c ****     }
 1272              		.loc 1 349 7 discriminator 3 view .LVU442
 1273              	.LBB46:
 349:Drivers/STM32L5xx_HAL_Driver/Src/stm32l5xx_ll_usb.c ****     }
 1274              		.loc 1 349 7 discriminator 3 view .LVU443
 349:Drivers/STM32L5xx_HAL_Driver/Src/stm32l5xx_ll_usb.c ****     }
 1275              		.loc 1 349 7 discriminator 3 view .LVU444
 1276 011e 0A78     		ldrb	r2, [r1]	@ zero_extendqisi2
 1277 0120 30F82230 		ldrh	r3, [r0, r2, lsl #2]
 1278 0124 9BB2     		uxth	r3, r3
 1279 0126 23F4E043 		bic	r3, r3, #28672
 1280 012a 23F04003 		bic	r3, r3, #64
 1281              	.LVL152:
 349:Drivers/STM32L5xx_HAL_Driver/Src/stm32l5xx_ll_usb.c ****     }
 1282              		.loc 1 349 7 discriminator 3 view .LVU445
 349:Drivers/STM32L5xx_HAL_Driver/Src/stm32l5xx_ll_usb.c ****     }
 1283              		.loc 1 349 7 discriminator 3 view .LVU446
 349:Drivers/STM32L5xx_HAL_Driver/Src/stm32l5xx_ll_usb.c ****     }
 1284              		.loc 1 349 7 discriminator 3 view .LVU447
 1285 012e 43EA0C03 		orr	r3, r3, ip
 1286              	.LVL153:
 349:Drivers/STM32L5xx_HAL_Driver/Src/stm32l5xx_ll_usb.c ****     }
 1287              		.loc 1 349 7 is_stmt 0 discriminator 3 view .LVU448
 1288 0132 20F82230 		strh	r3, [r0, r2, lsl #2]	@ movhi
 1289              	.LBE46:
 349:Drivers/STM32L5xx_HAL_Driver/Src/stm32l5xx_ll_usb.c ****     }
 1290              		.loc 1 349 7 is_stmt 1 discriminator 3 view .LVU449
 1291 0136 89E7     		b	.L43
 1292              	.LVL154:
 1293              	.L45:
 354:Drivers/STM32L5xx_HAL_Driver/Src/stm32l5xx_ll_usb.c ****       PCD_CLEAR_TX_DTOG(USBx, ep->num);
 1294              		.loc 1 354 7 view .LVU450
 1295              	.LBB47:
 354:Drivers/STM32L5xx_HAL_Driver/Src/stm32l5xx_ll_usb.c ****       PCD_CLEAR_TX_DTOG(USBx, ep->num);
 1296              		.loc 1 354 7 view .LVU451
 354:Drivers/STM32L5xx_HAL_Driver/Src/stm32l5xx_ll_usb.c ****       PCD_CLEAR_TX_DTOG(USBx, ep->num);
 1297              		.loc 1 354 7 view .LVU452
 1298 0138 0A78     		ldrb	r2, [r1]	@ zero_extendqisi2
 1299 013a 30F82230 		ldrh	r3, [r0, r2, lsl #2]
 1300              	.LVL155:
 354:Drivers/STM32L5xx_HAL_Driver/Src/stm32l5xx_ll_usb.c ****       PCD_CLEAR_TX_DTOG(USBx, ep->num);
 1301              		.loc 1 354 7 view .LVU453
 1302 013e 13F4804F 		tst	r3, #16384
 1303 0142 0CD0     		beq	.L48
 354:Drivers/STM32L5xx_HAL_Driver/Src/stm32l5xx_ll_usb.c ****       PCD_CLEAR_TX_DTOG(USBx, ep->num);
 1304              		.loc 1 354 7 discriminator 1 view .LVU454
 1305              	.LBB48:
 354:Drivers/STM32L5xx_HAL_Driver/Src/stm32l5xx_ll_usb.c ****       PCD_CLEAR_TX_DTOG(USBx, ep->num);
 1306              		.loc 1 354 7 discriminator 1 view .LVU455
 354:Drivers/STM32L5xx_HAL_Driver/Src/stm32l5xx_ll_usb.c ****       PCD_CLEAR_TX_DTOG(USBx, ep->num);
 1307              		.loc 1 354 7 discriminator 1 view .LVU456
 1308 0144 30F82230 		ldrh	r3, [r0, r2, lsl #2]
ARM GAS  /tmp/ccQg3iPh.s 			page 33


 1309              	.LVL156:
 354:Drivers/STM32L5xx_HAL_Driver/Src/stm32l5xx_ll_usb.c ****       PCD_CLEAR_TX_DTOG(USBx, ep->num);
 1310              		.loc 1 354 7 is_stmt 0 discriminator 1 view .LVU457
 1311 0148 9BB2     		uxth	r3, r3
 1312 014a 23F4E043 		bic	r3, r3, #28672
 1313 014e 23F07003 		bic	r3, r3, #112
 1314              	.LVL157:
 354:Drivers/STM32L5xx_HAL_Driver/Src/stm32l5xx_ll_usb.c ****       PCD_CLEAR_TX_DTOG(USBx, ep->num);
 1315              		.loc 1 354 7 is_stmt 1 discriminator 1 view .LVU458
 1316 0152 43F44043 		orr	r3, r3, #49152
 1317              	.LVL158:
 354:Drivers/STM32L5xx_HAL_Driver/Src/stm32l5xx_ll_usb.c ****       PCD_CLEAR_TX_DTOG(USBx, ep->num);
 1318              		.loc 1 354 7 is_stmt 0 discriminator 1 view .LVU459
 1319 0156 43F08003 		orr	r3, r3, #128
 1320 015a 20F82230 		strh	r3, [r0, r2, lsl #2]	@ movhi
 1321              	.LVL159:
 1322              	.L48:
 354:Drivers/STM32L5xx_HAL_Driver/Src/stm32l5xx_ll_usb.c ****       PCD_CLEAR_TX_DTOG(USBx, ep->num);
 1323              		.loc 1 354 7 discriminator 1 view .LVU460
 1324              	.LBE48:
 354:Drivers/STM32L5xx_HAL_Driver/Src/stm32l5xx_ll_usb.c ****       PCD_CLEAR_TX_DTOG(USBx, ep->num);
 1325              		.loc 1 354 7 is_stmt 1 discriminator 3 view .LVU461
 1326              	.LBE47:
 354:Drivers/STM32L5xx_HAL_Driver/Src/stm32l5xx_ll_usb.c ****       PCD_CLEAR_TX_DTOG(USBx, ep->num);
 1327              		.loc 1 354 7 discriminator 3 view .LVU462
 355:Drivers/STM32L5xx_HAL_Driver/Src/stm32l5xx_ll_usb.c ****       PCD_RX_DTOG(USBx, ep->num);
 1328              		.loc 1 355 7 discriminator 3 view .LVU463
 1329              	.LBB49:
 355:Drivers/STM32L5xx_HAL_Driver/Src/stm32l5xx_ll_usb.c ****       PCD_RX_DTOG(USBx, ep->num);
 1330              		.loc 1 355 7 discriminator 3 view .LVU464
 355:Drivers/STM32L5xx_HAL_Driver/Src/stm32l5xx_ll_usb.c ****       PCD_RX_DTOG(USBx, ep->num);
 1331              		.loc 1 355 7 discriminator 3 view .LVU465
 1332 015e 0A78     		ldrb	r2, [r1]	@ zero_extendqisi2
 1333 0160 30F82230 		ldrh	r3, [r0, r2, lsl #2]
 1334              	.LVL160:
 355:Drivers/STM32L5xx_HAL_Driver/Src/stm32l5xx_ll_usb.c ****       PCD_RX_DTOG(USBx, ep->num);
 1335              		.loc 1 355 7 discriminator 3 view .LVU466
 1336 0164 13F0400F 		tst	r3, #64
 1337 0168 0CD0     		beq	.L49
 355:Drivers/STM32L5xx_HAL_Driver/Src/stm32l5xx_ll_usb.c ****       PCD_RX_DTOG(USBx, ep->num);
 1338              		.loc 1 355 7 discriminator 1 view .LVU467
 1339              	.LBB50:
 355:Drivers/STM32L5xx_HAL_Driver/Src/stm32l5xx_ll_usb.c ****       PCD_RX_DTOG(USBx, ep->num);
 1340              		.loc 1 355 7 discriminator 1 view .LVU468
 355:Drivers/STM32L5xx_HAL_Driver/Src/stm32l5xx_ll_usb.c ****       PCD_RX_DTOG(USBx, ep->num);
 1341              		.loc 1 355 7 discriminator 1 view .LVU469
 1342 016a 30F82230 		ldrh	r3, [r0, r2, lsl #2]
 1343              	.LVL161:
 355:Drivers/STM32L5xx_HAL_Driver/Src/stm32l5xx_ll_usb.c ****       PCD_RX_DTOG(USBx, ep->num);
 1344              		.loc 1 355 7 is_stmt 0 discriminator 1 view .LVU470
 1345 016e 9BB2     		uxth	r3, r3
 1346 0170 23F4E043 		bic	r3, r3, #28672
 1347 0174 23F07003 		bic	r3, r3, #112
 1348              	.LVL162:
 355:Drivers/STM32L5xx_HAL_Driver/Src/stm32l5xx_ll_usb.c ****       PCD_RX_DTOG(USBx, ep->num);
 1349              		.loc 1 355 7 is_stmt 1 discriminator 1 view .LVU471
 1350 0178 43F40043 		orr	r3, r3, #32768
ARM GAS  /tmp/ccQg3iPh.s 			page 34


 1351              	.LVL163:
 355:Drivers/STM32L5xx_HAL_Driver/Src/stm32l5xx_ll_usb.c ****       PCD_RX_DTOG(USBx, ep->num);
 1352              		.loc 1 355 7 is_stmt 0 discriminator 1 view .LVU472
 1353 017c 43F0C003 		orr	r3, r3, #192
 1354 0180 20F82230 		strh	r3, [r0, r2, lsl #2]	@ movhi
 1355              	.LVL164:
 1356              	.L49:
 355:Drivers/STM32L5xx_HAL_Driver/Src/stm32l5xx_ll_usb.c ****       PCD_RX_DTOG(USBx, ep->num);
 1357              		.loc 1 355 7 discriminator 1 view .LVU473
 1358              	.LBE50:
 355:Drivers/STM32L5xx_HAL_Driver/Src/stm32l5xx_ll_usb.c ****       PCD_RX_DTOG(USBx, ep->num);
 1359              		.loc 1 355 7 is_stmt 1 discriminator 3 view .LVU474
 1360              	.LBE49:
 355:Drivers/STM32L5xx_HAL_Driver/Src/stm32l5xx_ll_usb.c ****       PCD_RX_DTOG(USBx, ep->num);
 1361              		.loc 1 355 7 discriminator 3 view .LVU475
 356:Drivers/STM32L5xx_HAL_Driver/Src/stm32l5xx_ll_usb.c **** 
 1362              		.loc 1 356 7 discriminator 3 view .LVU476
 1363              	.LBB51:
 356:Drivers/STM32L5xx_HAL_Driver/Src/stm32l5xx_ll_usb.c **** 
 1364              		.loc 1 356 7 discriminator 3 view .LVU477
 356:Drivers/STM32L5xx_HAL_Driver/Src/stm32l5xx_ll_usb.c **** 
 1365              		.loc 1 356 7 discriminator 3 view .LVU478
 1366 0184 0A78     		ldrb	r2, [r1]	@ zero_extendqisi2
 1367 0186 30F82230 		ldrh	r3, [r0, r2, lsl #2]
 1368 018a 9BB2     		uxth	r3, r3
 1369 018c 23F4E043 		bic	r3, r3, #28672
 1370 0190 23F07003 		bic	r3, r3, #112
 1371              	.LVL165:
 356:Drivers/STM32L5xx_HAL_Driver/Src/stm32l5xx_ll_usb.c **** 
 1372              		.loc 1 356 7 discriminator 3 view .LVU479
 1373 0194 43F44043 		orr	r3, r3, #49152
 1374              	.LVL166:
 356:Drivers/STM32L5xx_HAL_Driver/Src/stm32l5xx_ll_usb.c **** 
 1375              		.loc 1 356 7 is_stmt 0 discriminator 3 view .LVU480
 1376 0198 43F08003 		orr	r3, r3, #128
 1377 019c 20F82230 		strh	r3, [r0, r2, lsl #2]	@ movhi
 1378              	.LBE51:
 356:Drivers/STM32L5xx_HAL_Driver/Src/stm32l5xx_ll_usb.c **** 
 1379              		.loc 1 356 7 is_stmt 1 discriminator 3 view .LVU481
 359:Drivers/STM32L5xx_HAL_Driver/Src/stm32l5xx_ll_usb.c ****       PCD_SET_EP_RX_STATUS(USBx, ep->num, USB_EP_RX_DIS);
 1380              		.loc 1 359 7 discriminator 3 view .LVU482
 1381              	.LBB52:
 359:Drivers/STM32L5xx_HAL_Driver/Src/stm32l5xx_ll_usb.c ****       PCD_SET_EP_RX_STATUS(USBx, ep->num, USB_EP_RX_DIS);
 1382              		.loc 1 359 7 discriminator 3 view .LVU483
 359:Drivers/STM32L5xx_HAL_Driver/Src/stm32l5xx_ll_usb.c ****       PCD_SET_EP_RX_STATUS(USBx, ep->num, USB_EP_RX_DIS);
 1383              		.loc 1 359 7 discriminator 3 view .LVU484
 1384 01a0 0A78     		ldrb	r2, [r1]	@ zero_extendqisi2
 1385 01a2 30F82230 		ldrh	r3, [r0, r2, lsl #2]
 1386 01a6 9BB2     		uxth	r3, r3
 1387 01a8 23F4E043 		bic	r3, r3, #28672
 1388 01ac 23F04003 		bic	r3, r3, #64
 1389              	.LVL167:
 359:Drivers/STM32L5xx_HAL_Driver/Src/stm32l5xx_ll_usb.c ****       PCD_SET_EP_RX_STATUS(USBx, ep->num, USB_EP_RX_DIS);
 1390              		.loc 1 359 7 discriminator 3 view .LVU485
 359:Drivers/STM32L5xx_HAL_Driver/Src/stm32l5xx_ll_usb.c ****       PCD_SET_EP_RX_STATUS(USBx, ep->num, USB_EP_RX_DIS);
 1391              		.loc 1 359 7 discriminator 3 view .LVU486
 359:Drivers/STM32L5xx_HAL_Driver/Src/stm32l5xx_ll_usb.c ****       PCD_SET_EP_RX_STATUS(USBx, ep->num, USB_EP_RX_DIS);
ARM GAS  /tmp/ccQg3iPh.s 			page 35


 1392              		.loc 1 359 7 discriminator 3 view .LVU487
 1393 01b0 48F2800C 		movw	ip, #32896
 1394 01b4 43EA0C03 		orr	r3, r3, ip
 1395              	.LVL168:
 359:Drivers/STM32L5xx_HAL_Driver/Src/stm32l5xx_ll_usb.c ****       PCD_SET_EP_RX_STATUS(USBx, ep->num, USB_EP_RX_DIS);
 1396              		.loc 1 359 7 is_stmt 0 discriminator 3 view .LVU488
 1397 01b8 20F82230 		strh	r3, [r0, r2, lsl #2]	@ movhi
 1398              	.LBE52:
 359:Drivers/STM32L5xx_HAL_Driver/Src/stm32l5xx_ll_usb.c ****       PCD_SET_EP_RX_STATUS(USBx, ep->num, USB_EP_RX_DIS);
 1399              		.loc 1 359 7 is_stmt 1 discriminator 3 view .LVU489
 360:Drivers/STM32L5xx_HAL_Driver/Src/stm32l5xx_ll_usb.c ****     }
 1400              		.loc 1 360 7 discriminator 3 view .LVU490
 1401              	.LBB53:
 360:Drivers/STM32L5xx_HAL_Driver/Src/stm32l5xx_ll_usb.c ****     }
 1402              		.loc 1 360 7 discriminator 3 view .LVU491
 360:Drivers/STM32L5xx_HAL_Driver/Src/stm32l5xx_ll_usb.c ****     }
 1403              		.loc 1 360 7 discriminator 3 view .LVU492
 1404 01bc 0A78     		ldrb	r2, [r1]	@ zero_extendqisi2
 1405 01be 30F82230 		ldrh	r3, [r0, r2, lsl #2]
 1406 01c2 9BB2     		uxth	r3, r3
 1407 01c4 23F48043 		bic	r3, r3, #16384
 1408 01c8 23F07003 		bic	r3, r3, #112
 1409              	.LVL169:
 360:Drivers/STM32L5xx_HAL_Driver/Src/stm32l5xx_ll_usb.c ****     }
 1410              		.loc 1 360 7 discriminator 3 view .LVU493
 360:Drivers/STM32L5xx_HAL_Driver/Src/stm32l5xx_ll_usb.c ****     }
 1411              		.loc 1 360 7 discriminator 3 view .LVU494
 360:Drivers/STM32L5xx_HAL_Driver/Src/stm32l5xx_ll_usb.c ****     }
 1412              		.loc 1 360 7 discriminator 3 view .LVU495
 1413 01cc 43EA0C03 		orr	r3, r3, ip
 1414              	.LVL170:
 360:Drivers/STM32L5xx_HAL_Driver/Src/stm32l5xx_ll_usb.c ****     }
 1415              		.loc 1 360 7 is_stmt 0 discriminator 3 view .LVU496
 1416 01d0 20F82230 		strh	r3, [r0, r2, lsl #2]	@ movhi
 1417 01d4 3AE7     		b	.L43
 1418              	.LBE53:
 1419              		.cfi_endproc
 1420              	.LFE158:
 1422              		.section	.text.USB_EPSetStall,"ax",%progbits
 1423              		.align	1
 1424              		.global	USB_EPSetStall
 1425              		.syntax unified
 1426              		.thumb
 1427              		.thumb_func
 1429              	USB_EPSetStall:
 1430              	.LVL171:
 1431              	.LFB160:
 367:Drivers/STM32L5xx_HAL_Driver/Src/stm32l5xx_ll_usb.c **** 
 368:Drivers/STM32L5xx_HAL_Driver/Src/stm32l5xx_ll_usb.c **** /**
 369:Drivers/STM32L5xx_HAL_Driver/Src/stm32l5xx_ll_usb.c ****   * @brief  USB_EPStartXfer setup and starts a transfer over an EP
 370:Drivers/STM32L5xx_HAL_Driver/Src/stm32l5xx_ll_usb.c ****   * @param  USBx Selected device
 371:Drivers/STM32L5xx_HAL_Driver/Src/stm32l5xx_ll_usb.c ****   * @param  ep pointer to endpoint structure
 372:Drivers/STM32L5xx_HAL_Driver/Src/stm32l5xx_ll_usb.c ****   * @retval HAL status
 373:Drivers/STM32L5xx_HAL_Driver/Src/stm32l5xx_ll_usb.c ****   */
 374:Drivers/STM32L5xx_HAL_Driver/Src/stm32l5xx_ll_usb.c **** HAL_StatusTypeDef USB_EPStartXfer(USB_TypeDef *USBx, USB_EPTypeDef *ep)
 375:Drivers/STM32L5xx_HAL_Driver/Src/stm32l5xx_ll_usb.c **** {
 376:Drivers/STM32L5xx_HAL_Driver/Src/stm32l5xx_ll_usb.c ****   uint32_t len;
ARM GAS  /tmp/ccQg3iPh.s 			page 36


 377:Drivers/STM32L5xx_HAL_Driver/Src/stm32l5xx_ll_usb.c **** #if (USE_USB_DOUBLE_BUFFER == 1U)
 378:Drivers/STM32L5xx_HAL_Driver/Src/stm32l5xx_ll_usb.c ****   uint16_t pmabuffer;
 379:Drivers/STM32L5xx_HAL_Driver/Src/stm32l5xx_ll_usb.c ****   uint16_t wEPVal;
 380:Drivers/STM32L5xx_HAL_Driver/Src/stm32l5xx_ll_usb.c **** #endif /* (USE_USB_DOUBLE_BUFFER == 1U) */
 381:Drivers/STM32L5xx_HAL_Driver/Src/stm32l5xx_ll_usb.c **** 
 382:Drivers/STM32L5xx_HAL_Driver/Src/stm32l5xx_ll_usb.c ****   /* IN endpoint */
 383:Drivers/STM32L5xx_HAL_Driver/Src/stm32l5xx_ll_usb.c ****   if (ep->is_in == 1U)
 384:Drivers/STM32L5xx_HAL_Driver/Src/stm32l5xx_ll_usb.c ****   {
 385:Drivers/STM32L5xx_HAL_Driver/Src/stm32l5xx_ll_usb.c ****     /*Multi packet transfer*/
 386:Drivers/STM32L5xx_HAL_Driver/Src/stm32l5xx_ll_usb.c ****     if (ep->xfer_len > ep->maxpacket)
 387:Drivers/STM32L5xx_HAL_Driver/Src/stm32l5xx_ll_usb.c ****     {
 388:Drivers/STM32L5xx_HAL_Driver/Src/stm32l5xx_ll_usb.c ****       len = ep->maxpacket;
 389:Drivers/STM32L5xx_HAL_Driver/Src/stm32l5xx_ll_usb.c ****     }
 390:Drivers/STM32L5xx_HAL_Driver/Src/stm32l5xx_ll_usb.c ****     else
 391:Drivers/STM32L5xx_HAL_Driver/Src/stm32l5xx_ll_usb.c ****     {
 392:Drivers/STM32L5xx_HAL_Driver/Src/stm32l5xx_ll_usb.c ****       len = ep->xfer_len;
 393:Drivers/STM32L5xx_HAL_Driver/Src/stm32l5xx_ll_usb.c ****     }
 394:Drivers/STM32L5xx_HAL_Driver/Src/stm32l5xx_ll_usb.c **** 
 395:Drivers/STM32L5xx_HAL_Driver/Src/stm32l5xx_ll_usb.c ****     /* configure and validate Tx endpoint */
 396:Drivers/STM32L5xx_HAL_Driver/Src/stm32l5xx_ll_usb.c ****     if (ep->doublebuffer == 0U)
 397:Drivers/STM32L5xx_HAL_Driver/Src/stm32l5xx_ll_usb.c ****     {
 398:Drivers/STM32L5xx_HAL_Driver/Src/stm32l5xx_ll_usb.c ****       USB_WritePMA(USBx, ep->xfer_buff, ep->pmaadress, (uint16_t)len);
 399:Drivers/STM32L5xx_HAL_Driver/Src/stm32l5xx_ll_usb.c ****       PCD_SET_EP_TX_CNT(USBx, ep->num, len);
 400:Drivers/STM32L5xx_HAL_Driver/Src/stm32l5xx_ll_usb.c ****     }
 401:Drivers/STM32L5xx_HAL_Driver/Src/stm32l5xx_ll_usb.c **** #if (USE_USB_DOUBLE_BUFFER == 1U)
 402:Drivers/STM32L5xx_HAL_Driver/Src/stm32l5xx_ll_usb.c ****     else
 403:Drivers/STM32L5xx_HAL_Driver/Src/stm32l5xx_ll_usb.c ****     {
 404:Drivers/STM32L5xx_HAL_Driver/Src/stm32l5xx_ll_usb.c ****       /* double buffer bulk management */
 405:Drivers/STM32L5xx_HAL_Driver/Src/stm32l5xx_ll_usb.c ****       if (ep->type == EP_TYPE_BULK)
 406:Drivers/STM32L5xx_HAL_Driver/Src/stm32l5xx_ll_usb.c ****       {
 407:Drivers/STM32L5xx_HAL_Driver/Src/stm32l5xx_ll_usb.c ****         if (ep->xfer_len_db > ep->maxpacket)
 408:Drivers/STM32L5xx_HAL_Driver/Src/stm32l5xx_ll_usb.c ****         {
 409:Drivers/STM32L5xx_HAL_Driver/Src/stm32l5xx_ll_usb.c ****           /* enable double buffer */
 410:Drivers/STM32L5xx_HAL_Driver/Src/stm32l5xx_ll_usb.c ****           PCD_SET_BULK_EP_DBUF(USBx, ep->num);
 411:Drivers/STM32L5xx_HAL_Driver/Src/stm32l5xx_ll_usb.c **** 
 412:Drivers/STM32L5xx_HAL_Driver/Src/stm32l5xx_ll_usb.c ****           /* each Time to write in PMA xfer_len_db will */
 413:Drivers/STM32L5xx_HAL_Driver/Src/stm32l5xx_ll_usb.c ****           ep->xfer_len_db -= len;
 414:Drivers/STM32L5xx_HAL_Driver/Src/stm32l5xx_ll_usb.c **** 
 415:Drivers/STM32L5xx_HAL_Driver/Src/stm32l5xx_ll_usb.c ****           /* Fill the two first buffer in the Buffer0 & Buffer1 */
 416:Drivers/STM32L5xx_HAL_Driver/Src/stm32l5xx_ll_usb.c ****           if ((PCD_GET_ENDPOINT(USBx, ep->num) & USB_EP_DTOG_TX) != 0U)
 417:Drivers/STM32L5xx_HAL_Driver/Src/stm32l5xx_ll_usb.c ****           {
 418:Drivers/STM32L5xx_HAL_Driver/Src/stm32l5xx_ll_usb.c ****             /* Set the Double buffer counter for pmabuffer1 */
 419:Drivers/STM32L5xx_HAL_Driver/Src/stm32l5xx_ll_usb.c ****             PCD_SET_EP_DBUF1_CNT(USBx, ep->num, ep->is_in, len);
 420:Drivers/STM32L5xx_HAL_Driver/Src/stm32l5xx_ll_usb.c ****             pmabuffer = ep->pmaaddr1;
 421:Drivers/STM32L5xx_HAL_Driver/Src/stm32l5xx_ll_usb.c **** 
 422:Drivers/STM32L5xx_HAL_Driver/Src/stm32l5xx_ll_usb.c ****             /* Write the user buffer to USB PMA */
 423:Drivers/STM32L5xx_HAL_Driver/Src/stm32l5xx_ll_usb.c ****             USB_WritePMA(USBx, ep->xfer_buff, pmabuffer, (uint16_t)len);
 424:Drivers/STM32L5xx_HAL_Driver/Src/stm32l5xx_ll_usb.c ****             ep->xfer_buff += len;
 425:Drivers/STM32L5xx_HAL_Driver/Src/stm32l5xx_ll_usb.c **** 
 426:Drivers/STM32L5xx_HAL_Driver/Src/stm32l5xx_ll_usb.c ****             if (ep->xfer_len_db > ep->maxpacket)
 427:Drivers/STM32L5xx_HAL_Driver/Src/stm32l5xx_ll_usb.c ****             {
 428:Drivers/STM32L5xx_HAL_Driver/Src/stm32l5xx_ll_usb.c ****               ep->xfer_len_db -= len;
 429:Drivers/STM32L5xx_HAL_Driver/Src/stm32l5xx_ll_usb.c ****             }
 430:Drivers/STM32L5xx_HAL_Driver/Src/stm32l5xx_ll_usb.c ****             else
 431:Drivers/STM32L5xx_HAL_Driver/Src/stm32l5xx_ll_usb.c ****             {
 432:Drivers/STM32L5xx_HAL_Driver/Src/stm32l5xx_ll_usb.c ****               len = ep->xfer_len_db;
 433:Drivers/STM32L5xx_HAL_Driver/Src/stm32l5xx_ll_usb.c ****               ep->xfer_len_db = 0U;
ARM GAS  /tmp/ccQg3iPh.s 			page 37


 434:Drivers/STM32L5xx_HAL_Driver/Src/stm32l5xx_ll_usb.c ****             }
 435:Drivers/STM32L5xx_HAL_Driver/Src/stm32l5xx_ll_usb.c **** 
 436:Drivers/STM32L5xx_HAL_Driver/Src/stm32l5xx_ll_usb.c ****             /* Set the Double buffer counter for pmabuffer0 */
 437:Drivers/STM32L5xx_HAL_Driver/Src/stm32l5xx_ll_usb.c ****             PCD_SET_EP_DBUF0_CNT(USBx, ep->num, ep->is_in, len);
 438:Drivers/STM32L5xx_HAL_Driver/Src/stm32l5xx_ll_usb.c ****             pmabuffer = ep->pmaaddr0;
 439:Drivers/STM32L5xx_HAL_Driver/Src/stm32l5xx_ll_usb.c **** 
 440:Drivers/STM32L5xx_HAL_Driver/Src/stm32l5xx_ll_usb.c ****             /* Write the user buffer to USB PMA */
 441:Drivers/STM32L5xx_HAL_Driver/Src/stm32l5xx_ll_usb.c ****             USB_WritePMA(USBx, ep->xfer_buff, pmabuffer, (uint16_t)len);
 442:Drivers/STM32L5xx_HAL_Driver/Src/stm32l5xx_ll_usb.c ****           }
 443:Drivers/STM32L5xx_HAL_Driver/Src/stm32l5xx_ll_usb.c ****           else
 444:Drivers/STM32L5xx_HAL_Driver/Src/stm32l5xx_ll_usb.c ****           {
 445:Drivers/STM32L5xx_HAL_Driver/Src/stm32l5xx_ll_usb.c ****             /* Set the Double buffer counter for pmabuffer0 */
 446:Drivers/STM32L5xx_HAL_Driver/Src/stm32l5xx_ll_usb.c ****             PCD_SET_EP_DBUF0_CNT(USBx, ep->num, ep->is_in, len);
 447:Drivers/STM32L5xx_HAL_Driver/Src/stm32l5xx_ll_usb.c ****             pmabuffer = ep->pmaaddr0;
 448:Drivers/STM32L5xx_HAL_Driver/Src/stm32l5xx_ll_usb.c **** 
 449:Drivers/STM32L5xx_HAL_Driver/Src/stm32l5xx_ll_usb.c ****             /* Write the user buffer to USB PMA */
 450:Drivers/STM32L5xx_HAL_Driver/Src/stm32l5xx_ll_usb.c ****             USB_WritePMA(USBx, ep->xfer_buff, pmabuffer, (uint16_t)len);
 451:Drivers/STM32L5xx_HAL_Driver/Src/stm32l5xx_ll_usb.c ****             ep->xfer_buff += len;
 452:Drivers/STM32L5xx_HAL_Driver/Src/stm32l5xx_ll_usb.c **** 
 453:Drivers/STM32L5xx_HAL_Driver/Src/stm32l5xx_ll_usb.c ****             if (ep->xfer_len_db > ep->maxpacket)
 454:Drivers/STM32L5xx_HAL_Driver/Src/stm32l5xx_ll_usb.c ****             {
 455:Drivers/STM32L5xx_HAL_Driver/Src/stm32l5xx_ll_usb.c ****               ep->xfer_len_db -= len;
 456:Drivers/STM32L5xx_HAL_Driver/Src/stm32l5xx_ll_usb.c ****             }
 457:Drivers/STM32L5xx_HAL_Driver/Src/stm32l5xx_ll_usb.c ****             else
 458:Drivers/STM32L5xx_HAL_Driver/Src/stm32l5xx_ll_usb.c ****             {
 459:Drivers/STM32L5xx_HAL_Driver/Src/stm32l5xx_ll_usb.c ****               len = ep->xfer_len_db;
 460:Drivers/STM32L5xx_HAL_Driver/Src/stm32l5xx_ll_usb.c ****               ep->xfer_len_db = 0U;
 461:Drivers/STM32L5xx_HAL_Driver/Src/stm32l5xx_ll_usb.c ****             }
 462:Drivers/STM32L5xx_HAL_Driver/Src/stm32l5xx_ll_usb.c **** 
 463:Drivers/STM32L5xx_HAL_Driver/Src/stm32l5xx_ll_usb.c ****             /* Set the Double buffer counter for pmabuffer1 */
 464:Drivers/STM32L5xx_HAL_Driver/Src/stm32l5xx_ll_usb.c ****             PCD_SET_EP_DBUF1_CNT(USBx, ep->num, ep->is_in, len);
 465:Drivers/STM32L5xx_HAL_Driver/Src/stm32l5xx_ll_usb.c ****             pmabuffer = ep->pmaaddr1;
 466:Drivers/STM32L5xx_HAL_Driver/Src/stm32l5xx_ll_usb.c **** 
 467:Drivers/STM32L5xx_HAL_Driver/Src/stm32l5xx_ll_usb.c ****             /* Write the user buffer to USB PMA */
 468:Drivers/STM32L5xx_HAL_Driver/Src/stm32l5xx_ll_usb.c ****             USB_WritePMA(USBx, ep->xfer_buff, pmabuffer, (uint16_t)len);
 469:Drivers/STM32L5xx_HAL_Driver/Src/stm32l5xx_ll_usb.c ****           }
 470:Drivers/STM32L5xx_HAL_Driver/Src/stm32l5xx_ll_usb.c ****         }
 471:Drivers/STM32L5xx_HAL_Driver/Src/stm32l5xx_ll_usb.c ****         /* auto Switch to single buffer mode when transfer <Mps no need to manage in double buffer 
 472:Drivers/STM32L5xx_HAL_Driver/Src/stm32l5xx_ll_usb.c ****         else
 473:Drivers/STM32L5xx_HAL_Driver/Src/stm32l5xx_ll_usb.c ****         {
 474:Drivers/STM32L5xx_HAL_Driver/Src/stm32l5xx_ll_usb.c ****           len = ep->xfer_len_db;
 475:Drivers/STM32L5xx_HAL_Driver/Src/stm32l5xx_ll_usb.c **** 
 476:Drivers/STM32L5xx_HAL_Driver/Src/stm32l5xx_ll_usb.c ****           /* disable double buffer mode for Bulk endpoint */
 477:Drivers/STM32L5xx_HAL_Driver/Src/stm32l5xx_ll_usb.c ****           PCD_CLEAR_BULK_EP_DBUF(USBx, ep->num);
 478:Drivers/STM32L5xx_HAL_Driver/Src/stm32l5xx_ll_usb.c **** 
 479:Drivers/STM32L5xx_HAL_Driver/Src/stm32l5xx_ll_usb.c ****           /* Set Tx count with nbre of byte to be transmitted */
 480:Drivers/STM32L5xx_HAL_Driver/Src/stm32l5xx_ll_usb.c ****           PCD_SET_EP_TX_CNT(USBx, ep->num, len);
 481:Drivers/STM32L5xx_HAL_Driver/Src/stm32l5xx_ll_usb.c ****           pmabuffer = ep->pmaaddr0;
 482:Drivers/STM32L5xx_HAL_Driver/Src/stm32l5xx_ll_usb.c **** 
 483:Drivers/STM32L5xx_HAL_Driver/Src/stm32l5xx_ll_usb.c ****           /* Write the user buffer to USB PMA */
 484:Drivers/STM32L5xx_HAL_Driver/Src/stm32l5xx_ll_usb.c ****           USB_WritePMA(USBx, ep->xfer_buff, pmabuffer, (uint16_t)len);
 485:Drivers/STM32L5xx_HAL_Driver/Src/stm32l5xx_ll_usb.c ****         }
 486:Drivers/STM32L5xx_HAL_Driver/Src/stm32l5xx_ll_usb.c ****       }
 487:Drivers/STM32L5xx_HAL_Driver/Src/stm32l5xx_ll_usb.c ****       else /* manage isochronous double buffer IN mode */
 488:Drivers/STM32L5xx_HAL_Driver/Src/stm32l5xx_ll_usb.c ****       {
 489:Drivers/STM32L5xx_HAL_Driver/Src/stm32l5xx_ll_usb.c ****         /* each Time to write in PMA xfer_len_db will */
 490:Drivers/STM32L5xx_HAL_Driver/Src/stm32l5xx_ll_usb.c ****         ep->xfer_len_db -= len;
ARM GAS  /tmp/ccQg3iPh.s 			page 38


 491:Drivers/STM32L5xx_HAL_Driver/Src/stm32l5xx_ll_usb.c **** 
 492:Drivers/STM32L5xx_HAL_Driver/Src/stm32l5xx_ll_usb.c ****         /* Fill the data buffer */
 493:Drivers/STM32L5xx_HAL_Driver/Src/stm32l5xx_ll_usb.c ****         if ((PCD_GET_ENDPOINT(USBx, ep->num) & USB_EP_DTOG_TX) != 0U)
 494:Drivers/STM32L5xx_HAL_Driver/Src/stm32l5xx_ll_usb.c ****         {
 495:Drivers/STM32L5xx_HAL_Driver/Src/stm32l5xx_ll_usb.c ****           /* Set the Double buffer counter for pmabuffer1 */
 496:Drivers/STM32L5xx_HAL_Driver/Src/stm32l5xx_ll_usb.c ****           PCD_SET_EP_DBUF1_CNT(USBx, ep->num, ep->is_in, len);
 497:Drivers/STM32L5xx_HAL_Driver/Src/stm32l5xx_ll_usb.c ****           pmabuffer = ep->pmaaddr1;
 498:Drivers/STM32L5xx_HAL_Driver/Src/stm32l5xx_ll_usb.c **** 
 499:Drivers/STM32L5xx_HAL_Driver/Src/stm32l5xx_ll_usb.c ****           /* Write the user buffer to USB PMA */
 500:Drivers/STM32L5xx_HAL_Driver/Src/stm32l5xx_ll_usb.c ****           USB_WritePMA(USBx, ep->xfer_buff, pmabuffer, (uint16_t)len);
 501:Drivers/STM32L5xx_HAL_Driver/Src/stm32l5xx_ll_usb.c ****         }
 502:Drivers/STM32L5xx_HAL_Driver/Src/stm32l5xx_ll_usb.c ****         else
 503:Drivers/STM32L5xx_HAL_Driver/Src/stm32l5xx_ll_usb.c ****         {
 504:Drivers/STM32L5xx_HAL_Driver/Src/stm32l5xx_ll_usb.c ****           /* Set the Double buffer counter for pmabuffer0 */
 505:Drivers/STM32L5xx_HAL_Driver/Src/stm32l5xx_ll_usb.c ****           PCD_SET_EP_DBUF0_CNT(USBx, ep->num, ep->is_in, len);
 506:Drivers/STM32L5xx_HAL_Driver/Src/stm32l5xx_ll_usb.c ****           pmabuffer = ep->pmaaddr0;
 507:Drivers/STM32L5xx_HAL_Driver/Src/stm32l5xx_ll_usb.c **** 
 508:Drivers/STM32L5xx_HAL_Driver/Src/stm32l5xx_ll_usb.c ****           /* Write the user buffer to USB PMA */
 509:Drivers/STM32L5xx_HAL_Driver/Src/stm32l5xx_ll_usb.c ****           USB_WritePMA(USBx, ep->xfer_buff, pmabuffer, (uint16_t)len);
 510:Drivers/STM32L5xx_HAL_Driver/Src/stm32l5xx_ll_usb.c ****         }
 511:Drivers/STM32L5xx_HAL_Driver/Src/stm32l5xx_ll_usb.c ****       }
 512:Drivers/STM32L5xx_HAL_Driver/Src/stm32l5xx_ll_usb.c ****     }
 513:Drivers/STM32L5xx_HAL_Driver/Src/stm32l5xx_ll_usb.c **** #endif /* (USE_USB_DOUBLE_BUFFER == 1U) */
 514:Drivers/STM32L5xx_HAL_Driver/Src/stm32l5xx_ll_usb.c **** 
 515:Drivers/STM32L5xx_HAL_Driver/Src/stm32l5xx_ll_usb.c ****     PCD_SET_EP_TX_STATUS(USBx, ep->num, USB_EP_TX_VALID);
 516:Drivers/STM32L5xx_HAL_Driver/Src/stm32l5xx_ll_usb.c ****   }
 517:Drivers/STM32L5xx_HAL_Driver/Src/stm32l5xx_ll_usb.c ****   else /* OUT endpoint */
 518:Drivers/STM32L5xx_HAL_Driver/Src/stm32l5xx_ll_usb.c ****   {
 519:Drivers/STM32L5xx_HAL_Driver/Src/stm32l5xx_ll_usb.c ****     if (ep->doublebuffer == 0U)
 520:Drivers/STM32L5xx_HAL_Driver/Src/stm32l5xx_ll_usb.c ****     {
 521:Drivers/STM32L5xx_HAL_Driver/Src/stm32l5xx_ll_usb.c ****       /* Multi packet transfer */
 522:Drivers/STM32L5xx_HAL_Driver/Src/stm32l5xx_ll_usb.c ****       if (ep->xfer_len > ep->maxpacket)
 523:Drivers/STM32L5xx_HAL_Driver/Src/stm32l5xx_ll_usb.c ****       {
 524:Drivers/STM32L5xx_HAL_Driver/Src/stm32l5xx_ll_usb.c ****         len = ep->maxpacket;
 525:Drivers/STM32L5xx_HAL_Driver/Src/stm32l5xx_ll_usb.c ****         ep->xfer_len -= len;
 526:Drivers/STM32L5xx_HAL_Driver/Src/stm32l5xx_ll_usb.c ****       }
 527:Drivers/STM32L5xx_HAL_Driver/Src/stm32l5xx_ll_usb.c ****       else
 528:Drivers/STM32L5xx_HAL_Driver/Src/stm32l5xx_ll_usb.c ****       {
 529:Drivers/STM32L5xx_HAL_Driver/Src/stm32l5xx_ll_usb.c ****         len = ep->xfer_len;
 530:Drivers/STM32L5xx_HAL_Driver/Src/stm32l5xx_ll_usb.c ****         ep->xfer_len = 0U;
 531:Drivers/STM32L5xx_HAL_Driver/Src/stm32l5xx_ll_usb.c ****       }
 532:Drivers/STM32L5xx_HAL_Driver/Src/stm32l5xx_ll_usb.c ****       /* configure and validate Rx endpoint */
 533:Drivers/STM32L5xx_HAL_Driver/Src/stm32l5xx_ll_usb.c ****       PCD_SET_EP_RX_CNT(USBx, ep->num, len);
 534:Drivers/STM32L5xx_HAL_Driver/Src/stm32l5xx_ll_usb.c ****     }
 535:Drivers/STM32L5xx_HAL_Driver/Src/stm32l5xx_ll_usb.c **** #if (USE_USB_DOUBLE_BUFFER == 1U)
 536:Drivers/STM32L5xx_HAL_Driver/Src/stm32l5xx_ll_usb.c ****     else
 537:Drivers/STM32L5xx_HAL_Driver/Src/stm32l5xx_ll_usb.c ****     {
 538:Drivers/STM32L5xx_HAL_Driver/Src/stm32l5xx_ll_usb.c ****       /* First Transfer Coming From HAL_PCD_EP_Receive & From ISR */
 539:Drivers/STM32L5xx_HAL_Driver/Src/stm32l5xx_ll_usb.c ****       /* Set the Double buffer counter */
 540:Drivers/STM32L5xx_HAL_Driver/Src/stm32l5xx_ll_usb.c ****       if (ep->type == EP_TYPE_BULK)
 541:Drivers/STM32L5xx_HAL_Driver/Src/stm32l5xx_ll_usb.c ****       {
 542:Drivers/STM32L5xx_HAL_Driver/Src/stm32l5xx_ll_usb.c ****         PCD_SET_EP_DBUF_CNT(USBx, ep->num, ep->is_in, ep->maxpacket);
 543:Drivers/STM32L5xx_HAL_Driver/Src/stm32l5xx_ll_usb.c **** 
 544:Drivers/STM32L5xx_HAL_Driver/Src/stm32l5xx_ll_usb.c ****         /* Coming from ISR */
 545:Drivers/STM32L5xx_HAL_Driver/Src/stm32l5xx_ll_usb.c ****         if (ep->xfer_count != 0U)
 546:Drivers/STM32L5xx_HAL_Driver/Src/stm32l5xx_ll_usb.c ****         {
 547:Drivers/STM32L5xx_HAL_Driver/Src/stm32l5xx_ll_usb.c ****           /* update last value to check if there is blocking state */
ARM GAS  /tmp/ccQg3iPh.s 			page 39


 548:Drivers/STM32L5xx_HAL_Driver/Src/stm32l5xx_ll_usb.c ****           wEPVal = PCD_GET_ENDPOINT(USBx, ep->num);
 549:Drivers/STM32L5xx_HAL_Driver/Src/stm32l5xx_ll_usb.c **** 
 550:Drivers/STM32L5xx_HAL_Driver/Src/stm32l5xx_ll_usb.c ****           /*Blocking State */
 551:Drivers/STM32L5xx_HAL_Driver/Src/stm32l5xx_ll_usb.c ****           if ((((wEPVal & USB_EP_DTOG_RX) != 0U) && ((wEPVal & USB_EP_DTOG_TX) != 0U)) ||
 552:Drivers/STM32L5xx_HAL_Driver/Src/stm32l5xx_ll_usb.c ****               (((wEPVal & USB_EP_DTOG_RX) == 0U) && ((wEPVal & USB_EP_DTOG_TX) == 0U)))
 553:Drivers/STM32L5xx_HAL_Driver/Src/stm32l5xx_ll_usb.c ****           {
 554:Drivers/STM32L5xx_HAL_Driver/Src/stm32l5xx_ll_usb.c ****             PCD_FREE_USER_BUFFER(USBx, ep->num, 0U);
 555:Drivers/STM32L5xx_HAL_Driver/Src/stm32l5xx_ll_usb.c ****           }
 556:Drivers/STM32L5xx_HAL_Driver/Src/stm32l5xx_ll_usb.c ****         }
 557:Drivers/STM32L5xx_HAL_Driver/Src/stm32l5xx_ll_usb.c ****       }
 558:Drivers/STM32L5xx_HAL_Driver/Src/stm32l5xx_ll_usb.c ****       /* iso out double */
 559:Drivers/STM32L5xx_HAL_Driver/Src/stm32l5xx_ll_usb.c ****       else if (ep->type == EP_TYPE_ISOC)
 560:Drivers/STM32L5xx_HAL_Driver/Src/stm32l5xx_ll_usb.c ****       {
 561:Drivers/STM32L5xx_HAL_Driver/Src/stm32l5xx_ll_usb.c ****         /* Multi packet transfer */
 562:Drivers/STM32L5xx_HAL_Driver/Src/stm32l5xx_ll_usb.c ****         if (ep->xfer_len > ep->maxpacket)
 563:Drivers/STM32L5xx_HAL_Driver/Src/stm32l5xx_ll_usb.c ****         {
 564:Drivers/STM32L5xx_HAL_Driver/Src/stm32l5xx_ll_usb.c ****           len = ep->maxpacket;
 565:Drivers/STM32L5xx_HAL_Driver/Src/stm32l5xx_ll_usb.c ****           ep->xfer_len -= len;
 566:Drivers/STM32L5xx_HAL_Driver/Src/stm32l5xx_ll_usb.c ****         }
 567:Drivers/STM32L5xx_HAL_Driver/Src/stm32l5xx_ll_usb.c ****         else
 568:Drivers/STM32L5xx_HAL_Driver/Src/stm32l5xx_ll_usb.c ****         {
 569:Drivers/STM32L5xx_HAL_Driver/Src/stm32l5xx_ll_usb.c ****           len = ep->xfer_len;
 570:Drivers/STM32L5xx_HAL_Driver/Src/stm32l5xx_ll_usb.c ****           ep->xfer_len = 0U;
 571:Drivers/STM32L5xx_HAL_Driver/Src/stm32l5xx_ll_usb.c ****         }
 572:Drivers/STM32L5xx_HAL_Driver/Src/stm32l5xx_ll_usb.c ****         PCD_SET_EP_DBUF_CNT(USBx, ep->num, ep->is_in, len);
 573:Drivers/STM32L5xx_HAL_Driver/Src/stm32l5xx_ll_usb.c ****       }
 574:Drivers/STM32L5xx_HAL_Driver/Src/stm32l5xx_ll_usb.c ****       else
 575:Drivers/STM32L5xx_HAL_Driver/Src/stm32l5xx_ll_usb.c ****       {
 576:Drivers/STM32L5xx_HAL_Driver/Src/stm32l5xx_ll_usb.c ****         return HAL_ERROR;
 577:Drivers/STM32L5xx_HAL_Driver/Src/stm32l5xx_ll_usb.c ****       }
 578:Drivers/STM32L5xx_HAL_Driver/Src/stm32l5xx_ll_usb.c ****     }
 579:Drivers/STM32L5xx_HAL_Driver/Src/stm32l5xx_ll_usb.c **** #endif /* (USE_USB_DOUBLE_BUFFER == 1U) */
 580:Drivers/STM32L5xx_HAL_Driver/Src/stm32l5xx_ll_usb.c **** 
 581:Drivers/STM32L5xx_HAL_Driver/Src/stm32l5xx_ll_usb.c ****     PCD_SET_EP_RX_STATUS(USBx, ep->num, USB_EP_RX_VALID);
 582:Drivers/STM32L5xx_HAL_Driver/Src/stm32l5xx_ll_usb.c ****   }
 583:Drivers/STM32L5xx_HAL_Driver/Src/stm32l5xx_ll_usb.c **** 
 584:Drivers/STM32L5xx_HAL_Driver/Src/stm32l5xx_ll_usb.c ****   return HAL_OK;
 585:Drivers/STM32L5xx_HAL_Driver/Src/stm32l5xx_ll_usb.c **** }
 586:Drivers/STM32L5xx_HAL_Driver/Src/stm32l5xx_ll_usb.c **** 
 587:Drivers/STM32L5xx_HAL_Driver/Src/stm32l5xx_ll_usb.c **** 
 588:Drivers/STM32L5xx_HAL_Driver/Src/stm32l5xx_ll_usb.c **** /**
 589:Drivers/STM32L5xx_HAL_Driver/Src/stm32l5xx_ll_usb.c ****   * @brief  USB_EPSetStall set a stall condition over an EP
 590:Drivers/STM32L5xx_HAL_Driver/Src/stm32l5xx_ll_usb.c ****   * @param  USBx Selected device
 591:Drivers/STM32L5xx_HAL_Driver/Src/stm32l5xx_ll_usb.c ****   * @param  ep pointer to endpoint structure
 592:Drivers/STM32L5xx_HAL_Driver/Src/stm32l5xx_ll_usb.c ****   * @retval HAL status
 593:Drivers/STM32L5xx_HAL_Driver/Src/stm32l5xx_ll_usb.c ****   */
 594:Drivers/STM32L5xx_HAL_Driver/Src/stm32l5xx_ll_usb.c **** HAL_StatusTypeDef USB_EPSetStall(USB_TypeDef *USBx, USB_EPTypeDef *ep)
 595:Drivers/STM32L5xx_HAL_Driver/Src/stm32l5xx_ll_usb.c **** {
 1432              		.loc 1 595 1 is_stmt 1 view -0
 1433              		.cfi_startproc
 1434              		@ args = 0, pretend = 0, frame = 0
 1435              		@ frame_needed = 0, uses_anonymous_args = 0
 1436              		@ link register save eliminated.
 596:Drivers/STM32L5xx_HAL_Driver/Src/stm32l5xx_ll_usb.c ****   if (ep->is_in != 0U)
 1437              		.loc 1 596 3 view .LVU498
 1438              		.loc 1 596 9 is_stmt 0 view .LVU499
 1439 0000 4B78     		ldrb	r3, [r1, #1]	@ zero_extendqisi2
ARM GAS  /tmp/ccQg3iPh.s 			page 40


 1440              		.loc 1 596 6 view .LVU500
 1441 0002 8BB1     		cbz	r3, .L51
 597:Drivers/STM32L5xx_HAL_Driver/Src/stm32l5xx_ll_usb.c ****   {
 598:Drivers/STM32L5xx_HAL_Driver/Src/stm32l5xx_ll_usb.c ****     PCD_SET_EP_TX_STATUS(USBx, ep->num, USB_EP_TX_STALL);
 1442              		.loc 1 598 5 is_stmt 1 view .LVU501
 1443              	.LBB54:
 1444              		.loc 1 598 5 view .LVU502
 1445              		.loc 1 598 5 view .LVU503
 1446 0004 0A78     		ldrb	r2, [r1]	@ zero_extendqisi2
 1447 0006 30F82230 		ldrh	r3, [r0, r2, lsl #2]
 1448 000a 9BB2     		uxth	r3, r3
 1449 000c 23F4E043 		bic	r3, r3, #28672
 1450 0010 23F04003 		bic	r3, r3, #64
 1451              	.LVL172:
 1452              		.loc 1 598 5 view .LVU504
 1453              		.loc 1 598 5 view .LVU505
 1454 0014 83F01003 		eor	r3, r3, #16
 1455              	.LVL173:
 1456              		.loc 1 598 5 view .LVU506
 1457              		.loc 1 598 5 view .LVU507
 1458 0018 43F40043 		orr	r3, r3, #32768
 1459              	.LVL174:
 1460              		.loc 1 598 5 is_stmt 0 view .LVU508
 1461 001c 43F08003 		orr	r3, r3, #128
 1462 0020 20F82230 		strh	r3, [r0, r2, lsl #2]	@ movhi
 1463              	.LBE54:
 1464              		.loc 1 598 5 is_stmt 1 view .LVU509
 1465              	.LVL175:
 1466              	.L52:
 599:Drivers/STM32L5xx_HAL_Driver/Src/stm32l5xx_ll_usb.c ****   }
 600:Drivers/STM32L5xx_HAL_Driver/Src/stm32l5xx_ll_usb.c ****   else
 601:Drivers/STM32L5xx_HAL_Driver/Src/stm32l5xx_ll_usb.c ****   {
 602:Drivers/STM32L5xx_HAL_Driver/Src/stm32l5xx_ll_usb.c ****     PCD_SET_EP_RX_STATUS(USBx, ep->num, USB_EP_RX_STALL);
 1467              		.loc 1 602 5 discriminator 7 view .LVU510
 603:Drivers/STM32L5xx_HAL_Driver/Src/stm32l5xx_ll_usb.c ****   }
 604:Drivers/STM32L5xx_HAL_Driver/Src/stm32l5xx_ll_usb.c **** 
 605:Drivers/STM32L5xx_HAL_Driver/Src/stm32l5xx_ll_usb.c ****   return HAL_OK;
 1468              		.loc 1 605 3 discriminator 7 view .LVU511
 606:Drivers/STM32L5xx_HAL_Driver/Src/stm32l5xx_ll_usb.c **** }
 1469              		.loc 1 606 1 is_stmt 0 discriminator 7 view .LVU512
 1470 0024 0020     		movs	r0, #0
 1471              	.LVL176:
 1472              		.loc 1 606 1 discriminator 7 view .LVU513
 1473 0026 7047     		bx	lr
 1474              	.LVL177:
 1475              	.L51:
 602:Drivers/STM32L5xx_HAL_Driver/Src/stm32l5xx_ll_usb.c ****   }
 1476              		.loc 1 602 5 is_stmt 1 view .LVU514
 1477              	.LBB55:
 602:Drivers/STM32L5xx_HAL_Driver/Src/stm32l5xx_ll_usb.c ****   }
 1478              		.loc 1 602 5 view .LVU515
 602:Drivers/STM32L5xx_HAL_Driver/Src/stm32l5xx_ll_usb.c ****   }
 1479              		.loc 1 602 5 view .LVU516
 1480 0028 0A78     		ldrb	r2, [r1]	@ zero_extendqisi2
 1481 002a 30F82230 		ldrh	r3, [r0, r2, lsl #2]
 1482 002e 9BB2     		uxth	r3, r3
 1483 0030 23F48043 		bic	r3, r3, #16384
ARM GAS  /tmp/ccQg3iPh.s 			page 41


 1484 0034 23F07003 		bic	r3, r3, #112
 1485              	.LVL178:
 602:Drivers/STM32L5xx_HAL_Driver/Src/stm32l5xx_ll_usb.c ****   }
 1486              		.loc 1 602 5 view .LVU517
 602:Drivers/STM32L5xx_HAL_Driver/Src/stm32l5xx_ll_usb.c ****   }
 1487              		.loc 1 602 5 view .LVU518
 1488 0038 83F48053 		eor	r3, r3, #4096
 1489              	.LVL179:
 602:Drivers/STM32L5xx_HAL_Driver/Src/stm32l5xx_ll_usb.c ****   }
 1490              		.loc 1 602 5 view .LVU519
 602:Drivers/STM32L5xx_HAL_Driver/Src/stm32l5xx_ll_usb.c ****   }
 1491              		.loc 1 602 5 view .LVU520
 1492 003c 43F40043 		orr	r3, r3, #32768
 1493              	.LVL180:
 602:Drivers/STM32L5xx_HAL_Driver/Src/stm32l5xx_ll_usb.c ****   }
 1494              		.loc 1 602 5 is_stmt 0 view .LVU521
 1495 0040 43F08003 		orr	r3, r3, #128
 1496 0044 20F82230 		strh	r3, [r0, r2, lsl #2]	@ movhi
 1497 0048 ECE7     		b	.L52
 1498              	.LBE55:
 1499              		.cfi_endproc
 1500              	.LFE160:
 1502              		.section	.text.USB_EPClearStall,"ax",%progbits
 1503              		.align	1
 1504              		.global	USB_EPClearStall
 1505              		.syntax unified
 1506              		.thumb
 1507              		.thumb_func
 1509              	USB_EPClearStall:
 1510              	.LVL181:
 1511              	.LFB161:
 607:Drivers/STM32L5xx_HAL_Driver/Src/stm32l5xx_ll_usb.c **** 
 608:Drivers/STM32L5xx_HAL_Driver/Src/stm32l5xx_ll_usb.c **** /**
 609:Drivers/STM32L5xx_HAL_Driver/Src/stm32l5xx_ll_usb.c ****   * @brief  USB_EPClearStall Clear a stall condition over an EP
 610:Drivers/STM32L5xx_HAL_Driver/Src/stm32l5xx_ll_usb.c ****   * @param  USBx Selected device
 611:Drivers/STM32L5xx_HAL_Driver/Src/stm32l5xx_ll_usb.c ****   * @param  ep pointer to endpoint structure
 612:Drivers/STM32L5xx_HAL_Driver/Src/stm32l5xx_ll_usb.c ****   * @retval HAL status
 613:Drivers/STM32L5xx_HAL_Driver/Src/stm32l5xx_ll_usb.c ****   */
 614:Drivers/STM32L5xx_HAL_Driver/Src/stm32l5xx_ll_usb.c **** HAL_StatusTypeDef USB_EPClearStall(USB_TypeDef *USBx, USB_EPTypeDef *ep)
 615:Drivers/STM32L5xx_HAL_Driver/Src/stm32l5xx_ll_usb.c **** {
 1512              		.loc 1 615 1 is_stmt 1 view -0
 1513              		.cfi_startproc
 1514              		@ args = 0, pretend = 0, frame = 0
 1515              		@ frame_needed = 0, uses_anonymous_args = 0
 1516              		@ link register save eliminated.
 616:Drivers/STM32L5xx_HAL_Driver/Src/stm32l5xx_ll_usb.c ****   if (ep->doublebuffer == 0U)
 1517              		.loc 1 616 3 view .LVU523
 1518              		.loc 1 616 9 is_stmt 0 view .LVU524
 1519 0000 0B7B     		ldrb	r3, [r1, #12]	@ zero_extendqisi2
 1520              		.loc 1 616 6 view .LVU525
 1521 0002 002B     		cmp	r3, #0
 1522 0004 4BD1     		bne	.L54
 617:Drivers/STM32L5xx_HAL_Driver/Src/stm32l5xx_ll_usb.c ****   {
 618:Drivers/STM32L5xx_HAL_Driver/Src/stm32l5xx_ll_usb.c ****     if (ep->is_in != 0U)
 1523              		.loc 1 618 5 is_stmt 1 view .LVU526
 1524              		.loc 1 618 11 is_stmt 0 view .LVU527
 1525 0006 4B78     		ldrb	r3, [r1, #1]	@ zero_extendqisi2
ARM GAS  /tmp/ccQg3iPh.s 			page 42


 1526              		.loc 1 618 8 view .LVU528
 1527 0008 33B3     		cbz	r3, .L55
 619:Drivers/STM32L5xx_HAL_Driver/Src/stm32l5xx_ll_usb.c ****     {
 620:Drivers/STM32L5xx_HAL_Driver/Src/stm32l5xx_ll_usb.c ****       PCD_CLEAR_TX_DTOG(USBx, ep->num);
 1528              		.loc 1 620 7 is_stmt 1 view .LVU529
 1529              	.LBB56:
 1530              		.loc 1 620 7 view .LVU530
 1531              		.loc 1 620 7 view .LVU531
 1532 000a 0A78     		ldrb	r2, [r1]	@ zero_extendqisi2
 1533 000c 30F82230 		ldrh	r3, [r0, r2, lsl #2]
 1534              	.LVL182:
 1535              		.loc 1 620 7 view .LVU532
 1536 0010 13F0400F 		tst	r3, #64
 1537 0014 0CD0     		beq	.L56
 1538              		.loc 1 620 7 discriminator 1 view .LVU533
 1539              	.LBB57:
 1540              		.loc 1 620 7 discriminator 1 view .LVU534
 1541              		.loc 1 620 7 discriminator 1 view .LVU535
 1542 0016 30F82230 		ldrh	r3, [r0, r2, lsl #2]
 1543              	.LVL183:
 1544              		.loc 1 620 7 is_stmt 0 discriminator 1 view .LVU536
 1545 001a 9BB2     		uxth	r3, r3
 1546 001c 23F4E043 		bic	r3, r3, #28672
 1547 0020 23F07003 		bic	r3, r3, #112
 1548              	.LVL184:
 1549              		.loc 1 620 7 is_stmt 1 discriminator 1 view .LVU537
 1550 0024 43F40043 		orr	r3, r3, #32768
 1551              	.LVL185:
 1552              		.loc 1 620 7 is_stmt 0 discriminator 1 view .LVU538
 1553 0028 43F0C003 		orr	r3, r3, #192
 1554 002c 20F82230 		strh	r3, [r0, r2, lsl #2]	@ movhi
 1555              	.LVL186:
 1556              	.L56:
 1557              		.loc 1 620 7 discriminator 1 view .LVU539
 1558              	.LBE57:
 1559              		.loc 1 620 7 is_stmt 1 discriminator 3 view .LVU540
 1560              	.LBE56:
 1561              		.loc 1 620 7 discriminator 3 view .LVU541
 621:Drivers/STM32L5xx_HAL_Driver/Src/stm32l5xx_ll_usb.c **** 
 622:Drivers/STM32L5xx_HAL_Driver/Src/stm32l5xx_ll_usb.c ****       if (ep->type != EP_TYPE_ISOC)
 1562              		.loc 1 622 7 discriminator 3 view .LVU542
 1563              		.loc 1 622 13 is_stmt 0 discriminator 3 view .LVU543
 1564 0030 CB78     		ldrb	r3, [r1, #3]	@ zero_extendqisi2
 1565              		.loc 1 622 10 discriminator 3 view .LVU544
 1566 0032 012B     		cmp	r3, #1
 1567 0034 33D0     		beq	.L54
 623:Drivers/STM32L5xx_HAL_Driver/Src/stm32l5xx_ll_usb.c ****       {
 624:Drivers/STM32L5xx_HAL_Driver/Src/stm32l5xx_ll_usb.c ****         /* Configure NAK status for the Endpoint */
 625:Drivers/STM32L5xx_HAL_Driver/Src/stm32l5xx_ll_usb.c ****         PCD_SET_EP_TX_STATUS(USBx, ep->num, USB_EP_TX_NAK);
 1568              		.loc 1 625 9 is_stmt 1 view .LVU545
 1569              	.LBB58:
 1570              		.loc 1 625 9 view .LVU546
 1571              		.loc 1 625 9 view .LVU547
 1572 0036 0A78     		ldrb	r2, [r1]	@ zero_extendqisi2
 1573 0038 30F82230 		ldrh	r3, [r0, r2, lsl #2]
 1574 003c 9BB2     		uxth	r3, r3
 1575 003e 23F4E043 		bic	r3, r3, #28672
ARM GAS  /tmp/ccQg3iPh.s 			page 43


 1576 0042 23F04003 		bic	r3, r3, #64
 1577              	.LVL187:
 1578              		.loc 1 625 9 view .LVU548
 1579              		.loc 1 625 9 view .LVU549
 1580              		.loc 1 625 9 view .LVU550
 1581 0046 83F02003 		eor	r3, r3, #32
 1582              	.LVL188:
 1583              		.loc 1 625 9 view .LVU551
 1584 004a 43F40043 		orr	r3, r3, #32768
 1585              	.LVL189:
 1586              		.loc 1 625 9 is_stmt 0 view .LVU552
 1587 004e 43F08003 		orr	r3, r3, #128
 1588 0052 20F82230 		strh	r3, [r0, r2, lsl #2]	@ movhi
 1589 0056 22E0     		b	.L54
 1590              	.LVL190:
 1591              	.L55:
 1592              		.loc 1 625 9 view .LVU553
 1593              	.LBE58:
 626:Drivers/STM32L5xx_HAL_Driver/Src/stm32l5xx_ll_usb.c ****       }
 627:Drivers/STM32L5xx_HAL_Driver/Src/stm32l5xx_ll_usb.c ****     }
 628:Drivers/STM32L5xx_HAL_Driver/Src/stm32l5xx_ll_usb.c ****     else
 629:Drivers/STM32L5xx_HAL_Driver/Src/stm32l5xx_ll_usb.c ****     {
 630:Drivers/STM32L5xx_HAL_Driver/Src/stm32l5xx_ll_usb.c ****       PCD_CLEAR_RX_DTOG(USBx, ep->num);
 1594              		.loc 1 630 7 is_stmt 1 view .LVU554
 1595              	.LBB59:
 1596              		.loc 1 630 7 view .LVU555
 1597              		.loc 1 630 7 view .LVU556
 1598 0058 0A78     		ldrb	r2, [r1]	@ zero_extendqisi2
 1599 005a 30F82230 		ldrh	r3, [r0, r2, lsl #2]
 1600              	.LVL191:
 1601              		.loc 1 630 7 view .LVU557
 1602 005e 13F4804F 		tst	r3, #16384
 1603 0062 0CD0     		beq	.L57
 1604              		.loc 1 630 7 discriminator 1 view .LVU558
 1605              	.LBB60:
 1606              		.loc 1 630 7 discriminator 1 view .LVU559
 1607              		.loc 1 630 7 discriminator 1 view .LVU560
 1608 0064 30F82230 		ldrh	r3, [r0, r2, lsl #2]
 1609              	.LVL192:
 1610              		.loc 1 630 7 is_stmt 0 discriminator 1 view .LVU561
 1611 0068 9BB2     		uxth	r3, r3
 1612 006a 23F4E043 		bic	r3, r3, #28672
 1613 006e 23F07003 		bic	r3, r3, #112
 1614              	.LVL193:
 1615              		.loc 1 630 7 is_stmt 1 discriminator 1 view .LVU562
 1616 0072 43F44043 		orr	r3, r3, #49152
 1617              	.LVL194:
 1618              		.loc 1 630 7 is_stmt 0 discriminator 1 view .LVU563
 1619 0076 43F08003 		orr	r3, r3, #128
 1620 007a 20F82230 		strh	r3, [r0, r2, lsl #2]	@ movhi
 1621              	.LVL195:
 1622              	.L57:
 1623              		.loc 1 630 7 discriminator 1 view .LVU564
 1624              	.LBE60:
 1625              		.loc 1 630 7 is_stmt 1 discriminator 3 view .LVU565
 1626              	.LBE59:
 1627              		.loc 1 630 7 discriminator 3 view .LVU566
ARM GAS  /tmp/ccQg3iPh.s 			page 44


 631:Drivers/STM32L5xx_HAL_Driver/Src/stm32l5xx_ll_usb.c **** 
 632:Drivers/STM32L5xx_HAL_Driver/Src/stm32l5xx_ll_usb.c ****       /* Configure VALID status for the Endpoint */
 633:Drivers/STM32L5xx_HAL_Driver/Src/stm32l5xx_ll_usb.c ****       PCD_SET_EP_RX_STATUS(USBx, ep->num, USB_EP_RX_VALID);
 1628              		.loc 1 633 7 discriminator 3 view .LVU567
 1629              	.LBB61:
 1630              		.loc 1 633 7 discriminator 3 view .LVU568
 1631              		.loc 1 633 7 discriminator 3 view .LVU569
 1632 007e 0A78     		ldrb	r2, [r1]	@ zero_extendqisi2
 1633 0080 30F82230 		ldrh	r3, [r0, r2, lsl #2]
 1634 0084 9BB2     		uxth	r3, r3
 1635 0086 23F48043 		bic	r3, r3, #16384
 1636 008a 23F07003 		bic	r3, r3, #112
 1637              	.LVL196:
 1638              		.loc 1 633 7 discriminator 3 view .LVU570
 1639              		.loc 1 633 7 discriminator 3 view .LVU571
 1640              		.loc 1 633 7 discriminator 3 view .LVU572
 1641              		.loc 1 633 7 discriminator 3 view .LVU573
 1642 008e 83F44053 		eor	r3, r3, #12288
 1643              	.LVL197:
 1644              		.loc 1 633 7 discriminator 3 view .LVU574
 1645 0092 43F40043 		orr	r3, r3, #32768
 1646              	.LVL198:
 1647              		.loc 1 633 7 is_stmt 0 discriminator 3 view .LVU575
 1648 0096 43F08003 		orr	r3, r3, #128
 1649 009a 20F82230 		strh	r3, [r0, r2, lsl #2]	@ movhi
 1650              	.LVL199:
 1651              	.L54:
 1652              		.loc 1 633 7 discriminator 3 view .LVU576
 1653              	.LBE61:
 1654              		.loc 1 633 7 is_stmt 1 discriminator 7 view .LVU577
 634:Drivers/STM32L5xx_HAL_Driver/Src/stm32l5xx_ll_usb.c ****     }
 635:Drivers/STM32L5xx_HAL_Driver/Src/stm32l5xx_ll_usb.c ****   }
 636:Drivers/STM32L5xx_HAL_Driver/Src/stm32l5xx_ll_usb.c **** 
 637:Drivers/STM32L5xx_HAL_Driver/Src/stm32l5xx_ll_usb.c ****   return HAL_OK;
 1655              		.loc 1 637 3 discriminator 7 view .LVU578
 638:Drivers/STM32L5xx_HAL_Driver/Src/stm32l5xx_ll_usb.c **** }
 1656              		.loc 1 638 1 is_stmt 0 discriminator 7 view .LVU579
 1657 009e 0020     		movs	r0, #0
 1658              	.LVL200:
 1659              		.loc 1 638 1 discriminator 7 view .LVU580
 1660 00a0 7047     		bx	lr
 1661              		.cfi_endproc
 1662              	.LFE161:
 1664              		.section	.text.USB_EPStopXfer,"ax",%progbits
 1665              		.align	1
 1666              		.global	USB_EPStopXfer
 1667              		.syntax unified
 1668              		.thumb
 1669              		.thumb_func
 1671              	USB_EPStopXfer:
 1672              	.LVL201:
 1673              	.LFB162:
 639:Drivers/STM32L5xx_HAL_Driver/Src/stm32l5xx_ll_usb.c **** 
 640:Drivers/STM32L5xx_HAL_Driver/Src/stm32l5xx_ll_usb.c **** /**
 641:Drivers/STM32L5xx_HAL_Driver/Src/stm32l5xx_ll_usb.c ****    * @brief  USB_EPStoptXfer  Stop transfer on an EP
 642:Drivers/STM32L5xx_HAL_Driver/Src/stm32l5xx_ll_usb.c ****    * @param  USBx  usb device instance
 643:Drivers/STM32L5xx_HAL_Driver/Src/stm32l5xx_ll_usb.c ****    * @param  ep pointer to endpoint structure
ARM GAS  /tmp/ccQg3iPh.s 			page 45


 644:Drivers/STM32L5xx_HAL_Driver/Src/stm32l5xx_ll_usb.c ****    * @retval HAL status
 645:Drivers/STM32L5xx_HAL_Driver/Src/stm32l5xx_ll_usb.c ****    */
 646:Drivers/STM32L5xx_HAL_Driver/Src/stm32l5xx_ll_usb.c **** HAL_StatusTypeDef USB_EPStopXfer(USB_TypeDef *USBx, USB_EPTypeDef *ep)
 647:Drivers/STM32L5xx_HAL_Driver/Src/stm32l5xx_ll_usb.c **** {
 1674              		.loc 1 647 1 is_stmt 1 view -0
 1675              		.cfi_startproc
 1676              		@ args = 0, pretend = 0, frame = 0
 1677              		@ frame_needed = 0, uses_anonymous_args = 0
 1678              		@ link register save eliminated.
 648:Drivers/STM32L5xx_HAL_Driver/Src/stm32l5xx_ll_usb.c ****   /* IN endpoint */
 649:Drivers/STM32L5xx_HAL_Driver/Src/stm32l5xx_ll_usb.c ****   if (ep->is_in == 1U)
 1679              		.loc 1 649 3 view .LVU582
 1680              		.loc 1 649 9 is_stmt 0 view .LVU583
 1681 0000 4B78     		ldrb	r3, [r1, #1]	@ zero_extendqisi2
 1682              		.loc 1 649 6 view .LVU584
 1683 0002 012B     		cmp	r3, #1
 1684 0004 16D0     		beq	.L63
 650:Drivers/STM32L5xx_HAL_Driver/Src/stm32l5xx_ll_usb.c ****   {
 651:Drivers/STM32L5xx_HAL_Driver/Src/stm32l5xx_ll_usb.c ****     if (ep->doublebuffer == 0U)
 652:Drivers/STM32L5xx_HAL_Driver/Src/stm32l5xx_ll_usb.c ****     {
 653:Drivers/STM32L5xx_HAL_Driver/Src/stm32l5xx_ll_usb.c ****       if (ep->type != EP_TYPE_ISOC)
 654:Drivers/STM32L5xx_HAL_Driver/Src/stm32l5xx_ll_usb.c ****       {
 655:Drivers/STM32L5xx_HAL_Driver/Src/stm32l5xx_ll_usb.c ****         /* Configure NAK status for the Endpoint */
 656:Drivers/STM32L5xx_HAL_Driver/Src/stm32l5xx_ll_usb.c ****         PCD_SET_EP_TX_STATUS(USBx, ep->num, USB_EP_TX_NAK);
 657:Drivers/STM32L5xx_HAL_Driver/Src/stm32l5xx_ll_usb.c ****       }
 658:Drivers/STM32L5xx_HAL_Driver/Src/stm32l5xx_ll_usb.c ****       else
 659:Drivers/STM32L5xx_HAL_Driver/Src/stm32l5xx_ll_usb.c ****       {
 660:Drivers/STM32L5xx_HAL_Driver/Src/stm32l5xx_ll_usb.c ****         /* Configure TX Endpoint to disabled state */
 661:Drivers/STM32L5xx_HAL_Driver/Src/stm32l5xx_ll_usb.c ****         PCD_SET_EP_TX_STATUS(USBx, ep->num, USB_EP_TX_DIS);
 662:Drivers/STM32L5xx_HAL_Driver/Src/stm32l5xx_ll_usb.c ****       }
 663:Drivers/STM32L5xx_HAL_Driver/Src/stm32l5xx_ll_usb.c ****     }
 664:Drivers/STM32L5xx_HAL_Driver/Src/stm32l5xx_ll_usb.c ****   }
 665:Drivers/STM32L5xx_HAL_Driver/Src/stm32l5xx_ll_usb.c ****   else /* OUT endpoint */
 666:Drivers/STM32L5xx_HAL_Driver/Src/stm32l5xx_ll_usb.c ****   {
 667:Drivers/STM32L5xx_HAL_Driver/Src/stm32l5xx_ll_usb.c ****     if (ep->doublebuffer == 0U)
 1685              		.loc 1 667 5 is_stmt 1 view .LVU585
 1686              		.loc 1 667 11 is_stmt 0 view .LVU586
 1687 0006 0B7B     		ldrb	r3, [r1, #12]	@ zero_extendqisi2
 1688              		.loc 1 667 8 view .LVU587
 1689 0008 93B9     		cbnz	r3, .L60
 668:Drivers/STM32L5xx_HAL_Driver/Src/stm32l5xx_ll_usb.c ****     {
 669:Drivers/STM32L5xx_HAL_Driver/Src/stm32l5xx_ll_usb.c ****       if (ep->type != EP_TYPE_ISOC)
 1690              		.loc 1 669 7 is_stmt 1 view .LVU588
 1691              		.loc 1 669 13 is_stmt 0 view .LVU589
 1692 000a CB78     		ldrb	r3, [r1, #3]	@ zero_extendqisi2
 1693              		.loc 1 669 10 view .LVU590
 1694 000c 012B     		cmp	r3, #1
 1695 000e 37D0     		beq	.L62
 670:Drivers/STM32L5xx_HAL_Driver/Src/stm32l5xx_ll_usb.c ****       {
 671:Drivers/STM32L5xx_HAL_Driver/Src/stm32l5xx_ll_usb.c ****         /* Configure NAK status for the Endpoint */
 672:Drivers/STM32L5xx_HAL_Driver/Src/stm32l5xx_ll_usb.c ****         PCD_SET_EP_RX_STATUS(USBx, ep->num, USB_EP_RX_NAK);
 1696              		.loc 1 672 9 is_stmt 1 view .LVU591
 1697              	.LBB62:
 1698              		.loc 1 672 9 view .LVU592
 1699              		.loc 1 672 9 view .LVU593
 1700 0010 0A78     		ldrb	r2, [r1]	@ zero_extendqisi2
 1701 0012 30F82230 		ldrh	r3, [r0, r2, lsl #2]
ARM GAS  /tmp/ccQg3iPh.s 			page 46


 1702 0016 9BB2     		uxth	r3, r3
 1703 0018 23F48043 		bic	r3, r3, #16384
 1704 001c 23F07003 		bic	r3, r3, #112
 1705              	.LVL202:
 1706              		.loc 1 672 9 view .LVU594
 1707              		.loc 1 672 9 view .LVU595
 1708              		.loc 1 672 9 view .LVU596
 1709 0020 83F40053 		eor	r3, r3, #8192
 1710              	.LVL203:
 1711              		.loc 1 672 9 view .LVU597
 1712 0024 43F40043 		orr	r3, r3, #32768
 1713              	.LVL204:
 1714              		.loc 1 672 9 is_stmt 0 view .LVU598
 1715 0028 43F08003 		orr	r3, r3, #128
 1716 002c 20F82230 		strh	r3, [r0, r2, lsl #2]	@ movhi
 1717              	.LBE62:
 1718              		.loc 1 672 9 is_stmt 1 view .LVU599
 1719              	.LVL205:
 1720              	.L60:
 673:Drivers/STM32L5xx_HAL_Driver/Src/stm32l5xx_ll_usb.c ****       }
 674:Drivers/STM32L5xx_HAL_Driver/Src/stm32l5xx_ll_usb.c ****       else
 675:Drivers/STM32L5xx_HAL_Driver/Src/stm32l5xx_ll_usb.c ****       {
 676:Drivers/STM32L5xx_HAL_Driver/Src/stm32l5xx_ll_usb.c ****         /* Configure RX Endpoint to disabled state */
 677:Drivers/STM32L5xx_HAL_Driver/Src/stm32l5xx_ll_usb.c ****         PCD_SET_EP_RX_STATUS(USBx, ep->num, USB_EP_RX_DIS);
 1721              		.loc 1 677 9 discriminator 7 view .LVU600
 678:Drivers/STM32L5xx_HAL_Driver/Src/stm32l5xx_ll_usb.c ****       }
 679:Drivers/STM32L5xx_HAL_Driver/Src/stm32l5xx_ll_usb.c ****     }
 680:Drivers/STM32L5xx_HAL_Driver/Src/stm32l5xx_ll_usb.c ****   }
 681:Drivers/STM32L5xx_HAL_Driver/Src/stm32l5xx_ll_usb.c **** 
 682:Drivers/STM32L5xx_HAL_Driver/Src/stm32l5xx_ll_usb.c ****   return HAL_OK;
 1722              		.loc 1 682 3 discriminator 7 view .LVU601
 683:Drivers/STM32L5xx_HAL_Driver/Src/stm32l5xx_ll_usb.c **** }
 1723              		.loc 1 683 1 is_stmt 0 discriminator 7 view .LVU602
 1724 0030 0020     		movs	r0, #0
 1725              	.LVL206:
 1726              		.loc 1 683 1 discriminator 7 view .LVU603
 1727 0032 7047     		bx	lr
 1728              	.LVL207:
 1729              	.L63:
 651:Drivers/STM32L5xx_HAL_Driver/Src/stm32l5xx_ll_usb.c ****     {
 1730              		.loc 1 651 5 is_stmt 1 view .LVU604
 651:Drivers/STM32L5xx_HAL_Driver/Src/stm32l5xx_ll_usb.c ****     {
 1731              		.loc 1 651 11 is_stmt 0 view .LVU605
 1732 0034 0B7B     		ldrb	r3, [r1, #12]	@ zero_extendqisi2
 651:Drivers/STM32L5xx_HAL_Driver/Src/stm32l5xx_ll_usb.c ****     {
 1733              		.loc 1 651 8 view .LVU606
 1734 0036 002B     		cmp	r3, #0
 1735 0038 FAD1     		bne	.L60
 653:Drivers/STM32L5xx_HAL_Driver/Src/stm32l5xx_ll_usb.c ****       {
 1736              		.loc 1 653 7 is_stmt 1 view .LVU607
 653:Drivers/STM32L5xx_HAL_Driver/Src/stm32l5xx_ll_usb.c ****       {
 1737              		.loc 1 653 13 is_stmt 0 view .LVU608
 1738 003a CB78     		ldrb	r3, [r1, #3]	@ zero_extendqisi2
 653:Drivers/STM32L5xx_HAL_Driver/Src/stm32l5xx_ll_usb.c ****       {
 1739              		.loc 1 653 10 view .LVU609
 1740 003c 012B     		cmp	r3, #1
 1741 003e 10D0     		beq	.L61
ARM GAS  /tmp/ccQg3iPh.s 			page 47


 656:Drivers/STM32L5xx_HAL_Driver/Src/stm32l5xx_ll_usb.c ****       }
 1742              		.loc 1 656 9 is_stmt 1 view .LVU610
 1743              	.LBB63:
 656:Drivers/STM32L5xx_HAL_Driver/Src/stm32l5xx_ll_usb.c ****       }
 1744              		.loc 1 656 9 view .LVU611
 656:Drivers/STM32L5xx_HAL_Driver/Src/stm32l5xx_ll_usb.c ****       }
 1745              		.loc 1 656 9 view .LVU612
 1746 0040 0A78     		ldrb	r2, [r1]	@ zero_extendqisi2
 1747 0042 30F82230 		ldrh	r3, [r0, r2, lsl #2]
 1748 0046 9BB2     		uxth	r3, r3
 1749 0048 23F4E043 		bic	r3, r3, #28672
 1750 004c 23F04003 		bic	r3, r3, #64
 1751              	.LVL208:
 656:Drivers/STM32L5xx_HAL_Driver/Src/stm32l5xx_ll_usb.c ****       }
 1752              		.loc 1 656 9 view .LVU613
 656:Drivers/STM32L5xx_HAL_Driver/Src/stm32l5xx_ll_usb.c ****       }
 1753              		.loc 1 656 9 view .LVU614
 656:Drivers/STM32L5xx_HAL_Driver/Src/stm32l5xx_ll_usb.c ****       }
 1754              		.loc 1 656 9 view .LVU615
 1755 0050 83F02003 		eor	r3, r3, #32
 1756              	.LVL209:
 656:Drivers/STM32L5xx_HAL_Driver/Src/stm32l5xx_ll_usb.c ****       }
 1757              		.loc 1 656 9 view .LVU616
 1758 0054 43F40043 		orr	r3, r3, #32768
 1759              	.LVL210:
 656:Drivers/STM32L5xx_HAL_Driver/Src/stm32l5xx_ll_usb.c ****       }
 1760              		.loc 1 656 9 is_stmt 0 view .LVU617
 1761 0058 43F08003 		orr	r3, r3, #128
 1762 005c 20F82230 		strh	r3, [r0, r2, lsl #2]	@ movhi
 1763              	.LBE63:
 656:Drivers/STM32L5xx_HAL_Driver/Src/stm32l5xx_ll_usb.c ****       }
 1764              		.loc 1 656 9 is_stmt 1 view .LVU618
 1765 0060 E6E7     		b	.L60
 1766              	.LVL211:
 1767              	.L61:
 661:Drivers/STM32L5xx_HAL_Driver/Src/stm32l5xx_ll_usb.c ****       }
 1768              		.loc 1 661 9 view .LVU619
 1769              	.LBB64:
 661:Drivers/STM32L5xx_HAL_Driver/Src/stm32l5xx_ll_usb.c ****       }
 1770              		.loc 1 661 9 view .LVU620
 661:Drivers/STM32L5xx_HAL_Driver/Src/stm32l5xx_ll_usb.c ****       }
 1771              		.loc 1 661 9 view .LVU621
 1772 0062 0A78     		ldrb	r2, [r1]	@ zero_extendqisi2
 1773 0064 30F82230 		ldrh	r3, [r0, r2, lsl #2]
 1774 0068 9BB2     		uxth	r3, r3
 1775 006a 23F4E043 		bic	r3, r3, #28672
 1776 006e 23F04003 		bic	r3, r3, #64
 1777              	.LVL212:
 661:Drivers/STM32L5xx_HAL_Driver/Src/stm32l5xx_ll_usb.c ****       }
 1778              		.loc 1 661 9 view .LVU622
 661:Drivers/STM32L5xx_HAL_Driver/Src/stm32l5xx_ll_usb.c ****       }
 1779              		.loc 1 661 9 view .LVU623
 661:Drivers/STM32L5xx_HAL_Driver/Src/stm32l5xx_ll_usb.c ****       }
 1780              		.loc 1 661 9 view .LVU624
 1781 0072 43F40043 		orr	r3, r3, #32768
 1782              	.LVL213:
 661:Drivers/STM32L5xx_HAL_Driver/Src/stm32l5xx_ll_usb.c ****       }
ARM GAS  /tmp/ccQg3iPh.s 			page 48


 1783              		.loc 1 661 9 is_stmt 0 view .LVU625
 1784 0076 43F08003 		orr	r3, r3, #128
 1785 007a 20F82230 		strh	r3, [r0, r2, lsl #2]	@ movhi
 1786 007e D7E7     		b	.L60
 1787              	.LVL214:
 1788              	.L62:
 661:Drivers/STM32L5xx_HAL_Driver/Src/stm32l5xx_ll_usb.c ****       }
 1789              		.loc 1 661 9 view .LVU626
 1790              	.LBE64:
 677:Drivers/STM32L5xx_HAL_Driver/Src/stm32l5xx_ll_usb.c ****       }
 1791              		.loc 1 677 9 is_stmt 1 view .LVU627
 1792              	.LBB65:
 677:Drivers/STM32L5xx_HAL_Driver/Src/stm32l5xx_ll_usb.c ****       }
 1793              		.loc 1 677 9 view .LVU628
 677:Drivers/STM32L5xx_HAL_Driver/Src/stm32l5xx_ll_usb.c ****       }
 1794              		.loc 1 677 9 view .LVU629
 1795 0080 0A78     		ldrb	r2, [r1]	@ zero_extendqisi2
 1796 0082 30F82230 		ldrh	r3, [r0, r2, lsl #2]
 1797 0086 9BB2     		uxth	r3, r3
 1798 0088 23F48043 		bic	r3, r3, #16384
 1799 008c 23F07003 		bic	r3, r3, #112
 1800              	.LVL215:
 677:Drivers/STM32L5xx_HAL_Driver/Src/stm32l5xx_ll_usb.c ****       }
 1801              		.loc 1 677 9 view .LVU630
 677:Drivers/STM32L5xx_HAL_Driver/Src/stm32l5xx_ll_usb.c ****       }
 1802              		.loc 1 677 9 view .LVU631
 677:Drivers/STM32L5xx_HAL_Driver/Src/stm32l5xx_ll_usb.c ****       }
 1803              		.loc 1 677 9 view .LVU632
 1804 0090 43F40043 		orr	r3, r3, #32768
 1805              	.LVL216:
 677:Drivers/STM32L5xx_HAL_Driver/Src/stm32l5xx_ll_usb.c ****       }
 1806              		.loc 1 677 9 is_stmt 0 view .LVU633
 1807 0094 43F08003 		orr	r3, r3, #128
 1808 0098 20F82230 		strh	r3, [r0, r2, lsl #2]	@ movhi
 1809 009c C8E7     		b	.L60
 1810              	.LBE65:
 1811              		.cfi_endproc
 1812              	.LFE162:
 1814              		.section	.text.USB_StopDevice,"ax",%progbits
 1815              		.align	1
 1816              		.global	USB_StopDevice
 1817              		.syntax unified
 1818              		.thumb
 1819              		.thumb_func
 1821              	USB_StopDevice:
 1822              	.LVL217:
 1823              	.LFB163:
 684:Drivers/STM32L5xx_HAL_Driver/Src/stm32l5xx_ll_usb.c **** #endif /* defined (HAL_PCD_MODULE_ENABLED) */
 685:Drivers/STM32L5xx_HAL_Driver/Src/stm32l5xx_ll_usb.c **** 
 686:Drivers/STM32L5xx_HAL_Driver/Src/stm32l5xx_ll_usb.c **** /**
 687:Drivers/STM32L5xx_HAL_Driver/Src/stm32l5xx_ll_usb.c ****   * @brief  USB_StopDevice Stop the usb device mode
 688:Drivers/STM32L5xx_HAL_Driver/Src/stm32l5xx_ll_usb.c ****   * @param  USBx Selected device
 689:Drivers/STM32L5xx_HAL_Driver/Src/stm32l5xx_ll_usb.c ****   * @retval HAL status
 690:Drivers/STM32L5xx_HAL_Driver/Src/stm32l5xx_ll_usb.c ****   */
 691:Drivers/STM32L5xx_HAL_Driver/Src/stm32l5xx_ll_usb.c **** HAL_StatusTypeDef USB_StopDevice(USB_TypeDef *USBx)
 692:Drivers/STM32L5xx_HAL_Driver/Src/stm32l5xx_ll_usb.c **** {
 1824              		.loc 1 692 1 is_stmt 1 view -0
ARM GAS  /tmp/ccQg3iPh.s 			page 49


 1825              		.cfi_startproc
 1826              		@ args = 0, pretend = 0, frame = 0
 1827              		@ frame_needed = 0, uses_anonymous_args = 0
 1828              		@ link register save eliminated.
 1829              		.loc 1 692 1 is_stmt 0 view .LVU635
 1830 0000 0346     		mov	r3, r0
 693:Drivers/STM32L5xx_HAL_Driver/Src/stm32l5xx_ll_usb.c ****   /* disable all interrupts and force USB reset */
 694:Drivers/STM32L5xx_HAL_Driver/Src/stm32l5xx_ll_usb.c ****   USBx->CNTR = (uint16_t)USB_CNTR_FRES;
 1831              		.loc 1 694 3 is_stmt 1 view .LVU636
 1832              		.loc 1 694 14 is_stmt 0 view .LVU637
 1833 0002 0122     		movs	r2, #1
 1834 0004 A0F84020 		strh	r2, [r0, #64]	@ movhi
 695:Drivers/STM32L5xx_HAL_Driver/Src/stm32l5xx_ll_usb.c **** 
 696:Drivers/STM32L5xx_HAL_Driver/Src/stm32l5xx_ll_usb.c ****   /* clear interrupt status register */
 697:Drivers/STM32L5xx_HAL_Driver/Src/stm32l5xx_ll_usb.c ****   USBx->ISTR = 0U;
 1835              		.loc 1 697 3 is_stmt 1 view .LVU638
 1836              		.loc 1 697 14 is_stmt 0 view .LVU639
 1837 0008 0020     		movs	r0, #0
 1838              	.LVL218:
 1839              		.loc 1 697 14 view .LVU640
 1840 000a A3F84400 		strh	r0, [r3, #68]	@ movhi
 698:Drivers/STM32L5xx_HAL_Driver/Src/stm32l5xx_ll_usb.c **** 
 699:Drivers/STM32L5xx_HAL_Driver/Src/stm32l5xx_ll_usb.c ****   /* switch-off device */
 700:Drivers/STM32L5xx_HAL_Driver/Src/stm32l5xx_ll_usb.c ****   USBx->CNTR = (uint16_t)(USB_CNTR_FRES | USB_CNTR_PDWN);
 1841              		.loc 1 700 3 is_stmt 1 view .LVU641
 1842              		.loc 1 700 14 is_stmt 0 view .LVU642
 1843 000e 0322     		movs	r2, #3
 1844 0010 A3F84020 		strh	r2, [r3, #64]	@ movhi
 701:Drivers/STM32L5xx_HAL_Driver/Src/stm32l5xx_ll_usb.c **** 
 702:Drivers/STM32L5xx_HAL_Driver/Src/stm32l5xx_ll_usb.c ****   return HAL_OK;
 1845              		.loc 1 702 3 is_stmt 1 view .LVU643
 703:Drivers/STM32L5xx_HAL_Driver/Src/stm32l5xx_ll_usb.c **** }
 1846              		.loc 1 703 1 is_stmt 0 view .LVU644
 1847 0014 7047     		bx	lr
 1848              		.cfi_endproc
 1849              	.LFE163:
 1851              		.section	.text.USB_SetDevAddress,"ax",%progbits
 1852              		.align	1
 1853              		.global	USB_SetDevAddress
 1854              		.syntax unified
 1855              		.thumb
 1856              		.thumb_func
 1858              	USB_SetDevAddress:
 1859              	.LVL219:
 1860              	.LFB164:
 704:Drivers/STM32L5xx_HAL_Driver/Src/stm32l5xx_ll_usb.c **** 
 705:Drivers/STM32L5xx_HAL_Driver/Src/stm32l5xx_ll_usb.c **** /**
 706:Drivers/STM32L5xx_HAL_Driver/Src/stm32l5xx_ll_usb.c ****   * @brief  USB_SetDevAddress Stop the usb device mode
 707:Drivers/STM32L5xx_HAL_Driver/Src/stm32l5xx_ll_usb.c ****   * @param  USBx Selected device
 708:Drivers/STM32L5xx_HAL_Driver/Src/stm32l5xx_ll_usb.c ****   * @param  address new device address to be assigned
 709:Drivers/STM32L5xx_HAL_Driver/Src/stm32l5xx_ll_usb.c ****   *          This parameter can be a value from 0 to 255
 710:Drivers/STM32L5xx_HAL_Driver/Src/stm32l5xx_ll_usb.c ****   * @retval HAL status
 711:Drivers/STM32L5xx_HAL_Driver/Src/stm32l5xx_ll_usb.c ****   */
 712:Drivers/STM32L5xx_HAL_Driver/Src/stm32l5xx_ll_usb.c **** HAL_StatusTypeDef  USB_SetDevAddress(USB_TypeDef *USBx, uint8_t address)
 713:Drivers/STM32L5xx_HAL_Driver/Src/stm32l5xx_ll_usb.c **** {
 1861              		.loc 1 713 1 is_stmt 1 view -0
 1862              		.cfi_startproc
ARM GAS  /tmp/ccQg3iPh.s 			page 50


 1863              		@ args = 0, pretend = 0, frame = 0
 1864              		@ frame_needed = 0, uses_anonymous_args = 0
 1865              		@ link register save eliminated.
 714:Drivers/STM32L5xx_HAL_Driver/Src/stm32l5xx_ll_usb.c ****   if (address == 0U)
 1866              		.loc 1 714 3 view .LVU646
 1867              		.loc 1 714 6 is_stmt 0 view .LVU647
 1868 0000 11B9     		cbnz	r1, .L66
 715:Drivers/STM32L5xx_HAL_Driver/Src/stm32l5xx_ll_usb.c ****   {
 716:Drivers/STM32L5xx_HAL_Driver/Src/stm32l5xx_ll_usb.c ****     /* set device address and enable function */
 717:Drivers/STM32L5xx_HAL_Driver/Src/stm32l5xx_ll_usb.c ****     USBx->DADDR = (uint16_t)USB_DADDR_EF;
 1869              		.loc 1 717 5 is_stmt 1 view .LVU648
 1870              		.loc 1 717 17 is_stmt 0 view .LVU649
 1871 0002 8023     		movs	r3, #128
 1872 0004 A0F84C30 		strh	r3, [r0, #76]	@ movhi
 1873              	.L66:
 718:Drivers/STM32L5xx_HAL_Driver/Src/stm32l5xx_ll_usb.c ****   }
 719:Drivers/STM32L5xx_HAL_Driver/Src/stm32l5xx_ll_usb.c **** 
 720:Drivers/STM32L5xx_HAL_Driver/Src/stm32l5xx_ll_usb.c ****   return HAL_OK;
 1874              		.loc 1 720 3 is_stmt 1 view .LVU650
 721:Drivers/STM32L5xx_HAL_Driver/Src/stm32l5xx_ll_usb.c **** }
 1875              		.loc 1 721 1 is_stmt 0 view .LVU651
 1876 0008 0020     		movs	r0, #0
 1877              	.LVL220:
 1878              		.loc 1 721 1 view .LVU652
 1879 000a 7047     		bx	lr
 1880              		.cfi_endproc
 1881              	.LFE164:
 1883              		.section	.text.USB_DevConnect,"ax",%progbits
 1884              		.align	1
 1885              		.global	USB_DevConnect
 1886              		.syntax unified
 1887              		.thumb
 1888              		.thumb_func
 1890              	USB_DevConnect:
 1891              	.LVL221:
 1892              	.LFB165:
 722:Drivers/STM32L5xx_HAL_Driver/Src/stm32l5xx_ll_usb.c **** 
 723:Drivers/STM32L5xx_HAL_Driver/Src/stm32l5xx_ll_usb.c **** /**
 724:Drivers/STM32L5xx_HAL_Driver/Src/stm32l5xx_ll_usb.c ****   * @brief  USB_DevConnect Connect the USB device by enabling the pull-up/pull-down
 725:Drivers/STM32L5xx_HAL_Driver/Src/stm32l5xx_ll_usb.c ****   * @param  USBx Selected device
 726:Drivers/STM32L5xx_HAL_Driver/Src/stm32l5xx_ll_usb.c ****   * @retval HAL status
 727:Drivers/STM32L5xx_HAL_Driver/Src/stm32l5xx_ll_usb.c ****   */
 728:Drivers/STM32L5xx_HAL_Driver/Src/stm32l5xx_ll_usb.c **** HAL_StatusTypeDef  USB_DevConnect(USB_TypeDef *USBx)
 729:Drivers/STM32L5xx_HAL_Driver/Src/stm32l5xx_ll_usb.c **** {
 1893              		.loc 1 729 1 is_stmt 1 view -0
 1894              		.cfi_startproc
 1895              		@ args = 0, pretend = 0, frame = 0
 1896              		@ frame_needed = 0, uses_anonymous_args = 0
 1897              		@ link register save eliminated.
 730:Drivers/STM32L5xx_HAL_Driver/Src/stm32l5xx_ll_usb.c ****   /* Enabling DP Pull-UP bit to Connect internal PU resistor on USB DP line */
 731:Drivers/STM32L5xx_HAL_Driver/Src/stm32l5xx_ll_usb.c ****   USBx->BCDR |= (uint16_t)USB_BCDR_DPPU;
 1898              		.loc 1 731 3 view .LVU654
 1899              		.loc 1 731 7 is_stmt 0 view .LVU655
 1900 0000 B0F85830 		ldrh	r3, [r0, #88]
 1901              		.loc 1 731 14 view .LVU656
 1902 0004 6FEA4343 		mvn	r3, r3, lsl #17
 1903 0008 6FEA5343 		mvn	r3, r3, lsr #17
ARM GAS  /tmp/ccQg3iPh.s 			page 51


 1904 000c 9BB2     		uxth	r3, r3
 1905 000e A0F85830 		strh	r3, [r0, #88]	@ movhi
 732:Drivers/STM32L5xx_HAL_Driver/Src/stm32l5xx_ll_usb.c **** 
 733:Drivers/STM32L5xx_HAL_Driver/Src/stm32l5xx_ll_usb.c ****   return HAL_OK;
 1906              		.loc 1 733 3 is_stmt 1 view .LVU657
 734:Drivers/STM32L5xx_HAL_Driver/Src/stm32l5xx_ll_usb.c **** }
 1907              		.loc 1 734 1 is_stmt 0 view .LVU658
 1908 0012 0020     		movs	r0, #0
 1909              	.LVL222:
 1910              		.loc 1 734 1 view .LVU659
 1911 0014 7047     		bx	lr
 1912              		.cfi_endproc
 1913              	.LFE165:
 1915              		.section	.text.USB_DevDisconnect,"ax",%progbits
 1916              		.align	1
 1917              		.global	USB_DevDisconnect
 1918              		.syntax unified
 1919              		.thumb
 1920              		.thumb_func
 1922              	USB_DevDisconnect:
 1923              	.LVL223:
 1924              	.LFB166:
 735:Drivers/STM32L5xx_HAL_Driver/Src/stm32l5xx_ll_usb.c **** 
 736:Drivers/STM32L5xx_HAL_Driver/Src/stm32l5xx_ll_usb.c **** /**
 737:Drivers/STM32L5xx_HAL_Driver/Src/stm32l5xx_ll_usb.c ****   * @brief  USB_DevDisconnect Disconnect the USB device by disabling the pull-up/pull-down
 738:Drivers/STM32L5xx_HAL_Driver/Src/stm32l5xx_ll_usb.c ****   * @param  USBx Selected device
 739:Drivers/STM32L5xx_HAL_Driver/Src/stm32l5xx_ll_usb.c ****   * @retval HAL status
 740:Drivers/STM32L5xx_HAL_Driver/Src/stm32l5xx_ll_usb.c ****   */
 741:Drivers/STM32L5xx_HAL_Driver/Src/stm32l5xx_ll_usb.c **** HAL_StatusTypeDef  USB_DevDisconnect(USB_TypeDef *USBx)
 742:Drivers/STM32L5xx_HAL_Driver/Src/stm32l5xx_ll_usb.c **** {
 1925              		.loc 1 742 1 is_stmt 1 view -0
 1926              		.cfi_startproc
 1927              		@ args = 0, pretend = 0, frame = 0
 1928              		@ frame_needed = 0, uses_anonymous_args = 0
 1929              		@ link register save eliminated.
 743:Drivers/STM32L5xx_HAL_Driver/Src/stm32l5xx_ll_usb.c ****   /* Disable DP Pull-Up bit to disconnect the Internal PU resistor on USB DP line */
 744:Drivers/STM32L5xx_HAL_Driver/Src/stm32l5xx_ll_usb.c ****   USBx->BCDR &= (uint16_t)(~(USB_BCDR_DPPU));
 1930              		.loc 1 744 3 view .LVU661
 1931              		.loc 1 744 7 is_stmt 0 view .LVU662
 1932 0000 B0F85830 		ldrh	r3, [r0, #88]
 1933              		.loc 1 744 14 view .LVU663
 1934 0004 C3F30E03 		ubfx	r3, r3, #0, #15
 1935 0008 A0F85830 		strh	r3, [r0, #88]	@ movhi
 745:Drivers/STM32L5xx_HAL_Driver/Src/stm32l5xx_ll_usb.c **** 
 746:Drivers/STM32L5xx_HAL_Driver/Src/stm32l5xx_ll_usb.c ****   return HAL_OK;
 1936              		.loc 1 746 3 is_stmt 1 view .LVU664
 747:Drivers/STM32L5xx_HAL_Driver/Src/stm32l5xx_ll_usb.c **** }
 1937              		.loc 1 747 1 is_stmt 0 view .LVU665
 1938 000c 0020     		movs	r0, #0
 1939              	.LVL224:
 1940              		.loc 1 747 1 view .LVU666
 1941 000e 7047     		bx	lr
 1942              		.cfi_endproc
 1943              	.LFE166:
 1945              		.section	.text.USB_ReadInterrupts,"ax",%progbits
 1946              		.align	1
 1947              		.global	USB_ReadInterrupts
ARM GAS  /tmp/ccQg3iPh.s 			page 52


 1948              		.syntax unified
 1949              		.thumb
 1950              		.thumb_func
 1952              	USB_ReadInterrupts:
 1953              	.LVL225:
 1954              	.LFB167:
 748:Drivers/STM32L5xx_HAL_Driver/Src/stm32l5xx_ll_usb.c **** 
 749:Drivers/STM32L5xx_HAL_Driver/Src/stm32l5xx_ll_usb.c **** /**
 750:Drivers/STM32L5xx_HAL_Driver/Src/stm32l5xx_ll_usb.c ****   * @brief  USB_ReadInterrupts return the global USB interrupt status
 751:Drivers/STM32L5xx_HAL_Driver/Src/stm32l5xx_ll_usb.c ****   * @param  USBx Selected device
 752:Drivers/STM32L5xx_HAL_Driver/Src/stm32l5xx_ll_usb.c ****   * @retval USB Global Interrupt status
 753:Drivers/STM32L5xx_HAL_Driver/Src/stm32l5xx_ll_usb.c ****   */
 754:Drivers/STM32L5xx_HAL_Driver/Src/stm32l5xx_ll_usb.c **** uint32_t USB_ReadInterrupts(USB_TypeDef *USBx)
 755:Drivers/STM32L5xx_HAL_Driver/Src/stm32l5xx_ll_usb.c **** {
 1955              		.loc 1 755 1 is_stmt 1 view -0
 1956              		.cfi_startproc
 1957              		@ args = 0, pretend = 0, frame = 0
 1958              		@ frame_needed = 0, uses_anonymous_args = 0
 1959              		@ link register save eliminated.
 756:Drivers/STM32L5xx_HAL_Driver/Src/stm32l5xx_ll_usb.c ****   uint32_t tmpreg;
 1960              		.loc 1 756 3 view .LVU668
 757:Drivers/STM32L5xx_HAL_Driver/Src/stm32l5xx_ll_usb.c **** 
 758:Drivers/STM32L5xx_HAL_Driver/Src/stm32l5xx_ll_usb.c ****   tmpreg = USBx->ISTR;
 1961              		.loc 1 758 3 view .LVU669
 1962              		.loc 1 758 16 is_stmt 0 view .LVU670
 1963 0000 B0F84400 		ldrh	r0, [r0, #68]
 1964              	.LVL226:
 759:Drivers/STM32L5xx_HAL_Driver/Src/stm32l5xx_ll_usb.c ****   return tmpreg;
 1965              		.loc 1 759 3 is_stmt 1 view .LVU671
 760:Drivers/STM32L5xx_HAL_Driver/Src/stm32l5xx_ll_usb.c **** }
 1966              		.loc 1 760 1 is_stmt 0 view .LVU672
 1967 0004 80B2     		uxth	r0, r0
 1968              	.LVL227:
 1969              		.loc 1 760 1 view .LVU673
 1970 0006 7047     		bx	lr
 1971              		.cfi_endproc
 1972              	.LFE167:
 1974              		.section	.text.USB_ActivateRemoteWakeup,"ax",%progbits
 1975              		.align	1
 1976              		.global	USB_ActivateRemoteWakeup
 1977              		.syntax unified
 1978              		.thumb
 1979              		.thumb_func
 1981              	USB_ActivateRemoteWakeup:
 1982              	.LVL228:
 1983              	.LFB168:
 761:Drivers/STM32L5xx_HAL_Driver/Src/stm32l5xx_ll_usb.c **** 
 762:Drivers/STM32L5xx_HAL_Driver/Src/stm32l5xx_ll_usb.c **** /**
 763:Drivers/STM32L5xx_HAL_Driver/Src/stm32l5xx_ll_usb.c ****   * @brief  USB_ActivateRemoteWakeup : active remote wakeup signalling
 764:Drivers/STM32L5xx_HAL_Driver/Src/stm32l5xx_ll_usb.c ****   * @param  USBx Selected device
 765:Drivers/STM32L5xx_HAL_Driver/Src/stm32l5xx_ll_usb.c ****   * @retval HAL status
 766:Drivers/STM32L5xx_HAL_Driver/Src/stm32l5xx_ll_usb.c ****   */
 767:Drivers/STM32L5xx_HAL_Driver/Src/stm32l5xx_ll_usb.c **** HAL_StatusTypeDef USB_ActivateRemoteWakeup(USB_TypeDef *USBx)
 768:Drivers/STM32L5xx_HAL_Driver/Src/stm32l5xx_ll_usb.c **** {
 1984              		.loc 1 768 1 is_stmt 1 view -0
 1985              		.cfi_startproc
 1986              		@ args = 0, pretend = 0, frame = 0
ARM GAS  /tmp/ccQg3iPh.s 			page 53


 1987              		@ frame_needed = 0, uses_anonymous_args = 0
 1988              		@ link register save eliminated.
 769:Drivers/STM32L5xx_HAL_Driver/Src/stm32l5xx_ll_usb.c ****   USBx->CNTR |= (uint16_t)USB_CNTR_RESUME;
 1989              		.loc 1 769 3 view .LVU675
 1990              		.loc 1 769 7 is_stmt 0 view .LVU676
 1991 0000 B0F84030 		ldrh	r3, [r0, #64]
 1992 0004 9BB2     		uxth	r3, r3
 1993              		.loc 1 769 14 view .LVU677
 1994 0006 43F01003 		orr	r3, r3, #16
 1995 000a A0F84030 		strh	r3, [r0, #64]	@ movhi
 770:Drivers/STM32L5xx_HAL_Driver/Src/stm32l5xx_ll_usb.c **** 
 771:Drivers/STM32L5xx_HAL_Driver/Src/stm32l5xx_ll_usb.c ****   return HAL_OK;
 1996              		.loc 1 771 3 is_stmt 1 view .LVU678
 772:Drivers/STM32L5xx_HAL_Driver/Src/stm32l5xx_ll_usb.c **** }
 1997              		.loc 1 772 1 is_stmt 0 view .LVU679
 1998 000e 0020     		movs	r0, #0
 1999              	.LVL229:
 2000              		.loc 1 772 1 view .LVU680
 2001 0010 7047     		bx	lr
 2002              		.cfi_endproc
 2003              	.LFE168:
 2005              		.section	.text.USB_DeActivateRemoteWakeup,"ax",%progbits
 2006              		.align	1
 2007              		.global	USB_DeActivateRemoteWakeup
 2008              		.syntax unified
 2009              		.thumb
 2010              		.thumb_func
 2012              	USB_DeActivateRemoteWakeup:
 2013              	.LVL230:
 2014              	.LFB169:
 773:Drivers/STM32L5xx_HAL_Driver/Src/stm32l5xx_ll_usb.c **** 
 774:Drivers/STM32L5xx_HAL_Driver/Src/stm32l5xx_ll_usb.c **** /**
 775:Drivers/STM32L5xx_HAL_Driver/Src/stm32l5xx_ll_usb.c ****   * @brief  USB_DeActivateRemoteWakeup de-active remote wakeup signalling
 776:Drivers/STM32L5xx_HAL_Driver/Src/stm32l5xx_ll_usb.c ****   * @param  USBx Selected device
 777:Drivers/STM32L5xx_HAL_Driver/Src/stm32l5xx_ll_usb.c ****   * @retval HAL status
 778:Drivers/STM32L5xx_HAL_Driver/Src/stm32l5xx_ll_usb.c ****   */
 779:Drivers/STM32L5xx_HAL_Driver/Src/stm32l5xx_ll_usb.c **** HAL_StatusTypeDef USB_DeActivateRemoteWakeup(USB_TypeDef *USBx)
 780:Drivers/STM32L5xx_HAL_Driver/Src/stm32l5xx_ll_usb.c **** {
 2015              		.loc 1 780 1 is_stmt 1 view -0
 2016              		.cfi_startproc
 2017              		@ args = 0, pretend = 0, frame = 0
 2018              		@ frame_needed = 0, uses_anonymous_args = 0
 2019              		@ link register save eliminated.
 781:Drivers/STM32L5xx_HAL_Driver/Src/stm32l5xx_ll_usb.c ****   USBx->CNTR &= (uint16_t)(~USB_CNTR_RESUME);
 2020              		.loc 1 781 3 view .LVU682
 2021              		.loc 1 781 7 is_stmt 0 view .LVU683
 2022 0000 B0F84030 		ldrh	r3, [r0, #64]
 2023 0004 9BB2     		uxth	r3, r3
 2024              		.loc 1 781 14 view .LVU684
 2025 0006 23F01003 		bic	r3, r3, #16
 2026 000a 9BB2     		uxth	r3, r3
 2027 000c A0F84030 		strh	r3, [r0, #64]	@ movhi
 782:Drivers/STM32L5xx_HAL_Driver/Src/stm32l5xx_ll_usb.c **** 
 783:Drivers/STM32L5xx_HAL_Driver/Src/stm32l5xx_ll_usb.c ****   return HAL_OK;
 2028              		.loc 1 783 3 is_stmt 1 view .LVU685
 784:Drivers/STM32L5xx_HAL_Driver/Src/stm32l5xx_ll_usb.c **** }
 2029              		.loc 1 784 1 is_stmt 0 view .LVU686
ARM GAS  /tmp/ccQg3iPh.s 			page 54


 2030 0010 0020     		movs	r0, #0
 2031              	.LVL231:
 2032              		.loc 1 784 1 view .LVU687
 2033 0012 7047     		bx	lr
 2034              		.cfi_endproc
 2035              	.LFE169:
 2037              		.section	.text.USB_WritePMA,"ax",%progbits
 2038              		.align	1
 2039              		.global	USB_WritePMA
 2040              		.syntax unified
 2041              		.thumb
 2042              		.thumb_func
 2044              	USB_WritePMA:
 2045              	.LVL232:
 2046              	.LFB170:
 785:Drivers/STM32L5xx_HAL_Driver/Src/stm32l5xx_ll_usb.c **** 
 786:Drivers/STM32L5xx_HAL_Driver/Src/stm32l5xx_ll_usb.c **** /**
 787:Drivers/STM32L5xx_HAL_Driver/Src/stm32l5xx_ll_usb.c ****   * @brief Copy a buffer from user memory area to packet memory area (PMA)
 788:Drivers/STM32L5xx_HAL_Driver/Src/stm32l5xx_ll_usb.c ****   * @param   USBx USB peripheral instance register address.
 789:Drivers/STM32L5xx_HAL_Driver/Src/stm32l5xx_ll_usb.c ****   * @param   pbUsrBuf pointer to user memory area.
 790:Drivers/STM32L5xx_HAL_Driver/Src/stm32l5xx_ll_usb.c ****   * @param   wPMABufAddr address into PMA.
 791:Drivers/STM32L5xx_HAL_Driver/Src/stm32l5xx_ll_usb.c ****   * @param   wNBytes no. of bytes to be copied.
 792:Drivers/STM32L5xx_HAL_Driver/Src/stm32l5xx_ll_usb.c ****   * @retval None
 793:Drivers/STM32L5xx_HAL_Driver/Src/stm32l5xx_ll_usb.c ****   */
 794:Drivers/STM32L5xx_HAL_Driver/Src/stm32l5xx_ll_usb.c **** void USB_WritePMA(USB_TypeDef *USBx, uint8_t *pbUsrBuf, uint16_t wPMABufAddr, uint16_t wNBytes)
 795:Drivers/STM32L5xx_HAL_Driver/Src/stm32l5xx_ll_usb.c **** {
 2047              		.loc 1 795 1 is_stmt 1 view -0
 2048              		.cfi_startproc
 2049              		@ args = 0, pretend = 0, frame = 0
 2050              		@ frame_needed = 0, uses_anonymous_args = 0
 2051              		@ link register save eliminated.
 796:Drivers/STM32L5xx_HAL_Driver/Src/stm32l5xx_ll_usb.c ****   uint32_t n = ((uint32_t)wNBytes + 1U) >> 1;
 2052              		.loc 1 796 3 view .LVU689
 2053              		.loc 1 796 35 is_stmt 0 view .LVU690
 2054 0000 0133     		adds	r3, r3, #1
 2055              	.LVL233:
 2056              		.loc 1 796 12 view .LVU691
 2057 0002 5B08     		lsrs	r3, r3, #1
 2058              	.LVL234:
 797:Drivers/STM32L5xx_HAL_Driver/Src/stm32l5xx_ll_usb.c ****   uint32_t BaseAddr = (uint32_t)USBx;
 2059              		.loc 1 797 3 is_stmt 1 view .LVU692
 798:Drivers/STM32L5xx_HAL_Driver/Src/stm32l5xx_ll_usb.c ****   uint32_t count;
 2060              		.loc 1 798 3 view .LVU693
 799:Drivers/STM32L5xx_HAL_Driver/Src/stm32l5xx_ll_usb.c ****   uint16_t WrVal;
 2061              		.loc 1 799 3 view .LVU694
 800:Drivers/STM32L5xx_HAL_Driver/Src/stm32l5xx_ll_usb.c ****   __IO uint16_t *pdwVal;
 2062              		.loc 1 800 3 view .LVU695
 801:Drivers/STM32L5xx_HAL_Driver/Src/stm32l5xx_ll_usb.c ****   uint8_t *pBuf = pbUsrBuf;
 2063              		.loc 1 801 3 view .LVU696
 802:Drivers/STM32L5xx_HAL_Driver/Src/stm32l5xx_ll_usb.c **** 
 803:Drivers/STM32L5xx_HAL_Driver/Src/stm32l5xx_ll_usb.c ****   pdwVal = (__IO uint16_t *)(BaseAddr + 0x400U + ((uint32_t)wPMABufAddr * PMA_ACCESS));
 2064              		.loc 1 803 3 view .LVU697
 2065              		.loc 1 803 48 is_stmt 0 view .LVU698
 2066 0004 0244     		add	r2, r2, r0
 2067              	.LVL235:
 2068              		.loc 1 803 48 view .LVU699
 2069 0006 02F58062 		add	r2, r2, #1024
ARM GAS  /tmp/ccQg3iPh.s 			page 55


 2070              	.LVL236:
 804:Drivers/STM32L5xx_HAL_Driver/Src/stm32l5xx_ll_usb.c **** 
 805:Drivers/STM32L5xx_HAL_Driver/Src/stm32l5xx_ll_usb.c ****   for (count = n; count != 0U; count--)
 2071              		.loc 1 805 3 is_stmt 1 view .LVU700
 2072              		.loc 1 805 3 is_stmt 0 view .LVU701
 2073 000a 08E0     		b	.L73
 2074              	.LVL237:
 2075              	.L74:
 806:Drivers/STM32L5xx_HAL_Driver/Src/stm32l5xx_ll_usb.c ****   {
 807:Drivers/STM32L5xx_HAL_Driver/Src/stm32l5xx_ll_usb.c ****     WrVal = pBuf[0];
 2076              		.loc 1 807 5 is_stmt 1 discriminator 3 view .LVU702
 2077              		.loc 1 807 17 is_stmt 0 discriminator 3 view .LVU703
 2078 000c 0878     		ldrb	r0, [r1]	@ zero_extendqisi2
 2079              	.LVL238:
 808:Drivers/STM32L5xx_HAL_Driver/Src/stm32l5xx_ll_usb.c ****     WrVal |= (uint16_t)pBuf[1] << 8;
 2080              		.loc 1 808 5 is_stmt 1 discriminator 3 view .LVU704
 2081              		.loc 1 808 28 is_stmt 0 discriminator 3 view .LVU705
 2082 000e 91F801C0 		ldrb	ip, [r1, #1]	@ zero_extendqisi2
 2083              		.loc 1 808 11 discriminator 3 view .LVU706
 2084 0012 40EA0C20 		orr	r0, r0, ip, lsl #8
 2085              	.LVL239:
 809:Drivers/STM32L5xx_HAL_Driver/Src/stm32l5xx_ll_usb.c ****     *pdwVal = (WrVal & 0xFFFFU);
 2086              		.loc 1 809 5 is_stmt 1 discriminator 3 view .LVU707
 2087              		.loc 1 809 13 is_stmt 0 discriminator 3 view .LVU708
 2088 0016 22F8020B 		strh	r0, [r2], #2	@ movhi
 2089              	.LVL240:
 810:Drivers/STM32L5xx_HAL_Driver/Src/stm32l5xx_ll_usb.c ****     pdwVal++;
 2090              		.loc 1 810 5 is_stmt 1 discriminator 3 view .LVU709
 811:Drivers/STM32L5xx_HAL_Driver/Src/stm32l5xx_ll_usb.c **** 
 812:Drivers/STM32L5xx_HAL_Driver/Src/stm32l5xx_ll_usb.c **** #if PMA_ACCESS > 1U
 813:Drivers/STM32L5xx_HAL_Driver/Src/stm32l5xx_ll_usb.c ****     pdwVal++;
 814:Drivers/STM32L5xx_HAL_Driver/Src/stm32l5xx_ll_usb.c **** #endif /* PMA_ACCESS */
 815:Drivers/STM32L5xx_HAL_Driver/Src/stm32l5xx_ll_usb.c **** 
 816:Drivers/STM32L5xx_HAL_Driver/Src/stm32l5xx_ll_usb.c ****     pBuf++;
 2091              		.loc 1 816 5 discriminator 3 view .LVU710
 817:Drivers/STM32L5xx_HAL_Driver/Src/stm32l5xx_ll_usb.c ****     pBuf++;
 2092              		.loc 1 817 5 discriminator 3 view .LVU711
 2093              		.loc 1 817 9 is_stmt 0 discriminator 3 view .LVU712
 2094 001a 0231     		adds	r1, r1, #2
 2095              	.LVL241:
 805:Drivers/STM32L5xx_HAL_Driver/Src/stm32l5xx_ll_usb.c ****   {
 2096              		.loc 1 805 37 is_stmt 1 discriminator 3 view .LVU713
 2097 001c 013B     		subs	r3, r3, #1
 2098              	.LVL242:
 2099              	.L73:
 805:Drivers/STM32L5xx_HAL_Driver/Src/stm32l5xx_ll_usb.c ****   {
 2100              		.loc 1 805 25 discriminator 1 view .LVU714
 2101 001e 002B     		cmp	r3, #0
 2102 0020 F4D1     		bne	.L74
 818:Drivers/STM32L5xx_HAL_Driver/Src/stm32l5xx_ll_usb.c ****   }
 819:Drivers/STM32L5xx_HAL_Driver/Src/stm32l5xx_ll_usb.c **** }
 2103              		.loc 1 819 1 is_stmt 0 view .LVU715
 2104 0022 7047     		bx	lr
 2105              		.cfi_endproc
 2106              	.LFE170:
 2108              		.section	.text.USB_EPStartXfer,"ax",%progbits
 2109              		.align	1
ARM GAS  /tmp/ccQg3iPh.s 			page 56


 2110              		.global	USB_EPStartXfer
 2111              		.syntax unified
 2112              		.thumb
 2113              		.thumb_func
 2115              	USB_EPStartXfer:
 2116              	.LVL243:
 2117              	.LFB159:
 375:Drivers/STM32L5xx_HAL_Driver/Src/stm32l5xx_ll_usb.c ****   uint32_t len;
 2118              		.loc 1 375 1 is_stmt 1 view -0
 2119              		.cfi_startproc
 2120              		@ args = 0, pretend = 0, frame = 0
 2121              		@ frame_needed = 0, uses_anonymous_args = 0
 375:Drivers/STM32L5xx_HAL_Driver/Src/stm32l5xx_ll_usb.c ****   uint32_t len;
 2122              		.loc 1 375 1 is_stmt 0 view .LVU717
 2123 0000 70B5     		push	{r4, r5, r6, lr}
 2124              	.LCFI5:
 2125              		.cfi_def_cfa_offset 16
 2126              		.cfi_offset 4, -16
 2127              		.cfi_offset 5, -12
 2128              		.cfi_offset 6, -8
 2129              		.cfi_offset 14, -4
 2130 0002 0546     		mov	r5, r0
 2131 0004 0C46     		mov	r4, r1
 376:Drivers/STM32L5xx_HAL_Driver/Src/stm32l5xx_ll_usb.c **** #if (USE_USB_DOUBLE_BUFFER == 1U)
 2132              		.loc 1 376 3 is_stmt 1 view .LVU718
 378:Drivers/STM32L5xx_HAL_Driver/Src/stm32l5xx_ll_usb.c ****   uint16_t wEPVal;
 2133              		.loc 1 378 3 view .LVU719
 379:Drivers/STM32L5xx_HAL_Driver/Src/stm32l5xx_ll_usb.c **** #endif /* (USE_USB_DOUBLE_BUFFER == 1U) */
 2134              		.loc 1 379 3 view .LVU720
 383:Drivers/STM32L5xx_HAL_Driver/Src/stm32l5xx_ll_usb.c ****   {
 2135              		.loc 1 383 3 view .LVU721
 383:Drivers/STM32L5xx_HAL_Driver/Src/stm32l5xx_ll_usb.c ****   {
 2136              		.loc 1 383 9 is_stmt 0 view .LVU722
 2137 0006 4A78     		ldrb	r2, [r1, #1]	@ zero_extendqisi2
 383:Drivers/STM32L5xx_HAL_Driver/Src/stm32l5xx_ll_usb.c ****   {
 2138              		.loc 1 383 6 view .LVU723
 2139 0008 012A     		cmp	r2, #1
 2140 000a 3BD0     		beq	.L160
 519:Drivers/STM32L5xx_HAL_Driver/Src/stm32l5xx_ll_usb.c ****     {
 2141              		.loc 1 519 5 is_stmt 1 view .LVU724
 519:Drivers/STM32L5xx_HAL_Driver/Src/stm32l5xx_ll_usb.c ****     {
 2142              		.loc 1 519 11 is_stmt 0 view .LVU725
 2143 000c 0B7B     		ldrb	r3, [r1, #12]	@ zero_extendqisi2
 519:Drivers/STM32L5xx_HAL_Driver/Src/stm32l5xx_ll_usb.c ****     {
 2144              		.loc 1 519 8 view .LVU726
 2145 000e 002B     		cmp	r3, #0
 2146 0010 40F0A682 		bne	.L125
 522:Drivers/STM32L5xx_HAL_Driver/Src/stm32l5xx_ll_usb.c ****       {
 2147              		.loc 1 522 7 is_stmt 1 view .LVU727
 522:Drivers/STM32L5xx_HAL_Driver/Src/stm32l5xx_ll_usb.c ****       {
 2148              		.loc 1 522 13 is_stmt 0 view .LVU728
 2149 0014 8B69     		ldr	r3, [r1, #24]
 522:Drivers/STM32L5xx_HAL_Driver/Src/stm32l5xx_ll_usb.c ****       {
 2150              		.loc 1 522 28 view .LVU729
 2151 0016 0A69     		ldr	r2, [r1, #16]
 522:Drivers/STM32L5xx_HAL_Driver/Src/stm32l5xx_ll_usb.c ****       {
 2152              		.loc 1 522 10 view .LVU730
ARM GAS  /tmp/ccQg3iPh.s 			page 57


 2153 0018 9342     		cmp	r3, r2
 2154 001a 40F28482 		bls	.L126
 524:Drivers/STM32L5xx_HAL_Driver/Src/stm32l5xx_ll_usb.c ****         ep->xfer_len -= len;
 2155              		.loc 1 524 9 is_stmt 1 view .LVU731
 2156              	.LVL244:
 525:Drivers/STM32L5xx_HAL_Driver/Src/stm32l5xx_ll_usb.c ****       }
 2157              		.loc 1 525 9 view .LVU732
 525:Drivers/STM32L5xx_HAL_Driver/Src/stm32l5xx_ll_usb.c ****       }
 2158              		.loc 1 525 22 is_stmt 0 view .LVU733
 2159 001e 9B1A     		subs	r3, r3, r2
 2160 0020 8B61     		str	r3, [r1, #24]
 2161              	.L127:
 533:Drivers/STM32L5xx_HAL_Driver/Src/stm32l5xx_ll_usb.c ****     }
 2162              		.loc 1 533 7 is_stmt 1 view .LVU734
 2163              	.LBB66:
 533:Drivers/STM32L5xx_HAL_Driver/Src/stm32l5xx_ll_usb.c ****     }
 2164              		.loc 1 533 7 view .LVU735
 2165              	.LVL245:
 533:Drivers/STM32L5xx_HAL_Driver/Src/stm32l5xx_ll_usb.c ****     }
 2166              		.loc 1 533 7 view .LVU736
 533:Drivers/STM32L5xx_HAL_Driver/Src/stm32l5xx_ll_usb.c ****     }
 2167              		.loc 1 533 7 view .LVU737
 2168 0022 B5F85030 		ldrh	r3, [r5, #80]
 2169 0026 15FA83F3 		uxtah	r3, r5, r3
 2170              	.LVL246:
 533:Drivers/STM32L5xx_HAL_Driver/Src/stm32l5xx_ll_usb.c ****     }
 2171              		.loc 1 533 7 view .LVU738
 2172 002a 2178     		ldrb	r1, [r4]	@ zero_extendqisi2
 2173              	.LVL247:
 533:Drivers/STM32L5xx_HAL_Driver/Src/stm32l5xx_ll_usb.c ****     }
 2174              		.loc 1 533 7 is_stmt 0 view .LVU739
 2175 002c 03EBC103 		add	r3, r3, r1, lsl #3
 2176              	.LVL248:
 533:Drivers/STM32L5xx_HAL_Driver/Src/stm32l5xx_ll_usb.c ****     }
 2177              		.loc 1 533 7 is_stmt 1 view .LVU740
 2178              	.LBB67:
 533:Drivers/STM32L5xx_HAL_Driver/Src/stm32l5xx_ll_usb.c ****     }
 2179              		.loc 1 533 7 view .LVU741
 533:Drivers/STM32L5xx_HAL_Driver/Src/stm32l5xx_ll_usb.c ****     }
 2180              		.loc 1 533 7 view .LVU742
 2181 0030 B3F80614 		ldrh	r1, [r3, #1030]
 2182 0034 C1F30901 		ubfx	r1, r1, #0, #10
 2183 0038 A3F80614 		strh	r1, [r3, #1030]	@ movhi
 533:Drivers/STM32L5xx_HAL_Driver/Src/stm32l5xx_ll_usb.c ****     }
 2184              		.loc 1 533 7 view .LVU743
 2185 003c 3E2A     		cmp	r2, #62
 2186 003e 40F27682 		bls	.L128
 533:Drivers/STM32L5xx_HAL_Driver/Src/stm32l5xx_ll_usb.c ****     }
 2187              		.loc 1 533 7 discriminator 1 view .LVU744
 533:Drivers/STM32L5xx_HAL_Driver/Src/stm32l5xx_ll_usb.c ****     }
 2188              		.loc 1 533 7 discriminator 1 view .LVU745
 2189 0042 5109     		lsrs	r1, r2, #5
 2190              	.LVL249:
 533:Drivers/STM32L5xx_HAL_Driver/Src/stm32l5xx_ll_usb.c ****     }
 2191              		.loc 1 533 7 discriminator 1 view .LVU746
 2192 0044 12F01F0F 		tst	r2, #31
 2193 0048 00D1     		bne	.L129
ARM GAS  /tmp/ccQg3iPh.s 			page 58


 533:Drivers/STM32L5xx_HAL_Driver/Src/stm32l5xx_ll_usb.c ****     }
 2194              		.loc 1 533 7 discriminator 3 view .LVU747
 2195 004a 0139     		subs	r1, r1, #1
 2196              	.LVL250:
 2197              	.L129:
 533:Drivers/STM32L5xx_HAL_Driver/Src/stm32l5xx_ll_usb.c ****     }
 2198              		.loc 1 533 7 discriminator 5 view .LVU748
 2199 004c B3F80624 		ldrh	r2, [r3, #1030]
 2200              	.LVL251:
 533:Drivers/STM32L5xx_HAL_Driver/Src/stm32l5xx_ll_usb.c ****     }
 2201              		.loc 1 533 7 is_stmt 0 discriminator 5 view .LVU749
 2202 0050 92B2     		uxth	r2, r2
 2203 0052 8902     		lsls	r1, r1, #10
 2204              	.LVL252:
 533:Drivers/STM32L5xx_HAL_Driver/Src/stm32l5xx_ll_usb.c ****     }
 2205              		.loc 1 533 7 discriminator 5 view .LVU750
 2206 0054 89B2     		uxth	r1, r1
 2207 0056 0A43     		orrs	r2, r2, r1
 2208 0058 42F40042 		orr	r2, r2, #32768
 2209 005c A3F80624 		strh	r2, [r3, #1030]	@ movhi
 533:Drivers/STM32L5xx_HAL_Driver/Src/stm32l5xx_ll_usb.c ****     }
 2210              		.loc 1 533 7 is_stmt 1 discriminator 5 view .LVU751
 2211              	.LVL253:
 2212              	.L130:
 533:Drivers/STM32L5xx_HAL_Driver/Src/stm32l5xx_ll_usb.c ****     }
 2213              		.loc 1 533 7 is_stmt 0 discriminator 5 view .LVU752
 2214              	.LBE67:
 2215              	.LBE66:
 581:Drivers/STM32L5xx_HAL_Driver/Src/stm32l5xx_ll_usb.c ****   }
 2216              		.loc 1 581 5 is_stmt 1 view .LVU753
 2217              	.LBB69:
 581:Drivers/STM32L5xx_HAL_Driver/Src/stm32l5xx_ll_usb.c ****   }
 2218              		.loc 1 581 5 view .LVU754
 581:Drivers/STM32L5xx_HAL_Driver/Src/stm32l5xx_ll_usb.c ****   }
 2219              		.loc 1 581 5 view .LVU755
 2220 0060 2278     		ldrb	r2, [r4]	@ zero_extendqisi2
 2221 0062 35F82230 		ldrh	r3, [r5, r2, lsl #2]
 2222 0066 9BB2     		uxth	r3, r3
 2223 0068 23F48043 		bic	r3, r3, #16384
 2224 006c 23F07003 		bic	r3, r3, #112
 2225              	.LVL254:
 581:Drivers/STM32L5xx_HAL_Driver/Src/stm32l5xx_ll_usb.c ****   }
 2226              		.loc 1 581 5 view .LVU756
 581:Drivers/STM32L5xx_HAL_Driver/Src/stm32l5xx_ll_usb.c ****   }
 2227              		.loc 1 581 5 view .LVU757
 581:Drivers/STM32L5xx_HAL_Driver/Src/stm32l5xx_ll_usb.c ****   }
 2228              		.loc 1 581 5 view .LVU758
 581:Drivers/STM32L5xx_HAL_Driver/Src/stm32l5xx_ll_usb.c ****   }
 2229              		.loc 1 581 5 view .LVU759
 2230 0070 83F44053 		eor	r3, r3, #12288
 2231              	.LVL255:
 581:Drivers/STM32L5xx_HAL_Driver/Src/stm32l5xx_ll_usb.c ****   }
 2232              		.loc 1 581 5 view .LVU760
 2233 0074 43F40043 		orr	r3, r3, #32768
 2234              	.LVL256:
 581:Drivers/STM32L5xx_HAL_Driver/Src/stm32l5xx_ll_usb.c ****   }
 2235              		.loc 1 581 5 is_stmt 0 view .LVU761
ARM GAS  /tmp/ccQg3iPh.s 			page 59


 2236 0078 43F08003 		orr	r3, r3, #128
 2237 007c 25F82230 		strh	r3, [r5, r2, lsl #2]	@ movhi
 2238              	.LBE69:
 584:Drivers/STM32L5xx_HAL_Driver/Src/stm32l5xx_ll_usb.c **** }
 2239              		.loc 1 584 10 view .LVU762
 2240 0080 0020     		movs	r0, #0
 2241              	.LVL257:
 2242              	.L124:
 585:Drivers/STM32L5xx_HAL_Driver/Src/stm32l5xx_ll_usb.c **** 
 2243              		.loc 1 585 1 view .LVU763
 2244 0082 70BD     		pop	{r4, r5, r6, pc}
 2245              	.LVL258:
 2246              	.L160:
 386:Drivers/STM32L5xx_HAL_Driver/Src/stm32l5xx_ll_usb.c ****     {
 2247              		.loc 1 386 5 is_stmt 1 view .LVU764
 386:Drivers/STM32L5xx_HAL_Driver/Src/stm32l5xx_ll_usb.c ****     {
 2248              		.loc 1 386 11 is_stmt 0 view .LVU765
 2249 0084 8E69     		ldr	r6, [r1, #24]
 386:Drivers/STM32L5xx_HAL_Driver/Src/stm32l5xx_ll_usb.c ****     {
 2250              		.loc 1 386 26 view .LVU766
 2251 0086 0969     		ldr	r1, [r1, #16]
 2252              	.LVL259:
 386:Drivers/STM32L5xx_HAL_Driver/Src/stm32l5xx_ll_usb.c ****     {
 2253              		.loc 1 386 8 view .LVU767
 2254 0088 8E42     		cmp	r6, r1
 2255 008a 00D9     		bls	.L77
 388:Drivers/STM32L5xx_HAL_Driver/Src/stm32l5xx_ll_usb.c ****     }
 2256              		.loc 1 388 11 view .LVU768
 2257 008c 0E46     		mov	r6, r1
 2258              	.L77:
 2259              	.LVL260:
 396:Drivers/STM32L5xx_HAL_Driver/Src/stm32l5xx_ll_usb.c ****     {
 2260              		.loc 1 396 5 is_stmt 1 view .LVU769
 396:Drivers/STM32L5xx_HAL_Driver/Src/stm32l5xx_ll_usb.c ****     {
 2261              		.loc 1 396 11 is_stmt 0 view .LVU770
 2262 008e 237B     		ldrb	r3, [r4, #12]	@ zero_extendqisi2
 396:Drivers/STM32L5xx_HAL_Driver/Src/stm32l5xx_ll_usb.c ****     {
 2263              		.loc 1 396 8 view .LVU771
 2264 0090 73B3     		cbz	r3, .L161
 405:Drivers/STM32L5xx_HAL_Driver/Src/stm32l5xx_ll_usb.c ****       {
 2265              		.loc 1 405 7 is_stmt 1 view .LVU772
 405:Drivers/STM32L5xx_HAL_Driver/Src/stm32l5xx_ll_usb.c ****       {
 2266              		.loc 1 405 13 is_stmt 0 view .LVU773
 2267 0092 E378     		ldrb	r3, [r4, #3]	@ zero_extendqisi2
 405:Drivers/STM32L5xx_HAL_Driver/Src/stm32l5xx_ll_usb.c ****       {
 2268              		.loc 1 405 10 view .LVU774
 2269 0094 022B     		cmp	r3, #2
 2270 0096 4DD0     		beq	.L162
 490:Drivers/STM32L5xx_HAL_Driver/Src/stm32l5xx_ll_usb.c **** 
 2271              		.loc 1 490 9 is_stmt 1 view .LVU775
 490:Drivers/STM32L5xx_HAL_Driver/Src/stm32l5xx_ll_usb.c **** 
 2272              		.loc 1 490 11 is_stmt 0 view .LVU776
 2273 0098 236A     		ldr	r3, [r4, #32]
 490:Drivers/STM32L5xx_HAL_Driver/Src/stm32l5xx_ll_usb.c **** 
 2274              		.loc 1 490 25 view .LVU777
 2275 009a 9B1B     		subs	r3, r3, r6
 2276 009c 2362     		str	r3, [r4, #32]
ARM GAS  /tmp/ccQg3iPh.s 			page 60


 493:Drivers/STM32L5xx_HAL_Driver/Src/stm32l5xx_ll_usb.c ****         {
 2277              		.loc 1 493 9 is_stmt 1 view .LVU778
 493:Drivers/STM32L5xx_HAL_Driver/Src/stm32l5xx_ll_usb.c ****         {
 2278              		.loc 1 493 14 is_stmt 0 view .LVU779
 2279 009e 2378     		ldrb	r3, [r4]	@ zero_extendqisi2
 2280 00a0 35F82310 		ldrh	r1, [r5, r3, lsl #2]
 493:Drivers/STM32L5xx_HAL_Driver/Src/stm32l5xx_ll_usb.c ****         {
 2281              		.loc 1 493 12 view .LVU780
 2282 00a4 11F0400F 		tst	r1, #64
 2283 00a8 00F0F581 		beq	.L111
 496:Drivers/STM32L5xx_HAL_Driver/Src/stm32l5xx_ll_usb.c ****           pmabuffer = ep->pmaaddr1;
 2284              		.loc 1 496 11 is_stmt 1 view .LVU781
 2285              	.LBB70:
 496:Drivers/STM32L5xx_HAL_Driver/Src/stm32l5xx_ll_usb.c ****           pmabuffer = ep->pmaaddr1;
 2286              		.loc 1 496 11 view .LVU782
 2287              	.LVL261:
 496:Drivers/STM32L5xx_HAL_Driver/Src/stm32l5xx_ll_usb.c ****           pmabuffer = ep->pmaaddr1;
 2288              		.loc 1 496 11 view .LVU783
 496:Drivers/STM32L5xx_HAL_Driver/Src/stm32l5xx_ll_usb.c ****           pmabuffer = ep->pmaaddr1;
 2289              		.loc 1 496 11 view .LVU784
 2290 00ac 002A     		cmp	r2, #0
 2291 00ae 40F0E281 		bne	.L112
 496:Drivers/STM32L5xx_HAL_Driver/Src/stm32l5xx_ll_usb.c ****           pmabuffer = ep->pmaaddr1;
 2292              		.loc 1 496 11 discriminator 1 view .LVU785
 2293              	.LBB71:
 496:Drivers/STM32L5xx_HAL_Driver/Src/stm32l5xx_ll_usb.c ****           pmabuffer = ep->pmaaddr1;
 2294              		.loc 1 496 11 discriminator 1 view .LVU786
 2295              	.LVL262:
 496:Drivers/STM32L5xx_HAL_Driver/Src/stm32l5xx_ll_usb.c ****           pmabuffer = ep->pmaaddr1;
 2296              		.loc 1 496 11 discriminator 1 view .LVU787
 496:Drivers/STM32L5xx_HAL_Driver/Src/stm32l5xx_ll_usb.c ****           pmabuffer = ep->pmaaddr1;
 2297              		.loc 1 496 11 discriminator 1 view .LVU788
 2298 00b2 B5F85020 		ldrh	r2, [r5, #80]
 2299 00b6 15FA82F2 		uxtah	r2, r5, r2
 2300              	.LVL263:
 496:Drivers/STM32L5xx_HAL_Driver/Src/stm32l5xx_ll_usb.c ****           pmabuffer = ep->pmaaddr1;
 2301              		.loc 1 496 11 discriminator 1 view .LVU789
 2302 00ba 02EBC303 		add	r3, r2, r3, lsl #3
 2303              	.LVL264:
 496:Drivers/STM32L5xx_HAL_Driver/Src/stm32l5xx_ll_usb.c ****           pmabuffer = ep->pmaaddr1;
 2304              		.loc 1 496 11 discriminator 1 view .LVU790
 2305              	.LBB72:
 496:Drivers/STM32L5xx_HAL_Driver/Src/stm32l5xx_ll_usb.c ****           pmabuffer = ep->pmaaddr1;
 2306              		.loc 1 496 11 discriminator 1 view .LVU791
 496:Drivers/STM32L5xx_HAL_Driver/Src/stm32l5xx_ll_usb.c ****           pmabuffer = ep->pmaaddr1;
 2307              		.loc 1 496 11 discriminator 1 view .LVU792
 2308 00be B3F80624 		ldrh	r2, [r3, #1030]
 2309              	.LVL265:
 496:Drivers/STM32L5xx_HAL_Driver/Src/stm32l5xx_ll_usb.c ****           pmabuffer = ep->pmaaddr1;
 2310              		.loc 1 496 11 is_stmt 0 discriminator 1 view .LVU793
 2311 00c2 C2F30902 		ubfx	r2, r2, #0, #10
 2312 00c6 A3F80624 		strh	r2, [r3, #1030]	@ movhi
 496:Drivers/STM32L5xx_HAL_Driver/Src/stm32l5xx_ll_usb.c ****           pmabuffer = ep->pmaaddr1;
 2313              		.loc 1 496 11 is_stmt 1 discriminator 1 view .LVU794
 2314 00ca 3E2E     		cmp	r6, #62
 2315 00cc 40F2BA81 		bls	.L113
 496:Drivers/STM32L5xx_HAL_Driver/Src/stm32l5xx_ll_usb.c ****           pmabuffer = ep->pmaaddr1;
ARM GAS  /tmp/ccQg3iPh.s 			page 61


 2316              		.loc 1 496 11 discriminator 3 view .LVU795
 496:Drivers/STM32L5xx_HAL_Driver/Src/stm32l5xx_ll_usb.c ****           pmabuffer = ep->pmaaddr1;
 2317              		.loc 1 496 11 discriminator 3 view .LVU796
 2318 00d0 7109     		lsrs	r1, r6, #5
 2319              	.LVL266:
 496:Drivers/STM32L5xx_HAL_Driver/Src/stm32l5xx_ll_usb.c ****           pmabuffer = ep->pmaaddr1;
 2320              		.loc 1 496 11 discriminator 3 view .LVU797
 2321 00d2 16F01F0F 		tst	r6, #31
 2322 00d6 00D1     		bne	.L114
 496:Drivers/STM32L5xx_HAL_Driver/Src/stm32l5xx_ll_usb.c ****           pmabuffer = ep->pmaaddr1;
 2323              		.loc 1 496 11 discriminator 5 view .LVU798
 2324 00d8 0139     		subs	r1, r1, #1
 2325              	.LVL267:
 2326              	.L114:
 496:Drivers/STM32L5xx_HAL_Driver/Src/stm32l5xx_ll_usb.c ****           pmabuffer = ep->pmaaddr1;
 2327              		.loc 1 496 11 discriminator 7 view .LVU799
 2328 00da B3F80624 		ldrh	r2, [r3, #1030]
 2329 00de 92B2     		uxth	r2, r2
 2330 00e0 8902     		lsls	r1, r1, #10
 2331              	.LVL268:
 496:Drivers/STM32L5xx_HAL_Driver/Src/stm32l5xx_ll_usb.c ****           pmabuffer = ep->pmaaddr1;
 2332              		.loc 1 496 11 is_stmt 0 discriminator 7 view .LVU800
 2333 00e2 89B2     		uxth	r1, r1
 2334 00e4 0A43     		orrs	r2, r2, r1
 2335 00e6 42F40042 		orr	r2, r2, #32768
 2336 00ea A3F80624 		strh	r2, [r3, #1030]	@ movhi
 496:Drivers/STM32L5xx_HAL_Driver/Src/stm32l5xx_ll_usb.c ****           pmabuffer = ep->pmaaddr1;
 2337              		.loc 1 496 11 is_stmt 1 discriminator 7 view .LVU801
 2338 00ee CBE1     		b	.L115
 2339              	.LVL269:
 2340              	.L161:
 496:Drivers/STM32L5xx_HAL_Driver/Src/stm32l5xx_ll_usb.c ****           pmabuffer = ep->pmaaddr1;
 2341              		.loc 1 496 11 is_stmt 0 discriminator 7 view .LVU802
 2342              	.LBE72:
 2343              	.LBE71:
 2344              	.LBE70:
 398:Drivers/STM32L5xx_HAL_Driver/Src/stm32l5xx_ll_usb.c ****       PCD_SET_EP_TX_CNT(USBx, ep->num, len);
 2345              		.loc 1 398 7 is_stmt 1 view .LVU803
 2346 00f0 B6B2     		uxth	r6, r6
 2347              	.LVL270:
 398:Drivers/STM32L5xx_HAL_Driver/Src/stm32l5xx_ll_usb.c ****       PCD_SET_EP_TX_CNT(USBx, ep->num, len);
 2348              		.loc 1 398 7 is_stmt 0 view .LVU804
 2349 00f2 3346     		mov	r3, r6
 2350 00f4 E288     		ldrh	r2, [r4, #6]
 2351 00f6 6169     		ldr	r1, [r4, #20]
 2352 00f8 2846     		mov	r0, r5
 2353              	.LVL271:
 398:Drivers/STM32L5xx_HAL_Driver/Src/stm32l5xx_ll_usb.c ****       PCD_SET_EP_TX_CNT(USBx, ep->num, len);
 2354              		.loc 1 398 7 view .LVU805
 2355 00fa FFF7FEFF 		bl	USB_WritePMA
 2356              	.LVL272:
 399:Drivers/STM32L5xx_HAL_Driver/Src/stm32l5xx_ll_usb.c ****     }
 2357              		.loc 1 399 7 is_stmt 1 view .LVU806
 2358              	.LBB75:
 399:Drivers/STM32L5xx_HAL_Driver/Src/stm32l5xx_ll_usb.c ****     }
 2359              		.loc 1 399 7 view .LVU807
 399:Drivers/STM32L5xx_HAL_Driver/Src/stm32l5xx_ll_usb.c ****     }
ARM GAS  /tmp/ccQg3iPh.s 			page 62


 2360              		.loc 1 399 7 view .LVU808
 399:Drivers/STM32L5xx_HAL_Driver/Src/stm32l5xx_ll_usb.c ****     }
 2361              		.loc 1 399 7 view .LVU809
 2362 00fe B5F85030 		ldrh	r3, [r5, #80]
 2363 0102 15FA83F3 		uxtah	r3, r5, r3
 2364              	.LVL273:
 399:Drivers/STM32L5xx_HAL_Driver/Src/stm32l5xx_ll_usb.c ****     }
 2365              		.loc 1 399 7 view .LVU810
 2366 0106 2278     		ldrb	r2, [r4]	@ zero_extendqisi2
 2367 0108 03EBC203 		add	r3, r3, r2, lsl #3
 2368              	.LVL274:
 399:Drivers/STM32L5xx_HAL_Driver/Src/stm32l5xx_ll_usb.c ****     }
 2369              		.loc 1 399 7 view .LVU811
 2370 010c A3F80264 		strh	r6, [r3, #1026]	@ movhi
 2371              	.LBE75:
 399:Drivers/STM32L5xx_HAL_Driver/Src/stm32l5xx_ll_usb.c ****     }
 2372              		.loc 1 399 7 view .LVU812
 2373              	.LVL275:
 2374              	.L79:
 515:Drivers/STM32L5xx_HAL_Driver/Src/stm32l5xx_ll_usb.c ****   }
 2375              		.loc 1 515 5 view .LVU813
 2376              	.LBB76:
 515:Drivers/STM32L5xx_HAL_Driver/Src/stm32l5xx_ll_usb.c ****   }
 2377              		.loc 1 515 5 view .LVU814
 515:Drivers/STM32L5xx_HAL_Driver/Src/stm32l5xx_ll_usb.c ****   }
 2378              		.loc 1 515 5 view .LVU815
 2379 0110 2278     		ldrb	r2, [r4]	@ zero_extendqisi2
 2380 0112 35F82230 		ldrh	r3, [r5, r2, lsl #2]
 2381 0116 9BB2     		uxth	r3, r3
 2382 0118 23F4E043 		bic	r3, r3, #28672
 2383 011c 23F04003 		bic	r3, r3, #64
 2384              	.LVL276:
 515:Drivers/STM32L5xx_HAL_Driver/Src/stm32l5xx_ll_usb.c ****   }
 2385              		.loc 1 515 5 view .LVU816
 515:Drivers/STM32L5xx_HAL_Driver/Src/stm32l5xx_ll_usb.c ****   }
 2386              		.loc 1 515 5 view .LVU817
 515:Drivers/STM32L5xx_HAL_Driver/Src/stm32l5xx_ll_usb.c ****   }
 2387              		.loc 1 515 5 view .LVU818
 515:Drivers/STM32L5xx_HAL_Driver/Src/stm32l5xx_ll_usb.c ****   }
 2388              		.loc 1 515 5 view .LVU819
 2389 0120 83F03003 		eor	r3, r3, #48
 2390              	.LVL277:
 515:Drivers/STM32L5xx_HAL_Driver/Src/stm32l5xx_ll_usb.c ****   }
 2391              		.loc 1 515 5 view .LVU820
 2392 0124 43F40043 		orr	r3, r3, #32768
 2393              	.LVL278:
 515:Drivers/STM32L5xx_HAL_Driver/Src/stm32l5xx_ll_usb.c ****   }
 2394              		.loc 1 515 5 is_stmt 0 view .LVU821
 2395 0128 43F08003 		orr	r3, r3, #128
 2396 012c 25F82230 		strh	r3, [r5, r2, lsl #2]	@ movhi
 2397              	.LBE76:
 515:Drivers/STM32L5xx_HAL_Driver/Src/stm32l5xx_ll_usb.c ****   }
 2398              		.loc 1 515 5 is_stmt 1 view .LVU822
 584:Drivers/STM32L5xx_HAL_Driver/Src/stm32l5xx_ll_usb.c **** }
 2399              		.loc 1 584 10 is_stmt 0 view .LVU823
 2400 0130 0020     		movs	r0, #0
 2401 0132 A6E7     		b	.L124
ARM GAS  /tmp/ccQg3iPh.s 			page 63


 2402              	.LVL279:
 2403              	.L162:
 407:Drivers/STM32L5xx_HAL_Driver/Src/stm32l5xx_ll_usb.c ****         {
 2404              		.loc 1 407 9 is_stmt 1 view .LVU824
 407:Drivers/STM32L5xx_HAL_Driver/Src/stm32l5xx_ll_usb.c ****         {
 2405              		.loc 1 407 15 is_stmt 0 view .LVU825
 2406 0134 236A     		ldr	r3, [r4, #32]
 407:Drivers/STM32L5xx_HAL_Driver/Src/stm32l5xx_ll_usb.c ****         {
 2407              		.loc 1 407 12 view .LVU826
 2408 0136 9942     		cmp	r1, r3
 2409 0138 80F06681 		bcs	.L81
 410:Drivers/STM32L5xx_HAL_Driver/Src/stm32l5xx_ll_usb.c **** 
 2410              		.loc 1 410 11 is_stmt 1 view .LVU827
 2411              	.LBB77:
 410:Drivers/STM32L5xx_HAL_Driver/Src/stm32l5xx_ll_usb.c **** 
 2412              		.loc 1 410 11 view .LVU828
 410:Drivers/STM32L5xx_HAL_Driver/Src/stm32l5xx_ll_usb.c **** 
 2413              		.loc 1 410 11 view .LVU829
 2414 013c 2278     		ldrb	r2, [r4]	@ zero_extendqisi2
 2415 013e 35F82230 		ldrh	r3, [r5, r2, lsl #2]
 2416 0142 9BB2     		uxth	r3, r3
 2417 0144 23F4E043 		bic	r3, r3, #28672
 2418 0148 23F07003 		bic	r3, r3, #112
 2419              	.LVL280:
 410:Drivers/STM32L5xx_HAL_Driver/Src/stm32l5xx_ll_usb.c **** 
 2420              		.loc 1 410 11 view .LVU830
 2421 014c 43F40143 		orr	r3, r3, #33024
 2422              	.LVL281:
 410:Drivers/STM32L5xx_HAL_Driver/Src/stm32l5xx_ll_usb.c **** 
 2423              		.loc 1 410 11 is_stmt 0 view .LVU831
 2424 0150 43F08003 		orr	r3, r3, #128
 2425 0154 25F82230 		strh	r3, [r5, r2, lsl #2]	@ movhi
 2426              	.LBE77:
 410:Drivers/STM32L5xx_HAL_Driver/Src/stm32l5xx_ll_usb.c **** 
 2427              		.loc 1 410 11 is_stmt 1 view .LVU832
 413:Drivers/STM32L5xx_HAL_Driver/Src/stm32l5xx_ll_usb.c **** 
 2428              		.loc 1 413 11 view .LVU833
 413:Drivers/STM32L5xx_HAL_Driver/Src/stm32l5xx_ll_usb.c **** 
 2429              		.loc 1 413 13 is_stmt 0 view .LVU834
 2430 0158 236A     		ldr	r3, [r4, #32]
 413:Drivers/STM32L5xx_HAL_Driver/Src/stm32l5xx_ll_usb.c **** 
 2431              		.loc 1 413 27 view .LVU835
 2432 015a 9B1B     		subs	r3, r3, r6
 2433 015c 2362     		str	r3, [r4, #32]
 416:Drivers/STM32L5xx_HAL_Driver/Src/stm32l5xx_ll_usb.c ****           {
 2434              		.loc 1 416 11 is_stmt 1 view .LVU836
 416:Drivers/STM32L5xx_HAL_Driver/Src/stm32l5xx_ll_usb.c ****           {
 2435              		.loc 1 416 16 is_stmt 0 view .LVU837
 2436 015e 2378     		ldrb	r3, [r4]	@ zero_extendqisi2
 2437 0160 35F82320 		ldrh	r2, [r5, r3, lsl #2]
 416:Drivers/STM32L5xx_HAL_Driver/Src/stm32l5xx_ll_usb.c ****           {
 2438              		.loc 1 416 14 view .LVU838
 2439 0164 12F0400F 		tst	r2, #64
 2440 0168 00F0A780 		beq	.L82
 419:Drivers/STM32L5xx_HAL_Driver/Src/stm32l5xx_ll_usb.c ****             pmabuffer = ep->pmaaddr1;
 2441              		.loc 1 419 13 is_stmt 1 view .LVU839
 2442              	.LBB78:
ARM GAS  /tmp/ccQg3iPh.s 			page 64


 419:Drivers/STM32L5xx_HAL_Driver/Src/stm32l5xx_ll_usb.c ****             pmabuffer = ep->pmaaddr1;
 2443              		.loc 1 419 13 view .LVU840
 2444              	.LVL282:
 419:Drivers/STM32L5xx_HAL_Driver/Src/stm32l5xx_ll_usb.c ****             pmabuffer = ep->pmaaddr1;
 2445              		.loc 1 419 13 view .LVU841
 419:Drivers/STM32L5xx_HAL_Driver/Src/stm32l5xx_ll_usb.c ****             pmabuffer = ep->pmaaddr1;
 2446              		.loc 1 419 13 view .LVU842
 2447 016c 6278     		ldrb	r2, [r4, #1]	@ zero_extendqisi2
 2448 016e B2BB     		cbnz	r2, .L83
 419:Drivers/STM32L5xx_HAL_Driver/Src/stm32l5xx_ll_usb.c ****             pmabuffer = ep->pmaaddr1;
 2449              		.loc 1 419 13 discriminator 1 view .LVU843
 2450              	.LBB79:
 419:Drivers/STM32L5xx_HAL_Driver/Src/stm32l5xx_ll_usb.c ****             pmabuffer = ep->pmaaddr1;
 2451              		.loc 1 419 13 discriminator 1 view .LVU844
 2452              	.LVL283:
 419:Drivers/STM32L5xx_HAL_Driver/Src/stm32l5xx_ll_usb.c ****             pmabuffer = ep->pmaaddr1;
 2453              		.loc 1 419 13 discriminator 1 view .LVU845
 419:Drivers/STM32L5xx_HAL_Driver/Src/stm32l5xx_ll_usb.c ****             pmabuffer = ep->pmaaddr1;
 2454              		.loc 1 419 13 discriminator 1 view .LVU846
 2455 0170 B5F85020 		ldrh	r2, [r5, #80]
 2456 0174 15FA82F2 		uxtah	r2, r5, r2
 2457              	.LVL284:
 419:Drivers/STM32L5xx_HAL_Driver/Src/stm32l5xx_ll_usb.c ****             pmabuffer = ep->pmaaddr1;
 2458              		.loc 1 419 13 discriminator 1 view .LVU847
 2459 0178 02EBC303 		add	r3, r2, r3, lsl #3
 2460              	.LVL285:
 419:Drivers/STM32L5xx_HAL_Driver/Src/stm32l5xx_ll_usb.c ****             pmabuffer = ep->pmaaddr1;
 2461              		.loc 1 419 13 discriminator 1 view .LVU848
 2462              	.LBB80:
 419:Drivers/STM32L5xx_HAL_Driver/Src/stm32l5xx_ll_usb.c ****             pmabuffer = ep->pmaaddr1;
 2463              		.loc 1 419 13 discriminator 1 view .LVU849
 419:Drivers/STM32L5xx_HAL_Driver/Src/stm32l5xx_ll_usb.c ****             pmabuffer = ep->pmaaddr1;
 2464              		.loc 1 419 13 discriminator 1 view .LVU850
 2465 017c B3F80624 		ldrh	r2, [r3, #1030]
 2466              	.LVL286:
 419:Drivers/STM32L5xx_HAL_Driver/Src/stm32l5xx_ll_usb.c ****             pmabuffer = ep->pmaaddr1;
 2467              		.loc 1 419 13 is_stmt 0 discriminator 1 view .LVU851
 2468 0180 C2F30902 		ubfx	r2, r2, #0, #10
 2469 0184 A3F80624 		strh	r2, [r3, #1030]	@ movhi
 419:Drivers/STM32L5xx_HAL_Driver/Src/stm32l5xx_ll_usb.c ****             pmabuffer = ep->pmaaddr1;
 2470              		.loc 1 419 13 is_stmt 1 discriminator 1 view .LVU852
 2471 0188 3E2E     		cmp	r6, #62
 2472 018a 0FD9     		bls	.L84
 419:Drivers/STM32L5xx_HAL_Driver/Src/stm32l5xx_ll_usb.c ****             pmabuffer = ep->pmaaddr1;
 2473              		.loc 1 419 13 discriminator 3 view .LVU853
 419:Drivers/STM32L5xx_HAL_Driver/Src/stm32l5xx_ll_usb.c ****             pmabuffer = ep->pmaaddr1;
 2474              		.loc 1 419 13 discriminator 3 view .LVU854
 2475 018c 7109     		lsrs	r1, r6, #5
 2476              	.LVL287:
 419:Drivers/STM32L5xx_HAL_Driver/Src/stm32l5xx_ll_usb.c ****             pmabuffer = ep->pmaaddr1;
 2477              		.loc 1 419 13 discriminator 3 view .LVU855
 2478 018e 16F01F0F 		tst	r6, #31
 2479 0192 00D1     		bne	.L85
 419:Drivers/STM32L5xx_HAL_Driver/Src/stm32l5xx_ll_usb.c ****             pmabuffer = ep->pmaaddr1;
 2480              		.loc 1 419 13 discriminator 5 view .LVU856
 2481 0194 0139     		subs	r1, r1, #1
 2482              	.LVL288:
ARM GAS  /tmp/ccQg3iPh.s 			page 65


 2483              	.L85:
 419:Drivers/STM32L5xx_HAL_Driver/Src/stm32l5xx_ll_usb.c ****             pmabuffer = ep->pmaaddr1;
 2484              		.loc 1 419 13 discriminator 7 view .LVU857
 2485 0196 B3F80624 		ldrh	r2, [r3, #1030]
 2486 019a 92B2     		uxth	r2, r2
 2487 019c 8902     		lsls	r1, r1, #10
 2488              	.LVL289:
 419:Drivers/STM32L5xx_HAL_Driver/Src/stm32l5xx_ll_usb.c ****             pmabuffer = ep->pmaaddr1;
 2489              		.loc 1 419 13 is_stmt 0 discriminator 7 view .LVU858
 2490 019e 89B2     		uxth	r1, r1
 2491 01a0 0A43     		orrs	r2, r2, r1
 2492 01a2 42F40042 		orr	r2, r2, #32768
 2493 01a6 A3F80624 		strh	r2, [r3, #1030]	@ movhi
 419:Drivers/STM32L5xx_HAL_Driver/Src/stm32l5xx_ll_usb.c ****             pmabuffer = ep->pmaaddr1;
 2494              		.loc 1 419 13 is_stmt 1 discriminator 7 view .LVU859
 2495 01aa 1AE0     		b	.L86
 2496              	.LVL290:
 2497              	.L84:
 419:Drivers/STM32L5xx_HAL_Driver/Src/stm32l5xx_ll_usb.c ****             pmabuffer = ep->pmaaddr1;
 2498              		.loc 1 419 13 discriminator 4 view .LVU860
 2499 01ac 4EB9     		cbnz	r6, .L87
 419:Drivers/STM32L5xx_HAL_Driver/Src/stm32l5xx_ll_usb.c ****             pmabuffer = ep->pmaaddr1;
 2500              		.loc 1 419 13 discriminator 9 view .LVU861
 2501 01ae B3F80624 		ldrh	r2, [r3, #1030]
 2502 01b2 6FEA4242 		mvn	r2, r2, lsl #17
 2503 01b6 6FEA5242 		mvn	r2, r2, lsr #17
 2504 01ba 92B2     		uxth	r2, r2
 2505 01bc A3F80624 		strh	r2, [r3, #1030]	@ movhi
 2506 01c0 0FE0     		b	.L86
 2507              	.L87:
 419:Drivers/STM32L5xx_HAL_Driver/Src/stm32l5xx_ll_usb.c ****             pmabuffer = ep->pmaaddr1;
 2508              		.loc 1 419 13 discriminator 10 view .LVU862
 419:Drivers/STM32L5xx_HAL_Driver/Src/stm32l5xx_ll_usb.c ****             pmabuffer = ep->pmaaddr1;
 2509              		.loc 1 419 13 discriminator 10 view .LVU863
 2510 01c2 7208     		lsrs	r2, r6, #1
 2511              	.LVL291:
 419:Drivers/STM32L5xx_HAL_Driver/Src/stm32l5xx_ll_usb.c ****             pmabuffer = ep->pmaaddr1;
 2512              		.loc 1 419 13 discriminator 10 view .LVU864
 2513 01c4 16F0010F 		tst	r6, #1
 2514 01c8 00D0     		beq	.L88
 419:Drivers/STM32L5xx_HAL_Driver/Src/stm32l5xx_ll_usb.c ****             pmabuffer = ep->pmaaddr1;
 2515              		.loc 1 419 13 discriminator 12 view .LVU865
 2516 01ca 0132     		adds	r2, r2, #1
 2517              	.LVL292:
 2518              	.L88:
 419:Drivers/STM32L5xx_HAL_Driver/Src/stm32l5xx_ll_usb.c ****             pmabuffer = ep->pmaaddr1;
 2519              		.loc 1 419 13 discriminator 14 view .LVU866
 2520 01cc B3F80614 		ldrh	r1, [r3, #1030]
 2521 01d0 89B2     		uxth	r1, r1
 2522 01d2 9202     		lsls	r2, r2, #10
 2523              	.LVL293:
 419:Drivers/STM32L5xx_HAL_Driver/Src/stm32l5xx_ll_usb.c ****             pmabuffer = ep->pmaaddr1;
 2524              		.loc 1 419 13 is_stmt 0 discriminator 14 view .LVU867
 2525 01d4 92B2     		uxth	r2, r2
 2526 01d6 0A43     		orrs	r2, r2, r1
 2527 01d8 A3F80624 		strh	r2, [r3, #1030]	@ movhi
 2528 01dc 01E0     		b	.L86
ARM GAS  /tmp/ccQg3iPh.s 			page 66


 2529              	.LVL294:
 2530              	.L83:
 419:Drivers/STM32L5xx_HAL_Driver/Src/stm32l5xx_ll_usb.c ****             pmabuffer = ep->pmaaddr1;
 2531              		.loc 1 419 13 discriminator 14 view .LVU868
 2532              	.LBE80:
 2533              	.LBE79:
 419:Drivers/STM32L5xx_HAL_Driver/Src/stm32l5xx_ll_usb.c ****             pmabuffer = ep->pmaaddr1;
 2534              		.loc 1 419 13 is_stmt 1 discriminator 2 view .LVU869
 2535 01de 012A     		cmp	r2, #1
 2536 01e0 30D0     		beq	.L163
 2537              	.LVL295:
 2538              	.L86:
 419:Drivers/STM32L5xx_HAL_Driver/Src/stm32l5xx_ll_usb.c ****             pmabuffer = ep->pmaaddr1;
 2539              		.loc 1 419 13 is_stmt 0 discriminator 2 view .LVU870
 2540              	.LBE78:
 419:Drivers/STM32L5xx_HAL_Driver/Src/stm32l5xx_ll_usb.c ****             pmabuffer = ep->pmaaddr1;
 2541              		.loc 1 419 13 is_stmt 1 discriminator 18 view .LVU871
 420:Drivers/STM32L5xx_HAL_Driver/Src/stm32l5xx_ll_usb.c **** 
 2542              		.loc 1 420 13 discriminator 18 view .LVU872
 423:Drivers/STM32L5xx_HAL_Driver/Src/stm32l5xx_ll_usb.c ****             ep->xfer_buff += len;
 2543              		.loc 1 423 13 discriminator 18 view .LVU873
 2544 01e2 B3B2     		uxth	r3, r6
 2545 01e4 6289     		ldrh	r2, [r4, #10]
 2546 01e6 6169     		ldr	r1, [r4, #20]
 2547 01e8 2846     		mov	r0, r5
 2548              	.LVL296:
 423:Drivers/STM32L5xx_HAL_Driver/Src/stm32l5xx_ll_usb.c ****             ep->xfer_buff += len;
 2549              		.loc 1 423 13 is_stmt 0 discriminator 18 view .LVU874
 2550 01ea FFF7FEFF 		bl	USB_WritePMA
 2551              	.LVL297:
 424:Drivers/STM32L5xx_HAL_Driver/Src/stm32l5xx_ll_usb.c **** 
 2552              		.loc 1 424 13 is_stmt 1 discriminator 18 view .LVU875
 424:Drivers/STM32L5xx_HAL_Driver/Src/stm32l5xx_ll_usb.c **** 
 2553              		.loc 1 424 15 is_stmt 0 discriminator 18 view .LVU876
 2554 01ee 6369     		ldr	r3, [r4, #20]
 424:Drivers/STM32L5xx_HAL_Driver/Src/stm32l5xx_ll_usb.c **** 
 2555              		.loc 1 424 27 discriminator 18 view .LVU877
 2556 01f0 3344     		add	r3, r3, r6
 2557 01f2 6361     		str	r3, [r4, #20]
 426:Drivers/STM32L5xx_HAL_Driver/Src/stm32l5xx_ll_usb.c ****             {
 2558              		.loc 1 426 13 is_stmt 1 discriminator 18 view .LVU878
 426:Drivers/STM32L5xx_HAL_Driver/Src/stm32l5xx_ll_usb.c ****             {
 2559              		.loc 1 426 19 is_stmt 0 discriminator 18 view .LVU879
 2560 01f4 236A     		ldr	r3, [r4, #32]
 426:Drivers/STM32L5xx_HAL_Driver/Src/stm32l5xx_ll_usb.c ****             {
 2561              		.loc 1 426 37 discriminator 18 view .LVU880
 2562 01f6 2269     		ldr	r2, [r4, #16]
 426:Drivers/STM32L5xx_HAL_Driver/Src/stm32l5xx_ll_usb.c ****             {
 2563              		.loc 1 426 16 discriminator 18 view .LVU881
 2564 01f8 9342     		cmp	r3, r2
 2565 01fa 2DD9     		bls	.L89
 428:Drivers/STM32L5xx_HAL_Driver/Src/stm32l5xx_ll_usb.c ****             }
 2566              		.loc 1 428 15 is_stmt 1 view .LVU882
 428:Drivers/STM32L5xx_HAL_Driver/Src/stm32l5xx_ll_usb.c ****             }
 2567              		.loc 1 428 31 is_stmt 0 view .LVU883
 2568 01fc 9B1B     		subs	r3, r3, r6
 2569 01fe 2362     		str	r3, [r4, #32]
ARM GAS  /tmp/ccQg3iPh.s 			page 67


 2570              	.L90:
 437:Drivers/STM32L5xx_HAL_Driver/Src/stm32l5xx_ll_usb.c ****             pmabuffer = ep->pmaaddr0;
 2571              		.loc 1 437 13 is_stmt 1 view .LVU884
 437:Drivers/STM32L5xx_HAL_Driver/Src/stm32l5xx_ll_usb.c ****             pmabuffer = ep->pmaaddr0;
 2572              		.loc 1 437 13 view .LVU885
 2573 0200 6378     		ldrb	r3, [r4, #1]	@ zero_extendqisi2
 2574 0202 002B     		cmp	r3, #0
 2575 0204 45D1     		bne	.L91
 437:Drivers/STM32L5xx_HAL_Driver/Src/stm32l5xx_ll_usb.c ****             pmabuffer = ep->pmaaddr0;
 2576              		.loc 1 437 13 discriminator 1 view .LVU886
 2577              	.LBB81:
 437:Drivers/STM32L5xx_HAL_Driver/Src/stm32l5xx_ll_usb.c ****             pmabuffer = ep->pmaaddr0;
 2578              		.loc 1 437 13 discriminator 1 view .LVU887
 2579              	.LVL298:
 437:Drivers/STM32L5xx_HAL_Driver/Src/stm32l5xx_ll_usb.c ****             pmabuffer = ep->pmaaddr0;
 2580              		.loc 1 437 13 discriminator 1 view .LVU888
 437:Drivers/STM32L5xx_HAL_Driver/Src/stm32l5xx_ll_usb.c ****             pmabuffer = ep->pmaaddr0;
 2581              		.loc 1 437 13 discriminator 1 view .LVU889
 2582 0206 B5F85030 		ldrh	r3, [r5, #80]
 2583 020a 15FA83F3 		uxtah	r3, r5, r3
 2584              	.LVL299:
 437:Drivers/STM32L5xx_HAL_Driver/Src/stm32l5xx_ll_usb.c ****             pmabuffer = ep->pmaaddr0;
 2585              		.loc 1 437 13 discriminator 1 view .LVU890
 2586 020e 2278     		ldrb	r2, [r4]	@ zero_extendqisi2
 2587 0210 03EBC203 		add	r3, r3, r2, lsl #3
 2588              	.LVL300:
 437:Drivers/STM32L5xx_HAL_Driver/Src/stm32l5xx_ll_usb.c ****             pmabuffer = ep->pmaaddr0;
 2589              		.loc 1 437 13 discriminator 1 view .LVU891
 2590              	.LBB82:
 437:Drivers/STM32L5xx_HAL_Driver/Src/stm32l5xx_ll_usb.c ****             pmabuffer = ep->pmaaddr0;
 2591              		.loc 1 437 13 discriminator 1 view .LVU892
 437:Drivers/STM32L5xx_HAL_Driver/Src/stm32l5xx_ll_usb.c ****             pmabuffer = ep->pmaaddr0;
 2592              		.loc 1 437 13 discriminator 1 view .LVU893
 2593 0214 B3F80224 		ldrh	r2, [r3, #1026]
 2594 0218 C2F30902 		ubfx	r2, r2, #0, #10
 2595 021c A3F80224 		strh	r2, [r3, #1026]	@ movhi
 437:Drivers/STM32L5xx_HAL_Driver/Src/stm32l5xx_ll_usb.c ****             pmabuffer = ep->pmaaddr0;
 2596              		.loc 1 437 13 discriminator 1 view .LVU894
 2597 0220 3E2E     		cmp	r6, #62
 2598 0222 1DD9     		bls	.L92
 437:Drivers/STM32L5xx_HAL_Driver/Src/stm32l5xx_ll_usb.c ****             pmabuffer = ep->pmaaddr0;
 2599              		.loc 1 437 13 discriminator 3 view .LVU895
 437:Drivers/STM32L5xx_HAL_Driver/Src/stm32l5xx_ll_usb.c ****             pmabuffer = ep->pmaaddr0;
 2600              		.loc 1 437 13 discriminator 3 view .LVU896
 2601 0224 7109     		lsrs	r1, r6, #5
 2602              	.LVL301:
 437:Drivers/STM32L5xx_HAL_Driver/Src/stm32l5xx_ll_usb.c ****             pmabuffer = ep->pmaaddr0;
 2603              		.loc 1 437 13 discriminator 3 view .LVU897
 2604 0226 16F01F0F 		tst	r6, #31
 2605 022a 00D1     		bne	.L93
 437:Drivers/STM32L5xx_HAL_Driver/Src/stm32l5xx_ll_usb.c ****             pmabuffer = ep->pmaaddr0;
 2606              		.loc 1 437 13 discriminator 5 view .LVU898
 2607 022c 0139     		subs	r1, r1, #1
 2608              	.LVL302:
 2609              	.L93:
 437:Drivers/STM32L5xx_HAL_Driver/Src/stm32l5xx_ll_usb.c ****             pmabuffer = ep->pmaaddr0;
 2610              		.loc 1 437 13 discriminator 7 view .LVU899
ARM GAS  /tmp/ccQg3iPh.s 			page 68


 2611 022e B3F80224 		ldrh	r2, [r3, #1026]
 2612 0232 92B2     		uxth	r2, r2
 2613 0234 8902     		lsls	r1, r1, #10
 2614              	.LVL303:
 437:Drivers/STM32L5xx_HAL_Driver/Src/stm32l5xx_ll_usb.c ****             pmabuffer = ep->pmaaddr0;
 2615              		.loc 1 437 13 is_stmt 0 discriminator 7 view .LVU900
 2616 0236 89B2     		uxth	r1, r1
 2617 0238 0A43     		orrs	r2, r2, r1
 2618 023a 42F40042 		orr	r2, r2, #32768
 2619 023e A3F80224 		strh	r2, [r3, #1026]	@ movhi
 437:Drivers/STM32L5xx_HAL_Driver/Src/stm32l5xx_ll_usb.c ****             pmabuffer = ep->pmaaddr0;
 2620              		.loc 1 437 13 is_stmt 1 discriminator 7 view .LVU901
 2621 0242 28E0     		b	.L94
 2622              	.LVL304:
 2623              	.L163:
 437:Drivers/STM32L5xx_HAL_Driver/Src/stm32l5xx_ll_usb.c ****             pmabuffer = ep->pmaaddr0;
 2624              		.loc 1 437 13 is_stmt 0 discriminator 7 view .LVU902
 2625              	.LBE82:
 2626              	.LBE81:
 2627              	.LBB84:
 419:Drivers/STM32L5xx_HAL_Driver/Src/stm32l5xx_ll_usb.c ****             pmabuffer = ep->pmaaddr1;
 2628              		.loc 1 419 13 is_stmt 1 discriminator 16 view .LVU903
 2629 0244 B5F85020 		ldrh	r2, [r5, #80]
 2630 0248 15FA82F2 		uxtah	r2, r5, r2
 2631              	.LVL305:
 419:Drivers/STM32L5xx_HAL_Driver/Src/stm32l5xx_ll_usb.c ****             pmabuffer = ep->pmaaddr1;
 2632              		.loc 1 419 13 discriminator 16 view .LVU904
 2633 024c 02EBC303 		add	r3, r2, r3, lsl #3
 2634              	.LVL306:
 419:Drivers/STM32L5xx_HAL_Driver/Src/stm32l5xx_ll_usb.c ****             pmabuffer = ep->pmaaddr1;
 2635              		.loc 1 419 13 discriminator 16 view .LVU905
 2636 0250 B2B2     		uxth	r2, r6
 2637              	.LVL307:
 419:Drivers/STM32L5xx_HAL_Driver/Src/stm32l5xx_ll_usb.c ****             pmabuffer = ep->pmaaddr1;
 2638              		.loc 1 419 13 is_stmt 0 discriminator 16 view .LVU906
 2639 0252 A3F80624 		strh	r2, [r3, #1030]	@ movhi
 2640 0256 C4E7     		b	.L86
 2641              	.LVL308:
 2642              	.L89:
 419:Drivers/STM32L5xx_HAL_Driver/Src/stm32l5xx_ll_usb.c ****             pmabuffer = ep->pmaaddr1;
 2643              		.loc 1 419 13 discriminator 16 view .LVU907
 2644              	.LBE84:
 432:Drivers/STM32L5xx_HAL_Driver/Src/stm32l5xx_ll_usb.c ****               ep->xfer_len_db = 0U;
 2645              		.loc 1 432 15 is_stmt 1 view .LVU908
 433:Drivers/STM32L5xx_HAL_Driver/Src/stm32l5xx_ll_usb.c ****             }
 2646              		.loc 1 433 15 view .LVU909
 433:Drivers/STM32L5xx_HAL_Driver/Src/stm32l5xx_ll_usb.c ****             }
 2647              		.loc 1 433 31 is_stmt 0 view .LVU910
 2648 0258 0022     		movs	r2, #0
 2649 025a 2262     		str	r2, [r4, #32]
 432:Drivers/STM32L5xx_HAL_Driver/Src/stm32l5xx_ll_usb.c ****               ep->xfer_len_db = 0U;
 2650              		.loc 1 432 19 view .LVU911
 2651 025c 1E46     		mov	r6, r3
 2652 025e CFE7     		b	.L90
 2653              	.LVL309:
 2654              	.L92:
 2655              	.LBB85:
ARM GAS  /tmp/ccQg3iPh.s 			page 69


 2656              	.LBB83:
 437:Drivers/STM32L5xx_HAL_Driver/Src/stm32l5xx_ll_usb.c ****             pmabuffer = ep->pmaaddr0;
 2657              		.loc 1 437 13 is_stmt 1 discriminator 4 view .LVU912
 2658 0260 4EB9     		cbnz	r6, .L95
 437:Drivers/STM32L5xx_HAL_Driver/Src/stm32l5xx_ll_usb.c ****             pmabuffer = ep->pmaaddr0;
 2659              		.loc 1 437 13 discriminator 9 view .LVU913
 2660 0262 B3F80224 		ldrh	r2, [r3, #1026]
 2661 0266 6FEA4242 		mvn	r2, r2, lsl #17
 2662 026a 6FEA5242 		mvn	r2, r2, lsr #17
 2663 026e 92B2     		uxth	r2, r2
 2664 0270 A3F80224 		strh	r2, [r3, #1026]	@ movhi
 2665 0274 0FE0     		b	.L94
 2666              	.L95:
 437:Drivers/STM32L5xx_HAL_Driver/Src/stm32l5xx_ll_usb.c ****             pmabuffer = ep->pmaaddr0;
 2667              		.loc 1 437 13 discriminator 10 view .LVU914
 437:Drivers/STM32L5xx_HAL_Driver/Src/stm32l5xx_ll_usb.c ****             pmabuffer = ep->pmaaddr0;
 2668              		.loc 1 437 13 discriminator 10 view .LVU915
 2669 0276 7208     		lsrs	r2, r6, #1
 2670              	.LVL310:
 437:Drivers/STM32L5xx_HAL_Driver/Src/stm32l5xx_ll_usb.c ****             pmabuffer = ep->pmaaddr0;
 2671              		.loc 1 437 13 discriminator 10 view .LVU916
 2672 0278 16F0010F 		tst	r6, #1
 2673 027c 00D0     		beq	.L96
 437:Drivers/STM32L5xx_HAL_Driver/Src/stm32l5xx_ll_usb.c ****             pmabuffer = ep->pmaaddr0;
 2674              		.loc 1 437 13 discriminator 12 view .LVU917
 2675 027e 0132     		adds	r2, r2, #1
 2676              	.LVL311:
 2677              	.L96:
 437:Drivers/STM32L5xx_HAL_Driver/Src/stm32l5xx_ll_usb.c ****             pmabuffer = ep->pmaaddr0;
 2678              		.loc 1 437 13 discriminator 14 view .LVU918
 2679 0280 B3F80214 		ldrh	r1, [r3, #1026]
 2680 0284 89B2     		uxth	r1, r1
 2681 0286 9202     		lsls	r2, r2, #10
 2682              	.LVL312:
 437:Drivers/STM32L5xx_HAL_Driver/Src/stm32l5xx_ll_usb.c ****             pmabuffer = ep->pmaaddr0;
 2683              		.loc 1 437 13 is_stmt 0 discriminator 14 view .LVU919
 2684 0288 92B2     		uxth	r2, r2
 2685 028a 0A43     		orrs	r2, r2, r1
 2686 028c A3F80224 		strh	r2, [r3, #1026]	@ movhi
 2687 0290 01E0     		b	.L94
 2688              	.LVL313:
 2689              	.L91:
 437:Drivers/STM32L5xx_HAL_Driver/Src/stm32l5xx_ll_usb.c ****             pmabuffer = ep->pmaaddr0;
 2690              		.loc 1 437 13 discriminator 14 view .LVU920
 2691              	.LBE83:
 2692              	.LBE85:
 437:Drivers/STM32L5xx_HAL_Driver/Src/stm32l5xx_ll_usb.c ****             pmabuffer = ep->pmaaddr0;
 2693              		.loc 1 437 13 is_stmt 1 discriminator 2 view .LVU921
 2694 0292 012B     		cmp	r3, #1
 2695 0294 06D0     		beq	.L164
 2696              	.L94:
 437:Drivers/STM32L5xx_HAL_Driver/Src/stm32l5xx_ll_usb.c ****             pmabuffer = ep->pmaaddr0;
 2697              		.loc 1 437 13 discriminator 18 view .LVU922
 437:Drivers/STM32L5xx_HAL_Driver/Src/stm32l5xx_ll_usb.c ****             pmabuffer = ep->pmaaddr0;
 2698              		.loc 1 437 13 discriminator 18 view .LVU923
 438:Drivers/STM32L5xx_HAL_Driver/Src/stm32l5xx_ll_usb.c **** 
 2699              		.loc 1 438 13 discriminator 18 view .LVU924
ARM GAS  /tmp/ccQg3iPh.s 			page 70


 2700              	.LVL314:
 441:Drivers/STM32L5xx_HAL_Driver/Src/stm32l5xx_ll_usb.c ****           }
 2701              		.loc 1 441 13 discriminator 18 view .LVU925
 2702 0296 B3B2     		uxth	r3, r6
 2703 0298 2289     		ldrh	r2, [r4, #8]
 2704 029a 6169     		ldr	r1, [r4, #20]
 2705 029c 2846     		mov	r0, r5
 2706 029e FFF7FEFF 		bl	USB_WritePMA
 2707              	.LVL315:
 441:Drivers/STM32L5xx_HAL_Driver/Src/stm32l5xx_ll_usb.c ****           }
 2708              		.loc 1 441 13 is_stmt 0 discriminator 18 view .LVU926
 2709 02a2 35E7     		b	.L79
 2710              	.L164:
 437:Drivers/STM32L5xx_HAL_Driver/Src/stm32l5xx_ll_usb.c ****             pmabuffer = ep->pmaaddr0;
 2711              		.loc 1 437 13 is_stmt 1 discriminator 16 view .LVU927
 2712              	.LBB86:
 437:Drivers/STM32L5xx_HAL_Driver/Src/stm32l5xx_ll_usb.c ****             pmabuffer = ep->pmaaddr0;
 2713              		.loc 1 437 13 discriminator 16 view .LVU928
 2714              	.LVL316:
 437:Drivers/STM32L5xx_HAL_Driver/Src/stm32l5xx_ll_usb.c ****             pmabuffer = ep->pmaaddr0;
 2715              		.loc 1 437 13 discriminator 16 view .LVU929
 437:Drivers/STM32L5xx_HAL_Driver/Src/stm32l5xx_ll_usb.c ****             pmabuffer = ep->pmaaddr0;
 2716              		.loc 1 437 13 discriminator 16 view .LVU930
 2717 02a4 B5F85030 		ldrh	r3, [r5, #80]
 2718 02a8 15FA83F3 		uxtah	r3, r5, r3
 2719              	.LVL317:
 437:Drivers/STM32L5xx_HAL_Driver/Src/stm32l5xx_ll_usb.c ****             pmabuffer = ep->pmaaddr0;
 2720              		.loc 1 437 13 discriminator 16 view .LVU931
 2721 02ac 2278     		ldrb	r2, [r4]	@ zero_extendqisi2
 2722 02ae 03EBC203 		add	r3, r3, r2, lsl #3
 2723              	.LVL318:
 437:Drivers/STM32L5xx_HAL_Driver/Src/stm32l5xx_ll_usb.c ****             pmabuffer = ep->pmaaddr0;
 2724              		.loc 1 437 13 discriminator 16 view .LVU932
 2725 02b2 B2B2     		uxth	r2, r6
 2726 02b4 A3F80224 		strh	r2, [r3, #1026]	@ movhi
 2727 02b8 EDE7     		b	.L94
 2728              	.LVL319:
 2729              	.L82:
 437:Drivers/STM32L5xx_HAL_Driver/Src/stm32l5xx_ll_usb.c ****             pmabuffer = ep->pmaaddr0;
 2730              		.loc 1 437 13 is_stmt 0 discriminator 16 view .LVU933
 2731              	.LBE86:
 446:Drivers/STM32L5xx_HAL_Driver/Src/stm32l5xx_ll_usb.c ****             pmabuffer = ep->pmaaddr0;
 2732              		.loc 1 446 13 is_stmt 1 view .LVU934
 446:Drivers/STM32L5xx_HAL_Driver/Src/stm32l5xx_ll_usb.c ****             pmabuffer = ep->pmaaddr0;
 2733              		.loc 1 446 13 view .LVU935
 2734 02ba 6278     		ldrb	r2, [r4, #1]	@ zero_extendqisi2
 2735 02bc B2BB     		cbnz	r2, .L97
 446:Drivers/STM32L5xx_HAL_Driver/Src/stm32l5xx_ll_usb.c ****             pmabuffer = ep->pmaaddr0;
 2736              		.loc 1 446 13 discriminator 1 view .LVU936
 2737              	.LBB87:
 446:Drivers/STM32L5xx_HAL_Driver/Src/stm32l5xx_ll_usb.c ****             pmabuffer = ep->pmaaddr0;
 2738              		.loc 1 446 13 discriminator 1 view .LVU937
 2739              	.LVL320:
 446:Drivers/STM32L5xx_HAL_Driver/Src/stm32l5xx_ll_usb.c ****             pmabuffer = ep->pmaaddr0;
 2740              		.loc 1 446 13 discriminator 1 view .LVU938
 446:Drivers/STM32L5xx_HAL_Driver/Src/stm32l5xx_ll_usb.c ****             pmabuffer = ep->pmaaddr0;
 2741              		.loc 1 446 13 discriminator 1 view .LVU939
ARM GAS  /tmp/ccQg3iPh.s 			page 71


 2742 02be B5F85020 		ldrh	r2, [r5, #80]
 2743 02c2 15FA82F2 		uxtah	r2, r5, r2
 2744              	.LVL321:
 446:Drivers/STM32L5xx_HAL_Driver/Src/stm32l5xx_ll_usb.c ****             pmabuffer = ep->pmaaddr0;
 2745              		.loc 1 446 13 discriminator 1 view .LVU940
 2746 02c6 02EBC303 		add	r3, r2, r3, lsl #3
 2747              	.LVL322:
 446:Drivers/STM32L5xx_HAL_Driver/Src/stm32l5xx_ll_usb.c ****             pmabuffer = ep->pmaaddr0;
 2748              		.loc 1 446 13 discriminator 1 view .LVU941
 2749              	.LBB88:
 446:Drivers/STM32L5xx_HAL_Driver/Src/stm32l5xx_ll_usb.c ****             pmabuffer = ep->pmaaddr0;
 2750              		.loc 1 446 13 discriminator 1 view .LVU942
 446:Drivers/STM32L5xx_HAL_Driver/Src/stm32l5xx_ll_usb.c ****             pmabuffer = ep->pmaaddr0;
 2751              		.loc 1 446 13 discriminator 1 view .LVU943
 2752 02ca B3F80224 		ldrh	r2, [r3, #1026]
 2753              	.LVL323:
 446:Drivers/STM32L5xx_HAL_Driver/Src/stm32l5xx_ll_usb.c ****             pmabuffer = ep->pmaaddr0;
 2754              		.loc 1 446 13 is_stmt 0 discriminator 1 view .LVU944
 2755 02ce C2F30902 		ubfx	r2, r2, #0, #10
 2756 02d2 A3F80224 		strh	r2, [r3, #1026]	@ movhi
 446:Drivers/STM32L5xx_HAL_Driver/Src/stm32l5xx_ll_usb.c ****             pmabuffer = ep->pmaaddr0;
 2757              		.loc 1 446 13 is_stmt 1 discriminator 1 view .LVU945
 2758 02d6 3E2E     		cmp	r6, #62
 2759 02d8 0FD9     		bls	.L98
 446:Drivers/STM32L5xx_HAL_Driver/Src/stm32l5xx_ll_usb.c ****             pmabuffer = ep->pmaaddr0;
 2760              		.loc 1 446 13 discriminator 3 view .LVU946
 446:Drivers/STM32L5xx_HAL_Driver/Src/stm32l5xx_ll_usb.c ****             pmabuffer = ep->pmaaddr0;
 2761              		.loc 1 446 13 discriminator 3 view .LVU947
 2762 02da 7109     		lsrs	r1, r6, #5
 2763              	.LVL324:
 446:Drivers/STM32L5xx_HAL_Driver/Src/stm32l5xx_ll_usb.c ****             pmabuffer = ep->pmaaddr0;
 2764              		.loc 1 446 13 discriminator 3 view .LVU948
 2765 02dc 16F01F0F 		tst	r6, #31
 2766 02e0 00D1     		bne	.L99
 446:Drivers/STM32L5xx_HAL_Driver/Src/stm32l5xx_ll_usb.c ****             pmabuffer = ep->pmaaddr0;
 2767              		.loc 1 446 13 discriminator 5 view .LVU949
 2768 02e2 0139     		subs	r1, r1, #1
 2769              	.LVL325:
 2770              	.L99:
 446:Drivers/STM32L5xx_HAL_Driver/Src/stm32l5xx_ll_usb.c ****             pmabuffer = ep->pmaaddr0;
 2771              		.loc 1 446 13 discriminator 7 view .LVU950
 2772 02e4 B3F80224 		ldrh	r2, [r3, #1026]
 2773 02e8 92B2     		uxth	r2, r2
 2774 02ea 8902     		lsls	r1, r1, #10
 2775              	.LVL326:
 446:Drivers/STM32L5xx_HAL_Driver/Src/stm32l5xx_ll_usb.c ****             pmabuffer = ep->pmaaddr0;
 2776              		.loc 1 446 13 is_stmt 0 discriminator 7 view .LVU951
 2777 02ec 89B2     		uxth	r1, r1
 2778 02ee 0A43     		orrs	r2, r2, r1
 2779 02f0 42F40042 		orr	r2, r2, #32768
 2780 02f4 A3F80224 		strh	r2, [r3, #1026]	@ movhi
 446:Drivers/STM32L5xx_HAL_Driver/Src/stm32l5xx_ll_usb.c ****             pmabuffer = ep->pmaaddr0;
 2781              		.loc 1 446 13 is_stmt 1 discriminator 7 view .LVU952
 2782 02f8 1AE0     		b	.L100
 2783              	.LVL327:
 2784              	.L98:
 446:Drivers/STM32L5xx_HAL_Driver/Src/stm32l5xx_ll_usb.c ****             pmabuffer = ep->pmaaddr0;
ARM GAS  /tmp/ccQg3iPh.s 			page 72


 2785              		.loc 1 446 13 discriminator 4 view .LVU953
 2786 02fa 4EB9     		cbnz	r6, .L101
 446:Drivers/STM32L5xx_HAL_Driver/Src/stm32l5xx_ll_usb.c ****             pmabuffer = ep->pmaaddr0;
 2787              		.loc 1 446 13 discriminator 9 view .LVU954
 2788 02fc B3F80224 		ldrh	r2, [r3, #1026]
 2789 0300 6FEA4242 		mvn	r2, r2, lsl #17
 2790 0304 6FEA5242 		mvn	r2, r2, lsr #17
 2791 0308 92B2     		uxth	r2, r2
 2792 030a A3F80224 		strh	r2, [r3, #1026]	@ movhi
 2793 030e 0FE0     		b	.L100
 2794              	.L101:
 446:Drivers/STM32L5xx_HAL_Driver/Src/stm32l5xx_ll_usb.c ****             pmabuffer = ep->pmaaddr0;
 2795              		.loc 1 446 13 discriminator 10 view .LVU955
 446:Drivers/STM32L5xx_HAL_Driver/Src/stm32l5xx_ll_usb.c ****             pmabuffer = ep->pmaaddr0;
 2796              		.loc 1 446 13 discriminator 10 view .LVU956
 2797 0310 7208     		lsrs	r2, r6, #1
 2798              	.LVL328:
 446:Drivers/STM32L5xx_HAL_Driver/Src/stm32l5xx_ll_usb.c ****             pmabuffer = ep->pmaaddr0;
 2799              		.loc 1 446 13 discriminator 10 view .LVU957
 2800 0312 16F0010F 		tst	r6, #1
 2801 0316 00D0     		beq	.L102
 446:Drivers/STM32L5xx_HAL_Driver/Src/stm32l5xx_ll_usb.c ****             pmabuffer = ep->pmaaddr0;
 2802              		.loc 1 446 13 discriminator 12 view .LVU958
 2803 0318 0132     		adds	r2, r2, #1
 2804              	.LVL329:
 2805              	.L102:
 446:Drivers/STM32L5xx_HAL_Driver/Src/stm32l5xx_ll_usb.c ****             pmabuffer = ep->pmaaddr0;
 2806              		.loc 1 446 13 discriminator 14 view .LVU959
 2807 031a B3F80214 		ldrh	r1, [r3, #1026]
 2808 031e 89B2     		uxth	r1, r1
 2809 0320 9202     		lsls	r2, r2, #10
 2810              	.LVL330:
 446:Drivers/STM32L5xx_HAL_Driver/Src/stm32l5xx_ll_usb.c ****             pmabuffer = ep->pmaaddr0;
 2811              		.loc 1 446 13 is_stmt 0 discriminator 14 view .LVU960
 2812 0322 92B2     		uxth	r2, r2
 2813 0324 0A43     		orrs	r2, r2, r1
 2814 0326 A3F80224 		strh	r2, [r3, #1026]	@ movhi
 2815 032a 01E0     		b	.L100
 2816              	.LVL331:
 2817              	.L97:
 446:Drivers/STM32L5xx_HAL_Driver/Src/stm32l5xx_ll_usb.c ****             pmabuffer = ep->pmaaddr0;
 2818              		.loc 1 446 13 discriminator 14 view .LVU961
 2819              	.LBE88:
 2820              	.LBE87:
 446:Drivers/STM32L5xx_HAL_Driver/Src/stm32l5xx_ll_usb.c ****             pmabuffer = ep->pmaaddr0;
 2821              		.loc 1 446 13 is_stmt 1 discriminator 2 view .LVU962
 2822 032c 012A     		cmp	r2, #1
 2823 032e 30D0     		beq	.L165
 2824              	.L100:
 446:Drivers/STM32L5xx_HAL_Driver/Src/stm32l5xx_ll_usb.c ****             pmabuffer = ep->pmaaddr0;
 2825              		.loc 1 446 13 discriminator 18 view .LVU963
 446:Drivers/STM32L5xx_HAL_Driver/Src/stm32l5xx_ll_usb.c ****             pmabuffer = ep->pmaaddr0;
 2826              		.loc 1 446 13 discriminator 18 view .LVU964
 447:Drivers/STM32L5xx_HAL_Driver/Src/stm32l5xx_ll_usb.c **** 
 2827              		.loc 1 447 13 discriminator 18 view .LVU965
 2828              	.LVL332:
 450:Drivers/STM32L5xx_HAL_Driver/Src/stm32l5xx_ll_usb.c ****             ep->xfer_buff += len;
ARM GAS  /tmp/ccQg3iPh.s 			page 73


 2829              		.loc 1 450 13 discriminator 18 view .LVU966
 2830 0330 B3B2     		uxth	r3, r6
 2831 0332 2289     		ldrh	r2, [r4, #8]
 2832 0334 6169     		ldr	r1, [r4, #20]
 2833 0336 2846     		mov	r0, r5
 2834              	.LVL333:
 450:Drivers/STM32L5xx_HAL_Driver/Src/stm32l5xx_ll_usb.c ****             ep->xfer_buff += len;
 2835              		.loc 1 450 13 is_stmt 0 discriminator 18 view .LVU967
 2836 0338 FFF7FEFF 		bl	USB_WritePMA
 2837              	.LVL334:
 451:Drivers/STM32L5xx_HAL_Driver/Src/stm32l5xx_ll_usb.c **** 
 2838              		.loc 1 451 13 is_stmt 1 discriminator 18 view .LVU968
 451:Drivers/STM32L5xx_HAL_Driver/Src/stm32l5xx_ll_usb.c **** 
 2839              		.loc 1 451 15 is_stmt 0 discriminator 18 view .LVU969
 2840 033c 6369     		ldr	r3, [r4, #20]
 451:Drivers/STM32L5xx_HAL_Driver/Src/stm32l5xx_ll_usb.c **** 
 2841              		.loc 1 451 27 discriminator 18 view .LVU970
 2842 033e 3344     		add	r3, r3, r6
 2843 0340 6361     		str	r3, [r4, #20]
 453:Drivers/STM32L5xx_HAL_Driver/Src/stm32l5xx_ll_usb.c ****             {
 2844              		.loc 1 453 13 is_stmt 1 discriminator 18 view .LVU971
 453:Drivers/STM32L5xx_HAL_Driver/Src/stm32l5xx_ll_usb.c ****             {
 2845              		.loc 1 453 19 is_stmt 0 discriminator 18 view .LVU972
 2846 0342 236A     		ldr	r3, [r4, #32]
 453:Drivers/STM32L5xx_HAL_Driver/Src/stm32l5xx_ll_usb.c ****             {
 2847              		.loc 1 453 37 discriminator 18 view .LVU973
 2848 0344 2269     		ldr	r2, [r4, #16]
 453:Drivers/STM32L5xx_HAL_Driver/Src/stm32l5xx_ll_usb.c ****             {
 2849              		.loc 1 453 16 discriminator 18 view .LVU974
 2850 0346 9342     		cmp	r3, r2
 2851 0348 2DD9     		bls	.L103
 455:Drivers/STM32L5xx_HAL_Driver/Src/stm32l5xx_ll_usb.c ****             }
 2852              		.loc 1 455 15 is_stmt 1 view .LVU975
 455:Drivers/STM32L5xx_HAL_Driver/Src/stm32l5xx_ll_usb.c ****             }
 2853              		.loc 1 455 31 is_stmt 0 view .LVU976
 2854 034a 9B1B     		subs	r3, r3, r6
 2855 034c 2362     		str	r3, [r4, #32]
 2856              	.L104:
 464:Drivers/STM32L5xx_HAL_Driver/Src/stm32l5xx_ll_usb.c ****             pmabuffer = ep->pmaaddr1;
 2857              		.loc 1 464 13 is_stmt 1 view .LVU977
 2858              	.LBB89:
 464:Drivers/STM32L5xx_HAL_Driver/Src/stm32l5xx_ll_usb.c ****             pmabuffer = ep->pmaaddr1;
 2859              		.loc 1 464 13 view .LVU978
 2860              	.LVL335:
 464:Drivers/STM32L5xx_HAL_Driver/Src/stm32l5xx_ll_usb.c ****             pmabuffer = ep->pmaaddr1;
 2861              		.loc 1 464 13 view .LVU979
 464:Drivers/STM32L5xx_HAL_Driver/Src/stm32l5xx_ll_usb.c ****             pmabuffer = ep->pmaaddr1;
 2862              		.loc 1 464 13 view .LVU980
 2863 034e 6378     		ldrb	r3, [r4, #1]	@ zero_extendqisi2
 2864 0350 002B     		cmp	r3, #0
 2865 0352 45D1     		bne	.L105
 464:Drivers/STM32L5xx_HAL_Driver/Src/stm32l5xx_ll_usb.c ****             pmabuffer = ep->pmaaddr1;
 2866              		.loc 1 464 13 discriminator 1 view .LVU981
 2867              	.LBB90:
 464:Drivers/STM32L5xx_HAL_Driver/Src/stm32l5xx_ll_usb.c ****             pmabuffer = ep->pmaaddr1;
 2868              		.loc 1 464 13 discriminator 1 view .LVU982
 2869              	.LVL336:
ARM GAS  /tmp/ccQg3iPh.s 			page 74


 464:Drivers/STM32L5xx_HAL_Driver/Src/stm32l5xx_ll_usb.c ****             pmabuffer = ep->pmaaddr1;
 2870              		.loc 1 464 13 discriminator 1 view .LVU983
 464:Drivers/STM32L5xx_HAL_Driver/Src/stm32l5xx_ll_usb.c ****             pmabuffer = ep->pmaaddr1;
 2871              		.loc 1 464 13 discriminator 1 view .LVU984
 2872 0354 B5F85030 		ldrh	r3, [r5, #80]
 2873 0358 15FA83F3 		uxtah	r3, r5, r3
 2874              	.LVL337:
 464:Drivers/STM32L5xx_HAL_Driver/Src/stm32l5xx_ll_usb.c ****             pmabuffer = ep->pmaaddr1;
 2875              		.loc 1 464 13 discriminator 1 view .LVU985
 2876 035c 2278     		ldrb	r2, [r4]	@ zero_extendqisi2
 2877 035e 03EBC203 		add	r3, r3, r2, lsl #3
 2878              	.LVL338:
 464:Drivers/STM32L5xx_HAL_Driver/Src/stm32l5xx_ll_usb.c ****             pmabuffer = ep->pmaaddr1;
 2879              		.loc 1 464 13 discriminator 1 view .LVU986
 2880              	.LBB91:
 464:Drivers/STM32L5xx_HAL_Driver/Src/stm32l5xx_ll_usb.c ****             pmabuffer = ep->pmaaddr1;
 2881              		.loc 1 464 13 discriminator 1 view .LVU987
 464:Drivers/STM32L5xx_HAL_Driver/Src/stm32l5xx_ll_usb.c ****             pmabuffer = ep->pmaaddr1;
 2882              		.loc 1 464 13 discriminator 1 view .LVU988
 2883 0362 B3F80624 		ldrh	r2, [r3, #1030]
 2884 0366 C2F30902 		ubfx	r2, r2, #0, #10
 2885 036a A3F80624 		strh	r2, [r3, #1030]	@ movhi
 464:Drivers/STM32L5xx_HAL_Driver/Src/stm32l5xx_ll_usb.c ****             pmabuffer = ep->pmaaddr1;
 2886              		.loc 1 464 13 discriminator 1 view .LVU989
 2887 036e 3E2E     		cmp	r6, #62
 2888 0370 1DD9     		bls	.L106
 464:Drivers/STM32L5xx_HAL_Driver/Src/stm32l5xx_ll_usb.c ****             pmabuffer = ep->pmaaddr1;
 2889              		.loc 1 464 13 discriminator 3 view .LVU990
 464:Drivers/STM32L5xx_HAL_Driver/Src/stm32l5xx_ll_usb.c ****             pmabuffer = ep->pmaaddr1;
 2890              		.loc 1 464 13 discriminator 3 view .LVU991
 2891 0372 7109     		lsrs	r1, r6, #5
 2892              	.LVL339:
 464:Drivers/STM32L5xx_HAL_Driver/Src/stm32l5xx_ll_usb.c ****             pmabuffer = ep->pmaaddr1;
 2893              		.loc 1 464 13 discriminator 3 view .LVU992
 2894 0374 16F01F0F 		tst	r6, #31
 2895 0378 00D1     		bne	.L107
 464:Drivers/STM32L5xx_HAL_Driver/Src/stm32l5xx_ll_usb.c ****             pmabuffer = ep->pmaaddr1;
 2896              		.loc 1 464 13 discriminator 5 view .LVU993
 2897 037a 0139     		subs	r1, r1, #1
 2898              	.LVL340:
 2899              	.L107:
 464:Drivers/STM32L5xx_HAL_Driver/Src/stm32l5xx_ll_usb.c ****             pmabuffer = ep->pmaaddr1;
 2900              		.loc 1 464 13 discriminator 7 view .LVU994
 2901 037c B3F80624 		ldrh	r2, [r3, #1030]
 2902 0380 92B2     		uxth	r2, r2
 2903 0382 8902     		lsls	r1, r1, #10
 2904              	.LVL341:
 464:Drivers/STM32L5xx_HAL_Driver/Src/stm32l5xx_ll_usb.c ****             pmabuffer = ep->pmaaddr1;
 2905              		.loc 1 464 13 is_stmt 0 discriminator 7 view .LVU995
 2906 0384 89B2     		uxth	r1, r1
 2907 0386 0A43     		orrs	r2, r2, r1
 2908 0388 42F40042 		orr	r2, r2, #32768
 2909 038c A3F80624 		strh	r2, [r3, #1030]	@ movhi
 464:Drivers/STM32L5xx_HAL_Driver/Src/stm32l5xx_ll_usb.c ****             pmabuffer = ep->pmaaddr1;
 2910              		.loc 1 464 13 is_stmt 1 discriminator 7 view .LVU996
 2911 0390 28E0     		b	.L108
 2912              	.LVL342:
ARM GAS  /tmp/ccQg3iPh.s 			page 75


 2913              	.L165:
 464:Drivers/STM32L5xx_HAL_Driver/Src/stm32l5xx_ll_usb.c ****             pmabuffer = ep->pmaaddr1;
 2914              		.loc 1 464 13 is_stmt 0 discriminator 7 view .LVU997
 2915              	.LBE91:
 2916              	.LBE90:
 2917              	.LBE89:
 446:Drivers/STM32L5xx_HAL_Driver/Src/stm32l5xx_ll_usb.c ****             pmabuffer = ep->pmaaddr0;
 2918              		.loc 1 446 13 is_stmt 1 discriminator 16 view .LVU998
 2919              	.LBB94:
 446:Drivers/STM32L5xx_HAL_Driver/Src/stm32l5xx_ll_usb.c ****             pmabuffer = ep->pmaaddr0;
 2920              		.loc 1 446 13 discriminator 16 view .LVU999
 446:Drivers/STM32L5xx_HAL_Driver/Src/stm32l5xx_ll_usb.c ****             pmabuffer = ep->pmaaddr0;
 2921              		.loc 1 446 13 discriminator 16 view .LVU1000
 446:Drivers/STM32L5xx_HAL_Driver/Src/stm32l5xx_ll_usb.c ****             pmabuffer = ep->pmaaddr0;
 2922              		.loc 1 446 13 discriminator 16 view .LVU1001
 2923 0392 B5F85020 		ldrh	r2, [r5, #80]
 2924 0396 15FA82F2 		uxtah	r2, r5, r2
 2925              	.LVL343:
 446:Drivers/STM32L5xx_HAL_Driver/Src/stm32l5xx_ll_usb.c ****             pmabuffer = ep->pmaaddr0;
 2926              		.loc 1 446 13 discriminator 16 view .LVU1002
 2927 039a 02EBC303 		add	r3, r2, r3, lsl #3
 2928              	.LVL344:
 446:Drivers/STM32L5xx_HAL_Driver/Src/stm32l5xx_ll_usb.c ****             pmabuffer = ep->pmaaddr0;
 2929              		.loc 1 446 13 discriminator 16 view .LVU1003
 2930 039e B2B2     		uxth	r2, r6
 2931              	.LVL345:
 446:Drivers/STM32L5xx_HAL_Driver/Src/stm32l5xx_ll_usb.c ****             pmabuffer = ep->pmaaddr0;
 2932              		.loc 1 446 13 is_stmt 0 discriminator 16 view .LVU1004
 2933 03a0 A3F80224 		strh	r2, [r3, #1026]	@ movhi
 2934 03a4 C4E7     		b	.L100
 2935              	.LVL346:
 2936              	.L103:
 446:Drivers/STM32L5xx_HAL_Driver/Src/stm32l5xx_ll_usb.c ****             pmabuffer = ep->pmaaddr0;
 2937              		.loc 1 446 13 discriminator 16 view .LVU1005
 2938              	.LBE94:
 459:Drivers/STM32L5xx_HAL_Driver/Src/stm32l5xx_ll_usb.c ****               ep->xfer_len_db = 0U;
 2939              		.loc 1 459 15 is_stmt 1 view .LVU1006
 460:Drivers/STM32L5xx_HAL_Driver/Src/stm32l5xx_ll_usb.c ****             }
 2940              		.loc 1 460 15 view .LVU1007
 460:Drivers/STM32L5xx_HAL_Driver/Src/stm32l5xx_ll_usb.c ****             }
 2941              		.loc 1 460 31 is_stmt 0 view .LVU1008
 2942 03a6 0022     		movs	r2, #0
 2943 03a8 2262     		str	r2, [r4, #32]
 459:Drivers/STM32L5xx_HAL_Driver/Src/stm32l5xx_ll_usb.c ****               ep->xfer_len_db = 0U;
 2944              		.loc 1 459 19 view .LVU1009
 2945 03aa 1E46     		mov	r6, r3
 2946 03ac CFE7     		b	.L104
 2947              	.LVL347:
 2948              	.L106:
 2949              	.LBB95:
 2950              	.LBB93:
 2951              	.LBB92:
 464:Drivers/STM32L5xx_HAL_Driver/Src/stm32l5xx_ll_usb.c ****             pmabuffer = ep->pmaaddr1;
 2952              		.loc 1 464 13 is_stmt 1 discriminator 4 view .LVU1010
 2953 03ae 4EB9     		cbnz	r6, .L109
 464:Drivers/STM32L5xx_HAL_Driver/Src/stm32l5xx_ll_usb.c ****             pmabuffer = ep->pmaaddr1;
 2954              		.loc 1 464 13 discriminator 9 view .LVU1011
ARM GAS  /tmp/ccQg3iPh.s 			page 76


 2955 03b0 B3F80624 		ldrh	r2, [r3, #1030]
 2956 03b4 6FEA4242 		mvn	r2, r2, lsl #17
 2957 03b8 6FEA5242 		mvn	r2, r2, lsr #17
 2958 03bc 92B2     		uxth	r2, r2
 2959 03be A3F80624 		strh	r2, [r3, #1030]	@ movhi
 2960 03c2 0FE0     		b	.L108
 2961              	.L109:
 464:Drivers/STM32L5xx_HAL_Driver/Src/stm32l5xx_ll_usb.c ****             pmabuffer = ep->pmaaddr1;
 2962              		.loc 1 464 13 discriminator 10 view .LVU1012
 464:Drivers/STM32L5xx_HAL_Driver/Src/stm32l5xx_ll_usb.c ****             pmabuffer = ep->pmaaddr1;
 2963              		.loc 1 464 13 discriminator 10 view .LVU1013
 2964 03c4 7208     		lsrs	r2, r6, #1
 2965              	.LVL348:
 464:Drivers/STM32L5xx_HAL_Driver/Src/stm32l5xx_ll_usb.c ****             pmabuffer = ep->pmaaddr1;
 2966              		.loc 1 464 13 discriminator 10 view .LVU1014
 2967 03c6 16F0010F 		tst	r6, #1
 2968 03ca 00D0     		beq	.L110
 464:Drivers/STM32L5xx_HAL_Driver/Src/stm32l5xx_ll_usb.c ****             pmabuffer = ep->pmaaddr1;
 2969              		.loc 1 464 13 discriminator 12 view .LVU1015
 2970 03cc 0132     		adds	r2, r2, #1
 2971              	.LVL349:
 2972              	.L110:
 464:Drivers/STM32L5xx_HAL_Driver/Src/stm32l5xx_ll_usb.c ****             pmabuffer = ep->pmaaddr1;
 2973              		.loc 1 464 13 discriminator 14 view .LVU1016
 2974 03ce B3F80614 		ldrh	r1, [r3, #1030]
 2975 03d2 89B2     		uxth	r1, r1
 2976 03d4 9202     		lsls	r2, r2, #10
 2977              	.LVL350:
 464:Drivers/STM32L5xx_HAL_Driver/Src/stm32l5xx_ll_usb.c ****             pmabuffer = ep->pmaaddr1;
 2978              		.loc 1 464 13 is_stmt 0 discriminator 14 view .LVU1017
 2979 03d6 92B2     		uxth	r2, r2
 2980 03d8 0A43     		orrs	r2, r2, r1
 2981 03da A3F80624 		strh	r2, [r3, #1030]	@ movhi
 2982 03de 01E0     		b	.L108
 2983              	.LVL351:
 2984              	.L105:
 464:Drivers/STM32L5xx_HAL_Driver/Src/stm32l5xx_ll_usb.c ****             pmabuffer = ep->pmaaddr1;
 2985              		.loc 1 464 13 discriminator 14 view .LVU1018
 2986              	.LBE92:
 2987              	.LBE93:
 464:Drivers/STM32L5xx_HAL_Driver/Src/stm32l5xx_ll_usb.c ****             pmabuffer = ep->pmaaddr1;
 2988              		.loc 1 464 13 is_stmt 1 discriminator 2 view .LVU1019
 2989 03e0 012B     		cmp	r3, #1
 2990 03e2 06D0     		beq	.L166
 2991              	.LVL352:
 2992              	.L108:
 464:Drivers/STM32L5xx_HAL_Driver/Src/stm32l5xx_ll_usb.c ****             pmabuffer = ep->pmaaddr1;
 2993              		.loc 1 464 13 is_stmt 0 discriminator 2 view .LVU1020
 2994              	.LBE95:
 464:Drivers/STM32L5xx_HAL_Driver/Src/stm32l5xx_ll_usb.c ****             pmabuffer = ep->pmaaddr1;
 2995              		.loc 1 464 13 is_stmt 1 discriminator 18 view .LVU1021
 465:Drivers/STM32L5xx_HAL_Driver/Src/stm32l5xx_ll_usb.c **** 
 2996              		.loc 1 465 13 discriminator 18 view .LVU1022
 468:Drivers/STM32L5xx_HAL_Driver/Src/stm32l5xx_ll_usb.c ****           }
 2997              		.loc 1 468 13 discriminator 18 view .LVU1023
 2998 03e4 B3B2     		uxth	r3, r6
 2999 03e6 6289     		ldrh	r2, [r4, #10]
ARM GAS  /tmp/ccQg3iPh.s 			page 77


 3000 03e8 6169     		ldr	r1, [r4, #20]
 3001 03ea 2846     		mov	r0, r5
 3002 03ec FFF7FEFF 		bl	USB_WritePMA
 3003              	.LVL353:
 468:Drivers/STM32L5xx_HAL_Driver/Src/stm32l5xx_ll_usb.c ****           }
 3004              		.loc 1 468 13 is_stmt 0 discriminator 18 view .LVU1024
 3005 03f0 8EE6     		b	.L79
 3006              	.LVL354:
 3007              	.L166:
 3008              	.LBB96:
 464:Drivers/STM32L5xx_HAL_Driver/Src/stm32l5xx_ll_usb.c ****             pmabuffer = ep->pmaaddr1;
 3009              		.loc 1 464 13 is_stmt 1 discriminator 16 view .LVU1025
 3010 03f2 B5F85030 		ldrh	r3, [r5, #80]
 3011 03f6 15FA83F3 		uxtah	r3, r5, r3
 3012              	.LVL355:
 464:Drivers/STM32L5xx_HAL_Driver/Src/stm32l5xx_ll_usb.c ****             pmabuffer = ep->pmaaddr1;
 3013              		.loc 1 464 13 discriminator 16 view .LVU1026
 3014 03fa 2278     		ldrb	r2, [r4]	@ zero_extendqisi2
 3015 03fc 03EBC203 		add	r3, r3, r2, lsl #3
 3016              	.LVL356:
 464:Drivers/STM32L5xx_HAL_Driver/Src/stm32l5xx_ll_usb.c ****             pmabuffer = ep->pmaaddr1;
 3017              		.loc 1 464 13 discriminator 16 view .LVU1027
 3018 0400 B2B2     		uxth	r2, r6
 3019 0402 A3F80624 		strh	r2, [r3, #1030]	@ movhi
 3020 0406 EDE7     		b	.L108
 3021              	.LVL357:
 3022              	.L81:
 464:Drivers/STM32L5xx_HAL_Driver/Src/stm32l5xx_ll_usb.c ****             pmabuffer = ep->pmaaddr1;
 3023              		.loc 1 464 13 is_stmt 0 discriminator 16 view .LVU1028
 3024              	.LBE96:
 474:Drivers/STM32L5xx_HAL_Driver/Src/stm32l5xx_ll_usb.c **** 
 3025              		.loc 1 474 11 is_stmt 1 view .LVU1029
 477:Drivers/STM32L5xx_HAL_Driver/Src/stm32l5xx_ll_usb.c **** 
 3026              		.loc 1 477 11 view .LVU1030
 3027              	.LBB97:
 477:Drivers/STM32L5xx_HAL_Driver/Src/stm32l5xx_ll_usb.c **** 
 3028              		.loc 1 477 11 view .LVU1031
 477:Drivers/STM32L5xx_HAL_Driver/Src/stm32l5xx_ll_usb.c **** 
 3029              		.loc 1 477 11 view .LVU1032
 3030 0408 2178     		ldrb	r1, [r4]	@ zero_extendqisi2
 3031 040a 35F82120 		ldrh	r2, [r5, r1, lsl #2]
 3032 040e 92B2     		uxth	r2, r2
 3033 0410 22F4E242 		bic	r2, r2, #28928
 3034 0414 22F07002 		bic	r2, r2, #112
 3035              	.LVL358:
 477:Drivers/STM32L5xx_HAL_Driver/Src/stm32l5xx_ll_usb.c **** 
 3036              		.loc 1 477 11 view .LVU1033
 3037 0418 42F40042 		orr	r2, r2, #32768
 3038              	.LVL359:
 477:Drivers/STM32L5xx_HAL_Driver/Src/stm32l5xx_ll_usb.c **** 
 3039              		.loc 1 477 11 is_stmt 0 view .LVU1034
 3040 041c 42F08002 		orr	r2, r2, #128
 3041 0420 25F82120 		strh	r2, [r5, r1, lsl #2]	@ movhi
 3042              	.LBE97:
 477:Drivers/STM32L5xx_HAL_Driver/Src/stm32l5xx_ll_usb.c **** 
 3043              		.loc 1 477 11 is_stmt 1 view .LVU1035
 480:Drivers/STM32L5xx_HAL_Driver/Src/stm32l5xx_ll_usb.c ****           pmabuffer = ep->pmaaddr0;
ARM GAS  /tmp/ccQg3iPh.s 			page 78


 3044              		.loc 1 480 11 view .LVU1036
 3045              	.LBB98:
 480:Drivers/STM32L5xx_HAL_Driver/Src/stm32l5xx_ll_usb.c ****           pmabuffer = ep->pmaaddr0;
 3046              		.loc 1 480 11 view .LVU1037
 3047              	.LVL360:
 480:Drivers/STM32L5xx_HAL_Driver/Src/stm32l5xx_ll_usb.c ****           pmabuffer = ep->pmaaddr0;
 3048              		.loc 1 480 11 view .LVU1038
 480:Drivers/STM32L5xx_HAL_Driver/Src/stm32l5xx_ll_usb.c ****           pmabuffer = ep->pmaaddr0;
 3049              		.loc 1 480 11 view .LVU1039
 3050 0424 B5F85020 		ldrh	r2, [r5, #80]
 3051 0428 15FA82F2 		uxtah	r2, r5, r2
 3052              	.LVL361:
 480:Drivers/STM32L5xx_HAL_Driver/Src/stm32l5xx_ll_usb.c ****           pmabuffer = ep->pmaaddr0;
 3053              		.loc 1 480 11 view .LVU1040
 3054 042c 2178     		ldrb	r1, [r4]	@ zero_extendqisi2
 3055 042e 02EBC102 		add	r2, r2, r1, lsl #3
 3056              	.LVL362:
 480:Drivers/STM32L5xx_HAL_Driver/Src/stm32l5xx_ll_usb.c ****           pmabuffer = ep->pmaaddr0;
 3057              		.loc 1 480 11 view .LVU1041
 3058 0432 9BB2     		uxth	r3, r3
 3059              	.LVL363:
 480:Drivers/STM32L5xx_HAL_Driver/Src/stm32l5xx_ll_usb.c ****           pmabuffer = ep->pmaaddr0;
 3060              		.loc 1 480 11 is_stmt 0 view .LVU1042
 3061 0434 A2F80234 		strh	r3, [r2, #1026]	@ movhi
 3062              	.LBE98:
 480:Drivers/STM32L5xx_HAL_Driver/Src/stm32l5xx_ll_usb.c ****           pmabuffer = ep->pmaaddr0;
 3063              		.loc 1 480 11 is_stmt 1 view .LVU1043
 481:Drivers/STM32L5xx_HAL_Driver/Src/stm32l5xx_ll_usb.c **** 
 3064              		.loc 1 481 11 view .LVU1044
 3065              	.LVL364:
 484:Drivers/STM32L5xx_HAL_Driver/Src/stm32l5xx_ll_usb.c ****         }
 3066              		.loc 1 484 11 view .LVU1045
 3067 0438 2289     		ldrh	r2, [r4, #8]
 3068              	.LVL365:
 484:Drivers/STM32L5xx_HAL_Driver/Src/stm32l5xx_ll_usb.c ****         }
 3069              		.loc 1 484 11 is_stmt 0 view .LVU1046
 3070 043a 6169     		ldr	r1, [r4, #20]
 484:Drivers/STM32L5xx_HAL_Driver/Src/stm32l5xx_ll_usb.c ****         }
 3071              		.loc 1 484 11 view .LVU1047
 3072 043c 2846     		mov	r0, r5
 3073              	.LVL366:
 484:Drivers/STM32L5xx_HAL_Driver/Src/stm32l5xx_ll_usb.c ****         }
 3074              		.loc 1 484 11 view .LVU1048
 3075 043e FFF7FEFF 		bl	USB_WritePMA
 3076              	.LVL367:
 484:Drivers/STM32L5xx_HAL_Driver/Src/stm32l5xx_ll_usb.c ****         }
 3077              		.loc 1 484 11 view .LVU1049
 3078 0442 65E6     		b	.L79
 3079              	.LVL368:
 3080              	.L113:
 3081              	.LBB99:
 3082              	.LBB74:
 3083              	.LBB73:
 496:Drivers/STM32L5xx_HAL_Driver/Src/stm32l5xx_ll_usb.c ****           pmabuffer = ep->pmaaddr1;
 3084              		.loc 1 496 11 is_stmt 1 discriminator 4 view .LVU1050
 3085 0444 4EB9     		cbnz	r6, .L116
 496:Drivers/STM32L5xx_HAL_Driver/Src/stm32l5xx_ll_usb.c ****           pmabuffer = ep->pmaaddr1;
ARM GAS  /tmp/ccQg3iPh.s 			page 79


 3086              		.loc 1 496 11 discriminator 9 view .LVU1051
 3087 0446 B3F80624 		ldrh	r2, [r3, #1030]
 3088 044a 6FEA4242 		mvn	r2, r2, lsl #17
 3089 044e 6FEA5242 		mvn	r2, r2, lsr #17
 3090 0452 92B2     		uxth	r2, r2
 3091 0454 A3F80624 		strh	r2, [r3, #1030]	@ movhi
 3092 0458 16E0     		b	.L115
 3093              	.L116:
 496:Drivers/STM32L5xx_HAL_Driver/Src/stm32l5xx_ll_usb.c ****           pmabuffer = ep->pmaaddr1;
 3094              		.loc 1 496 11 discriminator 10 view .LVU1052
 496:Drivers/STM32L5xx_HAL_Driver/Src/stm32l5xx_ll_usb.c ****           pmabuffer = ep->pmaaddr1;
 3095              		.loc 1 496 11 discriminator 10 view .LVU1053
 3096 045a 7208     		lsrs	r2, r6, #1
 3097              	.LVL369:
 496:Drivers/STM32L5xx_HAL_Driver/Src/stm32l5xx_ll_usb.c ****           pmabuffer = ep->pmaaddr1;
 3098              		.loc 1 496 11 discriminator 10 view .LVU1054
 3099 045c 16F0010F 		tst	r6, #1
 3100 0460 00D0     		beq	.L117
 496:Drivers/STM32L5xx_HAL_Driver/Src/stm32l5xx_ll_usb.c ****           pmabuffer = ep->pmaaddr1;
 3101              		.loc 1 496 11 discriminator 12 view .LVU1055
 3102 0462 0132     		adds	r2, r2, #1
 3103              	.LVL370:
 3104              	.L117:
 496:Drivers/STM32L5xx_HAL_Driver/Src/stm32l5xx_ll_usb.c ****           pmabuffer = ep->pmaaddr1;
 3105              		.loc 1 496 11 discriminator 14 view .LVU1056
 3106 0464 B3F80614 		ldrh	r1, [r3, #1030]
 3107 0468 89B2     		uxth	r1, r1
 3108 046a 9202     		lsls	r2, r2, #10
 3109              	.LVL371:
 496:Drivers/STM32L5xx_HAL_Driver/Src/stm32l5xx_ll_usb.c ****           pmabuffer = ep->pmaaddr1;
 3110              		.loc 1 496 11 is_stmt 0 discriminator 14 view .LVU1057
 3111 046c 92B2     		uxth	r2, r2
 3112 046e 0A43     		orrs	r2, r2, r1
 3113 0470 A3F80624 		strh	r2, [r3, #1030]	@ movhi
 3114 0474 08E0     		b	.L115
 3115              	.LVL372:
 3116              	.L112:
 496:Drivers/STM32L5xx_HAL_Driver/Src/stm32l5xx_ll_usb.c ****           pmabuffer = ep->pmaaddr1;
 3117              		.loc 1 496 11 discriminator 14 view .LVU1058
 3118              	.LBE73:
 3119              	.LBE74:
 496:Drivers/STM32L5xx_HAL_Driver/Src/stm32l5xx_ll_usb.c ****           pmabuffer = ep->pmaaddr1;
 3120              		.loc 1 496 11 is_stmt 1 discriminator 16 view .LVU1059
 496:Drivers/STM32L5xx_HAL_Driver/Src/stm32l5xx_ll_usb.c ****           pmabuffer = ep->pmaaddr1;
 3121              		.loc 1 496 11 discriminator 16 view .LVU1060
 3122 0476 B5F85020 		ldrh	r2, [r5, #80]
 3123 047a 15FA82F2 		uxtah	r2, r5, r2
 3124              	.LVL373:
 496:Drivers/STM32L5xx_HAL_Driver/Src/stm32l5xx_ll_usb.c ****           pmabuffer = ep->pmaaddr1;
 3125              		.loc 1 496 11 discriminator 16 view .LVU1061
 3126 047e 02EBC303 		add	r3, r2, r3, lsl #3
 3127              	.LVL374:
 496:Drivers/STM32L5xx_HAL_Driver/Src/stm32l5xx_ll_usb.c ****           pmabuffer = ep->pmaaddr1;
 3128              		.loc 1 496 11 discriminator 16 view .LVU1062
 3129 0482 B2B2     		uxth	r2, r6
 3130              	.LVL375:
 496:Drivers/STM32L5xx_HAL_Driver/Src/stm32l5xx_ll_usb.c ****           pmabuffer = ep->pmaaddr1;
ARM GAS  /tmp/ccQg3iPh.s 			page 80


 3131              		.loc 1 496 11 is_stmt 0 discriminator 16 view .LVU1063
 3132 0484 A3F80624 		strh	r2, [r3, #1030]	@ movhi
 3133              	.LVL376:
 3134              	.L115:
 496:Drivers/STM32L5xx_HAL_Driver/Src/stm32l5xx_ll_usb.c ****           pmabuffer = ep->pmaaddr1;
 3135              		.loc 1 496 11 discriminator 16 view .LVU1064
 3136              	.LBE99:
 496:Drivers/STM32L5xx_HAL_Driver/Src/stm32l5xx_ll_usb.c ****           pmabuffer = ep->pmaaddr1;
 3137              		.loc 1 496 11 is_stmt 1 discriminator 18 view .LVU1065
 497:Drivers/STM32L5xx_HAL_Driver/Src/stm32l5xx_ll_usb.c **** 
 3138              		.loc 1 497 11 discriminator 18 view .LVU1066
 500:Drivers/STM32L5xx_HAL_Driver/Src/stm32l5xx_ll_usb.c ****         }
 3139              		.loc 1 500 11 discriminator 18 view .LVU1067
 3140 0488 B3B2     		uxth	r3, r6
 3141 048a 6289     		ldrh	r2, [r4, #10]
 3142 048c 6169     		ldr	r1, [r4, #20]
 3143 048e 2846     		mov	r0, r5
 3144              	.LVL377:
 500:Drivers/STM32L5xx_HAL_Driver/Src/stm32l5xx_ll_usb.c ****         }
 3145              		.loc 1 500 11 is_stmt 0 discriminator 18 view .LVU1068
 3146 0490 FFF7FEFF 		bl	USB_WritePMA
 3147              	.LVL378:
 500:Drivers/STM32L5xx_HAL_Driver/Src/stm32l5xx_ll_usb.c ****         }
 3148              		.loc 1 500 11 discriminator 18 view .LVU1069
 3149 0494 3CE6     		b	.L79
 3150              	.LVL379:
 3151              	.L111:
 505:Drivers/STM32L5xx_HAL_Driver/Src/stm32l5xx_ll_usb.c ****           pmabuffer = ep->pmaaddr0;
 3152              		.loc 1 505 11 is_stmt 1 view .LVU1070
 505:Drivers/STM32L5xx_HAL_Driver/Src/stm32l5xx_ll_usb.c ****           pmabuffer = ep->pmaaddr0;
 3153              		.loc 1 505 11 view .LVU1071
 3154 0496 B2BB     		cbnz	r2, .L118
 505:Drivers/STM32L5xx_HAL_Driver/Src/stm32l5xx_ll_usb.c ****           pmabuffer = ep->pmaaddr0;
 3155              		.loc 1 505 11 discriminator 1 view .LVU1072
 3156              	.LBB100:
 505:Drivers/STM32L5xx_HAL_Driver/Src/stm32l5xx_ll_usb.c ****           pmabuffer = ep->pmaaddr0;
 3157              		.loc 1 505 11 discriminator 1 view .LVU1073
 3158              	.LVL380:
 505:Drivers/STM32L5xx_HAL_Driver/Src/stm32l5xx_ll_usb.c ****           pmabuffer = ep->pmaaddr0;
 3159              		.loc 1 505 11 discriminator 1 view .LVU1074
 505:Drivers/STM32L5xx_HAL_Driver/Src/stm32l5xx_ll_usb.c ****           pmabuffer = ep->pmaaddr0;
 3160              		.loc 1 505 11 discriminator 1 view .LVU1075
 3161 0498 B5F85020 		ldrh	r2, [r5, #80]
 3162 049c 15FA82F2 		uxtah	r2, r5, r2
 3163              	.LVL381:
 505:Drivers/STM32L5xx_HAL_Driver/Src/stm32l5xx_ll_usb.c ****           pmabuffer = ep->pmaaddr0;
 3164              		.loc 1 505 11 discriminator 1 view .LVU1076
 3165 04a0 02EBC303 		add	r3, r2, r3, lsl #3
 3166              	.LVL382:
 505:Drivers/STM32L5xx_HAL_Driver/Src/stm32l5xx_ll_usb.c ****           pmabuffer = ep->pmaaddr0;
 3167              		.loc 1 505 11 discriminator 1 view .LVU1077
 3168              	.LBB101:
 505:Drivers/STM32L5xx_HAL_Driver/Src/stm32l5xx_ll_usb.c ****           pmabuffer = ep->pmaaddr0;
 3169              		.loc 1 505 11 discriminator 1 view .LVU1078
 505:Drivers/STM32L5xx_HAL_Driver/Src/stm32l5xx_ll_usb.c ****           pmabuffer = ep->pmaaddr0;
 3170              		.loc 1 505 11 discriminator 1 view .LVU1079
 3171 04a4 B3F80224 		ldrh	r2, [r3, #1026]
ARM GAS  /tmp/ccQg3iPh.s 			page 81


 3172              	.LVL383:
 505:Drivers/STM32L5xx_HAL_Driver/Src/stm32l5xx_ll_usb.c ****           pmabuffer = ep->pmaaddr0;
 3173              		.loc 1 505 11 is_stmt 0 discriminator 1 view .LVU1080
 3174 04a8 C2F30902 		ubfx	r2, r2, #0, #10
 3175 04ac A3F80224 		strh	r2, [r3, #1026]	@ movhi
 505:Drivers/STM32L5xx_HAL_Driver/Src/stm32l5xx_ll_usb.c ****           pmabuffer = ep->pmaaddr0;
 3176              		.loc 1 505 11 is_stmt 1 discriminator 1 view .LVU1081
 3177 04b0 3E2E     		cmp	r6, #62
 3178 04b2 0FD9     		bls	.L119
 505:Drivers/STM32L5xx_HAL_Driver/Src/stm32l5xx_ll_usb.c ****           pmabuffer = ep->pmaaddr0;
 3179              		.loc 1 505 11 discriminator 3 view .LVU1082
 505:Drivers/STM32L5xx_HAL_Driver/Src/stm32l5xx_ll_usb.c ****           pmabuffer = ep->pmaaddr0;
 3180              		.loc 1 505 11 discriminator 3 view .LVU1083
 3181 04b4 7109     		lsrs	r1, r6, #5
 3182              	.LVL384:
 505:Drivers/STM32L5xx_HAL_Driver/Src/stm32l5xx_ll_usb.c ****           pmabuffer = ep->pmaaddr0;
 3183              		.loc 1 505 11 discriminator 3 view .LVU1084
 3184 04b6 16F01F0F 		tst	r6, #31
 3185 04ba 00D1     		bne	.L120
 505:Drivers/STM32L5xx_HAL_Driver/Src/stm32l5xx_ll_usb.c ****           pmabuffer = ep->pmaaddr0;
 3186              		.loc 1 505 11 discriminator 5 view .LVU1085
 3187 04bc 0139     		subs	r1, r1, #1
 3188              	.LVL385:
 3189              	.L120:
 505:Drivers/STM32L5xx_HAL_Driver/Src/stm32l5xx_ll_usb.c ****           pmabuffer = ep->pmaaddr0;
 3190              		.loc 1 505 11 discriminator 7 view .LVU1086
 3191 04be B3F80224 		ldrh	r2, [r3, #1026]
 3192 04c2 92B2     		uxth	r2, r2
 3193 04c4 8902     		lsls	r1, r1, #10
 3194              	.LVL386:
 505:Drivers/STM32L5xx_HAL_Driver/Src/stm32l5xx_ll_usb.c ****           pmabuffer = ep->pmaaddr0;
 3195              		.loc 1 505 11 is_stmt 0 discriminator 7 view .LVU1087
 3196 04c6 89B2     		uxth	r1, r1
 3197 04c8 0A43     		orrs	r2, r2, r1
 3198 04ca 42F40042 		orr	r2, r2, #32768
 3199 04ce A3F80224 		strh	r2, [r3, #1026]	@ movhi
 505:Drivers/STM32L5xx_HAL_Driver/Src/stm32l5xx_ll_usb.c ****           pmabuffer = ep->pmaaddr0;
 3200              		.loc 1 505 11 is_stmt 1 discriminator 7 view .LVU1088
 3201 04d2 21E0     		b	.L121
 3202              	.LVL387:
 3203              	.L119:
 505:Drivers/STM32L5xx_HAL_Driver/Src/stm32l5xx_ll_usb.c ****           pmabuffer = ep->pmaaddr0;
 3204              		.loc 1 505 11 discriminator 4 view .LVU1089
 3205 04d4 4EB9     		cbnz	r6, .L122
 505:Drivers/STM32L5xx_HAL_Driver/Src/stm32l5xx_ll_usb.c ****           pmabuffer = ep->pmaaddr0;
 3206              		.loc 1 505 11 discriminator 9 view .LVU1090
 3207 04d6 B3F80224 		ldrh	r2, [r3, #1026]
 3208 04da 6FEA4242 		mvn	r2, r2, lsl #17
 3209 04de 6FEA5242 		mvn	r2, r2, lsr #17
 3210 04e2 92B2     		uxth	r2, r2
 3211 04e4 A3F80224 		strh	r2, [r3, #1026]	@ movhi
 3212 04e8 16E0     		b	.L121
 3213              	.L122:
 505:Drivers/STM32L5xx_HAL_Driver/Src/stm32l5xx_ll_usb.c ****           pmabuffer = ep->pmaaddr0;
 3214              		.loc 1 505 11 discriminator 10 view .LVU1091
 505:Drivers/STM32L5xx_HAL_Driver/Src/stm32l5xx_ll_usb.c ****           pmabuffer = ep->pmaaddr0;
 3215              		.loc 1 505 11 discriminator 10 view .LVU1092
ARM GAS  /tmp/ccQg3iPh.s 			page 82


 3216 04ea 7208     		lsrs	r2, r6, #1
 3217              	.LVL388:
 505:Drivers/STM32L5xx_HAL_Driver/Src/stm32l5xx_ll_usb.c ****           pmabuffer = ep->pmaaddr0;
 3218              		.loc 1 505 11 discriminator 10 view .LVU1093
 3219 04ec 16F0010F 		tst	r6, #1
 3220 04f0 00D0     		beq	.L123
 505:Drivers/STM32L5xx_HAL_Driver/Src/stm32l5xx_ll_usb.c ****           pmabuffer = ep->pmaaddr0;
 3221              		.loc 1 505 11 discriminator 12 view .LVU1094
 3222 04f2 0132     		adds	r2, r2, #1
 3223              	.LVL389:
 3224              	.L123:
 505:Drivers/STM32L5xx_HAL_Driver/Src/stm32l5xx_ll_usb.c ****           pmabuffer = ep->pmaaddr0;
 3225              		.loc 1 505 11 discriminator 14 view .LVU1095
 3226 04f4 B3F80214 		ldrh	r1, [r3, #1026]
 3227 04f8 89B2     		uxth	r1, r1
 3228 04fa 9202     		lsls	r2, r2, #10
 3229              	.LVL390:
 505:Drivers/STM32L5xx_HAL_Driver/Src/stm32l5xx_ll_usb.c ****           pmabuffer = ep->pmaaddr0;
 3230              		.loc 1 505 11 is_stmt 0 discriminator 14 view .LVU1096
 3231 04fc 92B2     		uxth	r2, r2
 3232 04fe 0A43     		orrs	r2, r2, r1
 3233 0500 A3F80224 		strh	r2, [r3, #1026]	@ movhi
 3234 0504 08E0     		b	.L121
 3235              	.LVL391:
 3236              	.L118:
 505:Drivers/STM32L5xx_HAL_Driver/Src/stm32l5xx_ll_usb.c ****           pmabuffer = ep->pmaaddr0;
 3237              		.loc 1 505 11 discriminator 14 view .LVU1097
 3238              	.LBE101:
 3239              	.LBE100:
 505:Drivers/STM32L5xx_HAL_Driver/Src/stm32l5xx_ll_usb.c ****           pmabuffer = ep->pmaaddr0;
 3240              		.loc 1 505 11 is_stmt 1 discriminator 16 view .LVU1098
 505:Drivers/STM32L5xx_HAL_Driver/Src/stm32l5xx_ll_usb.c ****           pmabuffer = ep->pmaaddr0;
 3241              		.loc 1 505 11 discriminator 16 view .LVU1099
 3242              	.LBB102:
 505:Drivers/STM32L5xx_HAL_Driver/Src/stm32l5xx_ll_usb.c ****           pmabuffer = ep->pmaaddr0;
 3243              		.loc 1 505 11 discriminator 16 view .LVU1100
 505:Drivers/STM32L5xx_HAL_Driver/Src/stm32l5xx_ll_usb.c ****           pmabuffer = ep->pmaaddr0;
 3244              		.loc 1 505 11 discriminator 16 view .LVU1101
 505:Drivers/STM32L5xx_HAL_Driver/Src/stm32l5xx_ll_usb.c ****           pmabuffer = ep->pmaaddr0;
 3245              		.loc 1 505 11 discriminator 16 view .LVU1102
 3246 0506 B5F85020 		ldrh	r2, [r5, #80]
 3247 050a 15FA82F2 		uxtah	r2, r5, r2
 3248              	.LVL392:
 505:Drivers/STM32L5xx_HAL_Driver/Src/stm32l5xx_ll_usb.c ****           pmabuffer = ep->pmaaddr0;
 3249              		.loc 1 505 11 discriminator 16 view .LVU1103
 3250 050e 02EBC303 		add	r3, r2, r3, lsl #3
 3251              	.LVL393:
 505:Drivers/STM32L5xx_HAL_Driver/Src/stm32l5xx_ll_usb.c ****           pmabuffer = ep->pmaaddr0;
 3252              		.loc 1 505 11 discriminator 16 view .LVU1104
 3253 0512 B2B2     		uxth	r2, r6
 3254              	.LVL394:
 505:Drivers/STM32L5xx_HAL_Driver/Src/stm32l5xx_ll_usb.c ****           pmabuffer = ep->pmaaddr0;
 3255              		.loc 1 505 11 is_stmt 0 discriminator 16 view .LVU1105
 3256 0514 A3F80224 		strh	r2, [r3, #1026]	@ movhi
 3257              	.LVL395:
 3258              	.L121:
 505:Drivers/STM32L5xx_HAL_Driver/Src/stm32l5xx_ll_usb.c ****           pmabuffer = ep->pmaaddr0;
ARM GAS  /tmp/ccQg3iPh.s 			page 83


 3259              		.loc 1 505 11 discriminator 16 view .LVU1106
 3260              	.LBE102:
 505:Drivers/STM32L5xx_HAL_Driver/Src/stm32l5xx_ll_usb.c ****           pmabuffer = ep->pmaaddr0;
 3261              		.loc 1 505 11 is_stmt 1 discriminator 18 view .LVU1107
 505:Drivers/STM32L5xx_HAL_Driver/Src/stm32l5xx_ll_usb.c ****           pmabuffer = ep->pmaaddr0;
 3262              		.loc 1 505 11 discriminator 18 view .LVU1108
 506:Drivers/STM32L5xx_HAL_Driver/Src/stm32l5xx_ll_usb.c **** 
 3263              		.loc 1 506 11 discriminator 18 view .LVU1109
 509:Drivers/STM32L5xx_HAL_Driver/Src/stm32l5xx_ll_usb.c ****         }
 3264              		.loc 1 509 11 discriminator 18 view .LVU1110
 3265 0518 B3B2     		uxth	r3, r6
 3266 051a 2289     		ldrh	r2, [r4, #8]
 3267 051c 6169     		ldr	r1, [r4, #20]
 3268 051e 2846     		mov	r0, r5
 3269              	.LVL396:
 509:Drivers/STM32L5xx_HAL_Driver/Src/stm32l5xx_ll_usb.c ****         }
 3270              		.loc 1 509 11 is_stmt 0 discriminator 18 view .LVU1111
 3271 0520 FFF7FEFF 		bl	USB_WritePMA
 3272              	.LVL397:
 509:Drivers/STM32L5xx_HAL_Driver/Src/stm32l5xx_ll_usb.c ****         }
 3273              		.loc 1 509 11 discriminator 18 view .LVU1112
 3274 0524 F4E5     		b	.L79
 3275              	.LVL398:
 3276              	.L126:
 529:Drivers/STM32L5xx_HAL_Driver/Src/stm32l5xx_ll_usb.c ****         ep->xfer_len = 0U;
 3277              		.loc 1 529 9 is_stmt 1 view .LVU1113
 530:Drivers/STM32L5xx_HAL_Driver/Src/stm32l5xx_ll_usb.c ****       }
 3278              		.loc 1 530 9 view .LVU1114
 530:Drivers/STM32L5xx_HAL_Driver/Src/stm32l5xx_ll_usb.c ****       }
 3279              		.loc 1 530 22 is_stmt 0 view .LVU1115
 3280 0526 0022     		movs	r2, #0
 3281 0528 8A61     		str	r2, [r1, #24]
 529:Drivers/STM32L5xx_HAL_Driver/Src/stm32l5xx_ll_usb.c ****         ep->xfer_len = 0U;
 3282              		.loc 1 529 13 view .LVU1116
 3283 052a 1A46     		mov	r2, r3
 3284 052c 79E5     		b	.L127
 3285              	.LVL399:
 3286              	.L128:
 3287              	.LBB103:
 3288              	.LBB68:
 533:Drivers/STM32L5xx_HAL_Driver/Src/stm32l5xx_ll_usb.c ****     }
 3289              		.loc 1 533 7 is_stmt 1 discriminator 2 view .LVU1117
 3290 052e 4AB9     		cbnz	r2, .L131
 533:Drivers/STM32L5xx_HAL_Driver/Src/stm32l5xx_ll_usb.c ****     }
 3291              		.loc 1 533 7 discriminator 7 view .LVU1118
 3292 0530 B3F80624 		ldrh	r2, [r3, #1030]
 3293              	.LVL400:
 533:Drivers/STM32L5xx_HAL_Driver/Src/stm32l5xx_ll_usb.c ****     }
 3294              		.loc 1 533 7 is_stmt 0 discriminator 7 view .LVU1119
 3295 0534 6FEA4242 		mvn	r2, r2, lsl #17
 3296 0538 6FEA5242 		mvn	r2, r2, lsr #17
 3297 053c 92B2     		uxth	r2, r2
 3298 053e A3F80624 		strh	r2, [r3, #1030]	@ movhi
 3299 0542 8DE5     		b	.L130
 3300              	.LVL401:
 3301              	.L131:
 533:Drivers/STM32L5xx_HAL_Driver/Src/stm32l5xx_ll_usb.c ****     }
ARM GAS  /tmp/ccQg3iPh.s 			page 84


 3302              		.loc 1 533 7 is_stmt 1 discriminator 8 view .LVU1120
 533:Drivers/STM32L5xx_HAL_Driver/Src/stm32l5xx_ll_usb.c ****     }
 3303              		.loc 1 533 7 discriminator 8 view .LVU1121
 3304 0544 5108     		lsrs	r1, r2, #1
 3305              	.LVL402:
 533:Drivers/STM32L5xx_HAL_Driver/Src/stm32l5xx_ll_usb.c ****     }
 3306              		.loc 1 533 7 discriminator 8 view .LVU1122
 3307 0546 12F0010F 		tst	r2, #1
 3308 054a 00D0     		beq	.L132
 533:Drivers/STM32L5xx_HAL_Driver/Src/stm32l5xx_ll_usb.c ****     }
 3309              		.loc 1 533 7 discriminator 10 view .LVU1123
 3310 054c 0131     		adds	r1, r1, #1
 3311              	.LVL403:
 3312              	.L132:
 533:Drivers/STM32L5xx_HAL_Driver/Src/stm32l5xx_ll_usb.c ****     }
 3313              		.loc 1 533 7 discriminator 12 view .LVU1124
 3314 054e B3F80624 		ldrh	r2, [r3, #1030]
 3315              	.LVL404:
 533:Drivers/STM32L5xx_HAL_Driver/Src/stm32l5xx_ll_usb.c ****     }
 3316              		.loc 1 533 7 is_stmt 0 discriminator 12 view .LVU1125
 3317 0552 92B2     		uxth	r2, r2
 3318 0554 8902     		lsls	r1, r1, #10
 3319              	.LVL405:
 533:Drivers/STM32L5xx_HAL_Driver/Src/stm32l5xx_ll_usb.c ****     }
 3320              		.loc 1 533 7 discriminator 12 view .LVU1126
 3321 0556 89B2     		uxth	r1, r1
 3322 0558 0A43     		orrs	r2, r2, r1
 3323 055a A3F80624 		strh	r2, [r3, #1030]	@ movhi
 3324 055e 7FE5     		b	.L130
 3325              	.LVL406:
 3326              	.L125:
 533:Drivers/STM32L5xx_HAL_Driver/Src/stm32l5xx_ll_usb.c ****     }
 3327              		.loc 1 533 7 discriminator 12 view .LVU1127
 3328              	.LBE68:
 3329              	.LBE103:
 540:Drivers/STM32L5xx_HAL_Driver/Src/stm32l5xx_ll_usb.c ****       {
 3330              		.loc 1 540 7 is_stmt 1 view .LVU1128
 540:Drivers/STM32L5xx_HAL_Driver/Src/stm32l5xx_ll_usb.c ****       {
 3331              		.loc 1 540 13 is_stmt 0 view .LVU1129
 3332 0560 CB78     		ldrb	r3, [r1, #3]	@ zero_extendqisi2
 540:Drivers/STM32L5xx_HAL_Driver/Src/stm32l5xx_ll_usb.c ****       {
 3333              		.loc 1 540 10 view .LVU1130
 3334 0562 022B     		cmp	r3, #2
 3335 0564 4DD0     		beq	.L167
 559:Drivers/STM32L5xx_HAL_Driver/Src/stm32l5xx_ll_usb.c ****       {
 3336              		.loc 1 559 12 is_stmt 1 view .LVU1131
 559:Drivers/STM32L5xx_HAL_Driver/Src/stm32l5xx_ll_usb.c ****       {
 3337              		.loc 1 559 15 is_stmt 0 view .LVU1132
 3338 0566 012B     		cmp	r3, #1
 3339 0568 40F02F81 		bne	.L158
 562:Drivers/STM32L5xx_HAL_Driver/Src/stm32l5xx_ll_usb.c ****         {
 3340              		.loc 1 562 9 is_stmt 1 view .LVU1133
 562:Drivers/STM32L5xx_HAL_Driver/Src/stm32l5xx_ll_usb.c ****         {
 3341              		.loc 1 562 15 is_stmt 0 view .LVU1134
 3342 056c 8969     		ldr	r1, [r1, #24]
 3343              	.LVL407:
 562:Drivers/STM32L5xx_HAL_Driver/Src/stm32l5xx_ll_usb.c ****         {
ARM GAS  /tmp/ccQg3iPh.s 			page 85


 3344              		.loc 1 562 30 view .LVU1135
 3345 056e 2369     		ldr	r3, [r4, #16]
 562:Drivers/STM32L5xx_HAL_Driver/Src/stm32l5xx_ll_usb.c ****         {
 3346              		.loc 1 562 12 view .LVU1136
 3347 0570 9942     		cmp	r1, r3
 3348 0572 40F2E680 		bls	.L146
 564:Drivers/STM32L5xx_HAL_Driver/Src/stm32l5xx_ll_usb.c ****           ep->xfer_len -= len;
 3349              		.loc 1 564 11 is_stmt 1 view .LVU1137
 3350              	.LVL408:
 565:Drivers/STM32L5xx_HAL_Driver/Src/stm32l5xx_ll_usb.c ****         }
 3351              		.loc 1 565 11 view .LVU1138
 565:Drivers/STM32L5xx_HAL_Driver/Src/stm32l5xx_ll_usb.c ****         }
 3352              		.loc 1 565 24 is_stmt 0 view .LVU1139
 3353 0576 C91A     		subs	r1, r1, r3
 3354 0578 A161     		str	r1, [r4, #24]
 3355              	.L147:
 572:Drivers/STM32L5xx_HAL_Driver/Src/stm32l5xx_ll_usb.c ****       }
 3356              		.loc 1 572 9 is_stmt 1 view .LVU1140
 572:Drivers/STM32L5xx_HAL_Driver/Src/stm32l5xx_ll_usb.c ****       }
 3357              		.loc 1 572 9 view .LVU1141
 572:Drivers/STM32L5xx_HAL_Driver/Src/stm32l5xx_ll_usb.c ****       }
 3358              		.loc 1 572 9 view .LVU1142
 3359 057a F2B9     		cbnz	r2, .L148
 572:Drivers/STM32L5xx_HAL_Driver/Src/stm32l5xx_ll_usb.c ****       }
 3360              		.loc 1 572 9 discriminator 1 view .LVU1143
 3361              	.LBB104:
 572:Drivers/STM32L5xx_HAL_Driver/Src/stm32l5xx_ll_usb.c ****       }
 3362              		.loc 1 572 9 discriminator 1 view .LVU1144
 3363              	.LVL409:
 572:Drivers/STM32L5xx_HAL_Driver/Src/stm32l5xx_ll_usb.c ****       }
 3364              		.loc 1 572 9 discriminator 1 view .LVU1145
 572:Drivers/STM32L5xx_HAL_Driver/Src/stm32l5xx_ll_usb.c ****       }
 3365              		.loc 1 572 9 discriminator 1 view .LVU1146
 3366 057c B5F85020 		ldrh	r2, [r5, #80]
 3367 0580 15FA82F2 		uxtah	r2, r5, r2
 3368              	.LVL410:
 572:Drivers/STM32L5xx_HAL_Driver/Src/stm32l5xx_ll_usb.c ****       }
 3369              		.loc 1 572 9 discriminator 1 view .LVU1147
 3370 0584 2178     		ldrb	r1, [r4]	@ zero_extendqisi2
 3371 0586 02EBC102 		add	r2, r2, r1, lsl #3
 3372              	.LVL411:
 572:Drivers/STM32L5xx_HAL_Driver/Src/stm32l5xx_ll_usb.c ****       }
 3373              		.loc 1 572 9 discriminator 1 view .LVU1148
 3374              	.LBB105:
 572:Drivers/STM32L5xx_HAL_Driver/Src/stm32l5xx_ll_usb.c ****       }
 3375              		.loc 1 572 9 discriminator 1 view .LVU1149
 572:Drivers/STM32L5xx_HAL_Driver/Src/stm32l5xx_ll_usb.c ****       }
 3376              		.loc 1 572 9 discriminator 1 view .LVU1150
 3377 058a B2F80214 		ldrh	r1, [r2, #1026]
 3378 058e C1F30901 		ubfx	r1, r1, #0, #10
 3379 0592 A2F80214 		strh	r1, [r2, #1026]	@ movhi
 572:Drivers/STM32L5xx_HAL_Driver/Src/stm32l5xx_ll_usb.c ****       }
 3380              		.loc 1 572 9 discriminator 1 view .LVU1151
 3381 0596 3E2B     		cmp	r3, #62
 3382 0598 40F2D780 		bls	.L149
 572:Drivers/STM32L5xx_HAL_Driver/Src/stm32l5xx_ll_usb.c ****       }
 3383              		.loc 1 572 9 discriminator 3 view .LVU1152
ARM GAS  /tmp/ccQg3iPh.s 			page 86


 572:Drivers/STM32L5xx_HAL_Driver/Src/stm32l5xx_ll_usb.c ****       }
 3384              		.loc 1 572 9 discriminator 3 view .LVU1153
 3385 059c 5809     		lsrs	r0, r3, #5
 3386              	.LVL412:
 572:Drivers/STM32L5xx_HAL_Driver/Src/stm32l5xx_ll_usb.c ****       }
 3387              		.loc 1 572 9 discriminator 3 view .LVU1154
 3388 059e 13F01F0F 		tst	r3, #31
 3389 05a2 00D1     		bne	.L150
 572:Drivers/STM32L5xx_HAL_Driver/Src/stm32l5xx_ll_usb.c ****       }
 3390              		.loc 1 572 9 discriminator 5 view .LVU1155
 3391 05a4 0138     		subs	r0, r0, #1
 3392              	.LVL413:
 3393              	.L150:
 572:Drivers/STM32L5xx_HAL_Driver/Src/stm32l5xx_ll_usb.c ****       }
 3394              		.loc 1 572 9 discriminator 7 view .LVU1156
 3395 05a6 B2F80214 		ldrh	r1, [r2, #1026]
 3396 05aa 89B2     		uxth	r1, r1
 3397 05ac 8002     		lsls	r0, r0, #10
 3398              	.LVL414:
 572:Drivers/STM32L5xx_HAL_Driver/Src/stm32l5xx_ll_usb.c ****       }
 3399              		.loc 1 572 9 is_stmt 0 discriminator 7 view .LVU1157
 3400 05ae 80B2     		uxth	r0, r0
 3401 05b0 0143     		orrs	r1, r1, r0
 3402 05b2 41F40041 		orr	r1, r1, #32768
 3403 05b6 A2F80214 		strh	r1, [r2, #1026]	@ movhi
 572:Drivers/STM32L5xx_HAL_Driver/Src/stm32l5xx_ll_usb.c ****       }
 3404              		.loc 1 572 9 is_stmt 1 discriminator 7 view .LVU1158
 3405              	.LVL415:
 3406              	.L148:
 572:Drivers/STM32L5xx_HAL_Driver/Src/stm32l5xx_ll_usb.c ****       }
 3407              		.loc 1 572 9 is_stmt 0 discriminator 7 view .LVU1159
 3408              	.LBE105:
 3409              	.LBE104:
 572:Drivers/STM32L5xx_HAL_Driver/Src/stm32l5xx_ll_usb.c ****       }
 3410              		.loc 1 572 9 is_stmt 1 discriminator 18 view .LVU1160
 572:Drivers/STM32L5xx_HAL_Driver/Src/stm32l5xx_ll_usb.c ****       }
 3411              		.loc 1 572 9 discriminator 18 view .LVU1161
 572:Drivers/STM32L5xx_HAL_Driver/Src/stm32l5xx_ll_usb.c ****       }
 3412              		.loc 1 572 9 discriminator 18 view .LVU1162
 3413              	.LBB107:
 572:Drivers/STM32L5xx_HAL_Driver/Src/stm32l5xx_ll_usb.c ****       }
 3414              		.loc 1 572 9 discriminator 18 view .LVU1163
 572:Drivers/STM32L5xx_HAL_Driver/Src/stm32l5xx_ll_usb.c ****       }
 3415              		.loc 1 572 9 discriminator 18 view .LVU1164
 572:Drivers/STM32L5xx_HAL_Driver/Src/stm32l5xx_ll_usb.c ****       }
 3416              		.loc 1 572 9 discriminator 18 view .LVU1165
 3417 05ba 6278     		ldrb	r2, [r4, #1]	@ zero_extendqisi2
 3418 05bc 002A     		cmp	r2, #0
 3419 05be 40F0F680 		bne	.L153
 572:Drivers/STM32L5xx_HAL_Driver/Src/stm32l5xx_ll_usb.c ****       }
 3420              		.loc 1 572 9 discriminator 19 view .LVU1166
 3421              	.LBB108:
 572:Drivers/STM32L5xx_HAL_Driver/Src/stm32l5xx_ll_usb.c ****       }
 3422              		.loc 1 572 9 discriminator 19 view .LVU1167
 3423              	.LVL416:
 572:Drivers/STM32L5xx_HAL_Driver/Src/stm32l5xx_ll_usb.c ****       }
 3424              		.loc 1 572 9 discriminator 19 view .LVU1168
ARM GAS  /tmp/ccQg3iPh.s 			page 87


 572:Drivers/STM32L5xx_HAL_Driver/Src/stm32l5xx_ll_usb.c ****       }
 3425              		.loc 1 572 9 discriminator 19 view .LVU1169
 3426 05c2 B5F85020 		ldrh	r2, [r5, #80]
 3427 05c6 15FA82F2 		uxtah	r2, r5, r2
 3428              	.LVL417:
 572:Drivers/STM32L5xx_HAL_Driver/Src/stm32l5xx_ll_usb.c ****       }
 3429              		.loc 1 572 9 discriminator 19 view .LVU1170
 3430 05ca 2178     		ldrb	r1, [r4]	@ zero_extendqisi2
 3431 05cc 02EBC102 		add	r2, r2, r1, lsl #3
 3432              	.LVL418:
 572:Drivers/STM32L5xx_HAL_Driver/Src/stm32l5xx_ll_usb.c ****       }
 3433              		.loc 1 572 9 discriminator 19 view .LVU1171
 3434              	.LBB109:
 572:Drivers/STM32L5xx_HAL_Driver/Src/stm32l5xx_ll_usb.c ****       }
 3435              		.loc 1 572 9 discriminator 19 view .LVU1172
 572:Drivers/STM32L5xx_HAL_Driver/Src/stm32l5xx_ll_usb.c ****       }
 3436              		.loc 1 572 9 discriminator 19 view .LVU1173
 3437 05d0 B2F80614 		ldrh	r1, [r2, #1030]
 3438 05d4 C1F30901 		ubfx	r1, r1, #0, #10
 3439 05d8 A2F80614 		strh	r1, [r2, #1030]	@ movhi
 572:Drivers/STM32L5xx_HAL_Driver/Src/stm32l5xx_ll_usb.c ****       }
 3440              		.loc 1 572 9 discriminator 19 view .LVU1174
 3441 05dc 3E2B     		cmp	r3, #62
 3442 05de 40F2CD80 		bls	.L154
 572:Drivers/STM32L5xx_HAL_Driver/Src/stm32l5xx_ll_usb.c ****       }
 3443              		.loc 1 572 9 discriminator 21 view .LVU1175
 572:Drivers/STM32L5xx_HAL_Driver/Src/stm32l5xx_ll_usb.c ****       }
 3444              		.loc 1 572 9 discriminator 21 view .LVU1176
 3445 05e2 5909     		lsrs	r1, r3, #5
 3446              	.LVL419:
 572:Drivers/STM32L5xx_HAL_Driver/Src/stm32l5xx_ll_usb.c ****       }
 3447              		.loc 1 572 9 discriminator 21 view .LVU1177
 3448 05e4 13F01F0F 		tst	r3, #31
 3449 05e8 00D1     		bne	.L155
 572:Drivers/STM32L5xx_HAL_Driver/Src/stm32l5xx_ll_usb.c ****       }
 3450              		.loc 1 572 9 discriminator 23 view .LVU1178
 3451 05ea 0139     		subs	r1, r1, #1
 3452              	.LVL420:
 3453              	.L155:
 572:Drivers/STM32L5xx_HAL_Driver/Src/stm32l5xx_ll_usb.c ****       }
 3454              		.loc 1 572 9 discriminator 25 view .LVU1179
 3455 05ec B2F80634 		ldrh	r3, [r2, #1030]
 3456              	.LVL421:
 572:Drivers/STM32L5xx_HAL_Driver/Src/stm32l5xx_ll_usb.c ****       }
 3457              		.loc 1 572 9 is_stmt 0 discriminator 25 view .LVU1180
 3458 05f0 9BB2     		uxth	r3, r3
 3459 05f2 8902     		lsls	r1, r1, #10
 3460              	.LVL422:
 572:Drivers/STM32L5xx_HAL_Driver/Src/stm32l5xx_ll_usb.c ****       }
 3461              		.loc 1 572 9 discriminator 25 view .LVU1181
 3462 05f4 89B2     		uxth	r1, r1
 3463 05f6 0B43     		orrs	r3, r3, r1
 3464 05f8 43F40043 		orr	r3, r3, #32768
 3465 05fc A2F80634 		strh	r3, [r2, #1030]	@ movhi
 572:Drivers/STM32L5xx_HAL_Driver/Src/stm32l5xx_ll_usb.c ****       }
 3466              		.loc 1 572 9 is_stmt 1 discriminator 25 view .LVU1182
 3467 0600 2EE5     		b	.L130
ARM GAS  /tmp/ccQg3iPh.s 			page 88


 3468              	.LVL423:
 3469              	.L167:
 572:Drivers/STM32L5xx_HAL_Driver/Src/stm32l5xx_ll_usb.c ****       }
 3470              		.loc 1 572 9 is_stmt 0 discriminator 25 view .LVU1183
 3471              	.LBE109:
 3472              	.LBE108:
 3473              	.LBE107:
 542:Drivers/STM32L5xx_HAL_Driver/Src/stm32l5xx_ll_usb.c **** 
 3474              		.loc 1 542 9 is_stmt 1 view .LVU1184
 542:Drivers/STM32L5xx_HAL_Driver/Src/stm32l5xx_ll_usb.c **** 
 3475              		.loc 1 542 9 view .LVU1185
 542:Drivers/STM32L5xx_HAL_Driver/Src/stm32l5xx_ll_usb.c **** 
 3476              		.loc 1 542 9 view .LVU1186
 3477 0602 F2B9     		cbnz	r2, .L134
 542:Drivers/STM32L5xx_HAL_Driver/Src/stm32l5xx_ll_usb.c **** 
 3478              		.loc 1 542 9 discriminator 1 view .LVU1187
 3479              	.LBB112:
 542:Drivers/STM32L5xx_HAL_Driver/Src/stm32l5xx_ll_usb.c **** 
 3480              		.loc 1 542 9 discriminator 1 view .LVU1188
 3481              	.LVL424:
 542:Drivers/STM32L5xx_HAL_Driver/Src/stm32l5xx_ll_usb.c **** 
 3482              		.loc 1 542 9 discriminator 1 view .LVU1189
 542:Drivers/STM32L5xx_HAL_Driver/Src/stm32l5xx_ll_usb.c **** 
 3483              		.loc 1 542 9 discriminator 1 view .LVU1190
 3484 0604 B0F85030 		ldrh	r3, [r0, #80]
 3485 0608 10FA83F3 		uxtah	r3, r0, r3
 3486              	.LVL425:
 542:Drivers/STM32L5xx_HAL_Driver/Src/stm32l5xx_ll_usb.c **** 
 3487              		.loc 1 542 9 discriminator 1 view .LVU1191
 3488 060c 0A78     		ldrb	r2, [r1]	@ zero_extendqisi2
 3489 060e 03EBC203 		add	r3, r3, r2, lsl #3
 3490              	.LVL426:
 542:Drivers/STM32L5xx_HAL_Driver/Src/stm32l5xx_ll_usb.c **** 
 3491              		.loc 1 542 9 discriminator 1 view .LVU1192
 3492              	.LBB113:
 542:Drivers/STM32L5xx_HAL_Driver/Src/stm32l5xx_ll_usb.c **** 
 3493              		.loc 1 542 9 discriminator 1 view .LVU1193
 542:Drivers/STM32L5xx_HAL_Driver/Src/stm32l5xx_ll_usb.c **** 
 3494              		.loc 1 542 9 discriminator 1 view .LVU1194
 3495 0612 B3F80224 		ldrh	r2, [r3, #1026]
 3496 0616 C2F30902 		ubfx	r2, r2, #0, #10
 3497 061a A3F80224 		strh	r2, [r3, #1026]	@ movhi
 542:Drivers/STM32L5xx_HAL_Driver/Src/stm32l5xx_ll_usb.c **** 
 3498              		.loc 1 542 9 discriminator 1 view .LVU1195
 3499 061e 0A69     		ldr	r2, [r1, #16]
 3500 0620 3E2A     		cmp	r2, #62
 3501 0622 31D9     		bls	.L135
 542:Drivers/STM32L5xx_HAL_Driver/Src/stm32l5xx_ll_usb.c **** 
 3502              		.loc 1 542 9 discriminator 3 view .LVU1196
 542:Drivers/STM32L5xx_HAL_Driver/Src/stm32l5xx_ll_usb.c **** 
 3503              		.loc 1 542 9 discriminator 3 view .LVU1197
 3504 0624 5109     		lsrs	r1, r2, #5
 3505              	.LVL427:
 542:Drivers/STM32L5xx_HAL_Driver/Src/stm32l5xx_ll_usb.c **** 
 3506              		.loc 1 542 9 discriminator 3 view .LVU1198
 3507 0626 12F01F0F 		tst	r2, #31
 3508 062a 00D1     		bne	.L136
ARM GAS  /tmp/ccQg3iPh.s 			page 89


 542:Drivers/STM32L5xx_HAL_Driver/Src/stm32l5xx_ll_usb.c **** 
 3509              		.loc 1 542 9 discriminator 5 view .LVU1199
 3510 062c 0139     		subs	r1, r1, #1
 3511              	.LVL428:
 3512              	.L136:
 542:Drivers/STM32L5xx_HAL_Driver/Src/stm32l5xx_ll_usb.c **** 
 3513              		.loc 1 542 9 discriminator 7 view .LVU1200
 3514 062e B3F80224 		ldrh	r2, [r3, #1026]
 3515 0632 92B2     		uxth	r2, r2
 3516 0634 8902     		lsls	r1, r1, #10
 3517              	.LVL429:
 542:Drivers/STM32L5xx_HAL_Driver/Src/stm32l5xx_ll_usb.c **** 
 3518              		.loc 1 542 9 is_stmt 0 discriminator 7 view .LVU1201
 3519 0636 89B2     		uxth	r1, r1
 3520 0638 0A43     		orrs	r2, r2, r1
 3521 063a 42F40042 		orr	r2, r2, #32768
 3522 063e A3F80224 		strh	r2, [r3, #1026]	@ movhi
 542:Drivers/STM32L5xx_HAL_Driver/Src/stm32l5xx_ll_usb.c **** 
 3523              		.loc 1 542 9 is_stmt 1 discriminator 7 view .LVU1202
 3524              	.LVL430:
 3525              	.L134:
 542:Drivers/STM32L5xx_HAL_Driver/Src/stm32l5xx_ll_usb.c **** 
 3526              		.loc 1 542 9 is_stmt 0 discriminator 7 view .LVU1203
 3527              	.LBE113:
 3528              	.LBE112:
 542:Drivers/STM32L5xx_HAL_Driver/Src/stm32l5xx_ll_usb.c **** 
 3529              		.loc 1 542 9 is_stmt 1 discriminator 18 view .LVU1204
 542:Drivers/STM32L5xx_HAL_Driver/Src/stm32l5xx_ll_usb.c **** 
 3530              		.loc 1 542 9 discriminator 18 view .LVU1205
 542:Drivers/STM32L5xx_HAL_Driver/Src/stm32l5xx_ll_usb.c **** 
 3531              		.loc 1 542 9 discriminator 18 view .LVU1206
 3532              	.LBB115:
 542:Drivers/STM32L5xx_HAL_Driver/Src/stm32l5xx_ll_usb.c **** 
 3533              		.loc 1 542 9 discriminator 18 view .LVU1207
 542:Drivers/STM32L5xx_HAL_Driver/Src/stm32l5xx_ll_usb.c **** 
 3534              		.loc 1 542 9 discriminator 18 view .LVU1208
 542:Drivers/STM32L5xx_HAL_Driver/Src/stm32l5xx_ll_usb.c **** 
 3535              		.loc 1 542 9 discriminator 18 view .LVU1209
 3536 0642 6378     		ldrb	r3, [r4, #1]	@ zero_extendqisi2
 3537 0644 002B     		cmp	r3, #0
 3538 0646 51D1     		bne	.L139
 542:Drivers/STM32L5xx_HAL_Driver/Src/stm32l5xx_ll_usb.c **** 
 3539              		.loc 1 542 9 discriminator 19 view .LVU1210
 3540              	.LBB116:
 542:Drivers/STM32L5xx_HAL_Driver/Src/stm32l5xx_ll_usb.c **** 
 3541              		.loc 1 542 9 discriminator 19 view .LVU1211
 3542              	.LVL431:
 542:Drivers/STM32L5xx_HAL_Driver/Src/stm32l5xx_ll_usb.c **** 
 3543              		.loc 1 542 9 discriminator 19 view .LVU1212
 542:Drivers/STM32L5xx_HAL_Driver/Src/stm32l5xx_ll_usb.c **** 
 3544              		.loc 1 542 9 discriminator 19 view .LVU1213
 3545 0648 B5F85030 		ldrh	r3, [r5, #80]
 3546 064c 15FA83F3 		uxtah	r3, r5, r3
 3547              	.LVL432:
 542:Drivers/STM32L5xx_HAL_Driver/Src/stm32l5xx_ll_usb.c **** 
 3548              		.loc 1 542 9 discriminator 19 view .LVU1214
 3549 0650 2278     		ldrb	r2, [r4]	@ zero_extendqisi2
ARM GAS  /tmp/ccQg3iPh.s 			page 90


 3550 0652 03EBC203 		add	r3, r3, r2, lsl #3
 3551              	.LVL433:
 542:Drivers/STM32L5xx_HAL_Driver/Src/stm32l5xx_ll_usb.c **** 
 3552              		.loc 1 542 9 discriminator 19 view .LVU1215
 3553              	.LBB117:
 542:Drivers/STM32L5xx_HAL_Driver/Src/stm32l5xx_ll_usb.c **** 
 3554              		.loc 1 542 9 discriminator 19 view .LVU1216
 542:Drivers/STM32L5xx_HAL_Driver/Src/stm32l5xx_ll_usb.c **** 
 3555              		.loc 1 542 9 discriminator 19 view .LVU1217
 3556 0656 B3F80624 		ldrh	r2, [r3, #1030]
 3557 065a C2F30902 		ubfx	r2, r2, #0, #10
 3558 065e A3F80624 		strh	r2, [r3, #1030]	@ movhi
 542:Drivers/STM32L5xx_HAL_Driver/Src/stm32l5xx_ll_usb.c **** 
 3559              		.loc 1 542 9 discriminator 19 view .LVU1218
 3560 0662 2269     		ldr	r2, [r4, #16]
 3561 0664 3E2A     		cmp	r2, #62
 3562 0666 28D9     		bls	.L140
 542:Drivers/STM32L5xx_HAL_Driver/Src/stm32l5xx_ll_usb.c **** 
 3563              		.loc 1 542 9 discriminator 21 view .LVU1219
 542:Drivers/STM32L5xx_HAL_Driver/Src/stm32l5xx_ll_usb.c **** 
 3564              		.loc 1 542 9 discriminator 21 view .LVU1220
 3565 0668 5109     		lsrs	r1, r2, #5
 3566              	.LVL434:
 542:Drivers/STM32L5xx_HAL_Driver/Src/stm32l5xx_ll_usb.c **** 
 3567              		.loc 1 542 9 discriminator 21 view .LVU1221
 3568 066a 12F01F0F 		tst	r2, #31
 3569 066e 00D1     		bne	.L141
 542:Drivers/STM32L5xx_HAL_Driver/Src/stm32l5xx_ll_usb.c **** 
 3570              		.loc 1 542 9 discriminator 23 view .LVU1222
 3571 0670 0139     		subs	r1, r1, #1
 3572              	.LVL435:
 3573              	.L141:
 542:Drivers/STM32L5xx_HAL_Driver/Src/stm32l5xx_ll_usb.c **** 
 3574              		.loc 1 542 9 discriminator 25 view .LVU1223
 3575 0672 B3F80624 		ldrh	r2, [r3, #1030]
 3576 0676 92B2     		uxth	r2, r2
 3577 0678 8902     		lsls	r1, r1, #10
 3578              	.LVL436:
 542:Drivers/STM32L5xx_HAL_Driver/Src/stm32l5xx_ll_usb.c **** 
 3579              		.loc 1 542 9 is_stmt 0 discriminator 25 view .LVU1224
 3580 067a 89B2     		uxth	r1, r1
 3581 067c 0A43     		orrs	r2, r2, r1
 3582 067e 42F40042 		orr	r2, r2, #32768
 3583 0682 A3F80624 		strh	r2, [r3, #1030]	@ movhi
 542:Drivers/STM32L5xx_HAL_Driver/Src/stm32l5xx_ll_usb.c **** 
 3584              		.loc 1 542 9 is_stmt 1 discriminator 25 view .LVU1225
 3585 0686 33E0     		b	.L142
 3586              	.LVL437:
 3587              	.L135:
 542:Drivers/STM32L5xx_HAL_Driver/Src/stm32l5xx_ll_usb.c **** 
 3588              		.loc 1 542 9 is_stmt 0 discriminator 25 view .LVU1226
 3589              	.LBE117:
 3590              	.LBE116:
 3591              	.LBE115:
 3592              	.LBB120:
 3593              	.LBB114:
 542:Drivers/STM32L5xx_HAL_Driver/Src/stm32l5xx_ll_usb.c **** 
ARM GAS  /tmp/ccQg3iPh.s 			page 91


 3594              		.loc 1 542 9 is_stmt 1 discriminator 4 view .LVU1227
 3595 0688 4AB9     		cbnz	r2, .L137
 542:Drivers/STM32L5xx_HAL_Driver/Src/stm32l5xx_ll_usb.c **** 
 3596              		.loc 1 542 9 discriminator 9 view .LVU1228
 3597 068a B3F80224 		ldrh	r2, [r3, #1026]
 3598 068e 6FEA4242 		mvn	r2, r2, lsl #17
 3599 0692 6FEA5242 		mvn	r2, r2, lsr #17
 3600 0696 92B2     		uxth	r2, r2
 3601 0698 A3F80224 		strh	r2, [r3, #1026]	@ movhi
 3602 069c D1E7     		b	.L134
 3603              	.L137:
 542:Drivers/STM32L5xx_HAL_Driver/Src/stm32l5xx_ll_usb.c **** 
 3604              		.loc 1 542 9 discriminator 10 view .LVU1229
 542:Drivers/STM32L5xx_HAL_Driver/Src/stm32l5xx_ll_usb.c **** 
 3605              		.loc 1 542 9 discriminator 10 view .LVU1230
 3606 069e 5108     		lsrs	r1, r2, #1
 3607              	.LVL438:
 542:Drivers/STM32L5xx_HAL_Driver/Src/stm32l5xx_ll_usb.c **** 
 3608              		.loc 1 542 9 discriminator 10 view .LVU1231
 3609 06a0 12F0010F 		tst	r2, #1
 3610 06a4 00D0     		beq	.L138
 542:Drivers/STM32L5xx_HAL_Driver/Src/stm32l5xx_ll_usb.c **** 
 3611              		.loc 1 542 9 discriminator 12 view .LVU1232
 3612 06a6 0131     		adds	r1, r1, #1
 3613              	.LVL439:
 3614              	.L138:
 542:Drivers/STM32L5xx_HAL_Driver/Src/stm32l5xx_ll_usb.c **** 
 3615              		.loc 1 542 9 discriminator 14 view .LVU1233
 3616 06a8 B3F80224 		ldrh	r2, [r3, #1026]
 3617 06ac 90B2     		uxth	r0, r2
 3618              	.LVL440:
 542:Drivers/STM32L5xx_HAL_Driver/Src/stm32l5xx_ll_usb.c **** 
 3619              		.loc 1 542 9 is_stmt 0 discriminator 14 view .LVU1234
 3620 06ae 8A02     		lsls	r2, r1, #10
 3621 06b0 92B2     		uxth	r2, r2
 3622 06b2 0243     		orrs	r2, r2, r0
 3623 06b4 A3F80224 		strh	r2, [r3, #1026]	@ movhi
 3624 06b8 C3E7     		b	.L134
 3625              	.LVL441:
 3626              	.L140:
 542:Drivers/STM32L5xx_HAL_Driver/Src/stm32l5xx_ll_usb.c **** 
 3627              		.loc 1 542 9 discriminator 14 view .LVU1235
 3628              	.LBE114:
 3629              	.LBE120:
 3630              	.LBB121:
 3631              	.LBB119:
 3632              	.LBB118:
 542:Drivers/STM32L5xx_HAL_Driver/Src/stm32l5xx_ll_usb.c **** 
 3633              		.loc 1 542 9 is_stmt 1 discriminator 22 view .LVU1236
 3634 06ba 4AB9     		cbnz	r2, .L143
 542:Drivers/STM32L5xx_HAL_Driver/Src/stm32l5xx_ll_usb.c **** 
 3635              		.loc 1 542 9 discriminator 27 view .LVU1237
 3636 06bc B3F80624 		ldrh	r2, [r3, #1030]
 3637 06c0 6FEA4242 		mvn	r2, r2, lsl #17
 3638 06c4 6FEA5242 		mvn	r2, r2, lsr #17
 3639 06c8 92B2     		uxth	r2, r2
 3640 06ca A3F80624 		strh	r2, [r3, #1030]	@ movhi
ARM GAS  /tmp/ccQg3iPh.s 			page 92


 3641 06ce 0FE0     		b	.L142
 3642              	.L143:
 542:Drivers/STM32L5xx_HAL_Driver/Src/stm32l5xx_ll_usb.c **** 
 3643              		.loc 1 542 9 discriminator 28 view .LVU1238
 542:Drivers/STM32L5xx_HAL_Driver/Src/stm32l5xx_ll_usb.c **** 
 3644              		.loc 1 542 9 discriminator 28 view .LVU1239
 3645 06d0 5108     		lsrs	r1, r2, #1
 3646              	.LVL442:
 542:Drivers/STM32L5xx_HAL_Driver/Src/stm32l5xx_ll_usb.c **** 
 3647              		.loc 1 542 9 discriminator 28 view .LVU1240
 3648 06d2 12F0010F 		tst	r2, #1
 3649 06d6 00D0     		beq	.L144
 542:Drivers/STM32L5xx_HAL_Driver/Src/stm32l5xx_ll_usb.c **** 
 3650              		.loc 1 542 9 discriminator 30 view .LVU1241
 3651 06d8 0131     		adds	r1, r1, #1
 3652              	.LVL443:
 3653              	.L144:
 542:Drivers/STM32L5xx_HAL_Driver/Src/stm32l5xx_ll_usb.c **** 
 3654              		.loc 1 542 9 discriminator 32 view .LVU1242
 3655 06da B3F80624 		ldrh	r2, [r3, #1030]
 3656 06de 90B2     		uxth	r0, r2
 3657 06e0 8A02     		lsls	r2, r1, #10
 3658 06e2 92B2     		uxth	r2, r2
 3659 06e4 0243     		orrs	r2, r2, r0
 3660 06e6 A3F80624 		strh	r2, [r3, #1030]	@ movhi
 3661 06ea 01E0     		b	.L142
 3662              	.LVL444:
 3663              	.L139:
 542:Drivers/STM32L5xx_HAL_Driver/Src/stm32l5xx_ll_usb.c **** 
 3664              		.loc 1 542 9 is_stmt 0 discriminator 32 view .LVU1243
 3665              	.LBE118:
 3666              	.LBE119:
 542:Drivers/STM32L5xx_HAL_Driver/Src/stm32l5xx_ll_usb.c **** 
 3667              		.loc 1 542 9 is_stmt 1 discriminator 20 view .LVU1244
 3668 06ec 012B     		cmp	r3, #1
 3669 06ee 1DD0     		beq	.L168
 3670              	.LVL445:
 3671              	.L142:
 542:Drivers/STM32L5xx_HAL_Driver/Src/stm32l5xx_ll_usb.c **** 
 3672              		.loc 1 542 9 is_stmt 0 discriminator 20 view .LVU1245
 3673              	.LBE121:
 542:Drivers/STM32L5xx_HAL_Driver/Src/stm32l5xx_ll_usb.c **** 
 3674              		.loc 1 542 9 is_stmt 1 discriminator 36 view .LVU1246
 542:Drivers/STM32L5xx_HAL_Driver/Src/stm32l5xx_ll_usb.c **** 
 3675              		.loc 1 542 9 discriminator 36 view .LVU1247
 545:Drivers/STM32L5xx_HAL_Driver/Src/stm32l5xx_ll_usb.c ****         {
 3676              		.loc 1 545 9 discriminator 36 view .LVU1248
 545:Drivers/STM32L5xx_HAL_Driver/Src/stm32l5xx_ll_usb.c ****         {
 3677              		.loc 1 545 15 is_stmt 0 discriminator 36 view .LVU1249
 3678 06f0 E369     		ldr	r3, [r4, #28]
 545:Drivers/STM32L5xx_HAL_Driver/Src/stm32l5xx_ll_usb.c ****         {
 3679              		.loc 1 545 12 discriminator 36 view .LVU1250
 3680 06f2 002B     		cmp	r3, #0
 3681 06f4 3FF4B4AC 		beq	.L130
 548:Drivers/STM32L5xx_HAL_Driver/Src/stm32l5xx_ll_usb.c **** 
 3682              		.loc 1 548 11 is_stmt 1 view .LVU1251
 548:Drivers/STM32L5xx_HAL_Driver/Src/stm32l5xx_ll_usb.c **** 
ARM GAS  /tmp/ccQg3iPh.s 			page 93


 3683              		.loc 1 548 20 is_stmt 0 view .LVU1252
 3684 06f8 2278     		ldrb	r2, [r4]	@ zero_extendqisi2
 548:Drivers/STM32L5xx_HAL_Driver/Src/stm32l5xx_ll_usb.c **** 
 3685              		.loc 1 548 18 view .LVU1253
 3686 06fa 35F82210 		ldrh	r1, [r5, r2, lsl #2]
 3687              	.LVL446:
 551:Drivers/STM32L5xx_HAL_Driver/Src/stm32l5xx_ll_usb.c ****               (((wEPVal & USB_EP_DTOG_RX) == 0U) && ((wEPVal & USB_EP_DTOG_TX) == 0U)))
 3688              		.loc 1 551 11 is_stmt 1 view .LVU1254
 3689 06fe 44F24003 		movw	r3, #16448
 3690 0702 03EA0100 		and	r0, r3, r1
 551:Drivers/STM32L5xx_HAL_Driver/Src/stm32l5xx_ll_usb.c ****               (((wEPVal & USB_EP_DTOG_RX) == 0U) && ((wEPVal & USB_EP_DTOG_TX) == 0U)))
 3691              		.loc 1 551 14 is_stmt 0 view .LVU1255
 3692 0706 8B43     		bics	r3, r3, r1
 3693 0708 02D0     		beq	.L145
 551:Drivers/STM32L5xx_HAL_Driver/Src/stm32l5xx_ll_usb.c ****               (((wEPVal & USB_EP_DTOG_RX) == 0U) && ((wEPVal & USB_EP_DTOG_TX) == 0U)))
 3694              		.loc 1 551 88 discriminator 1 view .LVU1256
 3695 070a 0028     		cmp	r0, #0
 3696 070c 7FF4A8AC 		bne	.L130
 3697              	.L145:
 554:Drivers/STM32L5xx_HAL_Driver/Src/stm32l5xx_ll_usb.c ****           }
 3698              		.loc 1 554 13 is_stmt 1 discriminator 1 view .LVU1257
 554:Drivers/STM32L5xx_HAL_Driver/Src/stm32l5xx_ll_usb.c ****           }
 3699              		.loc 1 554 13 discriminator 1 view .LVU1258
 554:Drivers/STM32L5xx_HAL_Driver/Src/stm32l5xx_ll_usb.c ****           }
 3700              		.loc 1 554 13 discriminator 1 view .LVU1259
 3701              	.LBB122:
 554:Drivers/STM32L5xx_HAL_Driver/Src/stm32l5xx_ll_usb.c ****           }
 3702              		.loc 1 554 13 discriminator 1 view .LVU1260
 554:Drivers/STM32L5xx_HAL_Driver/Src/stm32l5xx_ll_usb.c ****           }
 3703              		.loc 1 554 13 discriminator 1 view .LVU1261
 3704 0710 35F82230 		ldrh	r3, [r5, r2, lsl #2]
 3705 0714 9BB2     		uxth	r3, r3
 3706 0716 23F4E043 		bic	r3, r3, #28672
 3707 071a 23F07003 		bic	r3, r3, #112
 3708              	.LVL447:
 554:Drivers/STM32L5xx_HAL_Driver/Src/stm32l5xx_ll_usb.c ****           }
 3709              		.loc 1 554 13 discriminator 1 view .LVU1262
 3710 071e 43F40043 		orr	r3, r3, #32768
 3711              	.LVL448:
 554:Drivers/STM32L5xx_HAL_Driver/Src/stm32l5xx_ll_usb.c ****           }
 3712              		.loc 1 554 13 is_stmt 0 discriminator 1 view .LVU1263
 3713 0722 43F0C003 		orr	r3, r3, #192
 3714 0726 25F82230 		strh	r3, [r5, r2, lsl #2]	@ movhi
 3715              	.LBE122:
 554:Drivers/STM32L5xx_HAL_Driver/Src/stm32l5xx_ll_usb.c ****           }
 3716              		.loc 1 554 13 is_stmt 1 discriminator 1 view .LVU1264
 3717 072a 99E4     		b	.L130
 3718              	.LVL449:
 3719              	.L168:
 3720              	.LBB123:
 542:Drivers/STM32L5xx_HAL_Driver/Src/stm32l5xx_ll_usb.c **** 
 3721              		.loc 1 542 9 discriminator 34 view .LVU1265
 3722 072c B5F85030 		ldrh	r3, [r5, #80]
 3723 0730 15FA83F3 		uxtah	r3, r5, r3
 3724              	.LVL450:
 542:Drivers/STM32L5xx_HAL_Driver/Src/stm32l5xx_ll_usb.c **** 
 3725              		.loc 1 542 9 discriminator 34 view .LVU1266
ARM GAS  /tmp/ccQg3iPh.s 			page 94


 3726 0734 2278     		ldrb	r2, [r4]	@ zero_extendqisi2
 3727 0736 03EBC203 		add	r3, r3, r2, lsl #3
 3728              	.LVL451:
 542:Drivers/STM32L5xx_HAL_Driver/Src/stm32l5xx_ll_usb.c **** 
 3729              		.loc 1 542 9 discriminator 34 view .LVU1267
 3730 073a 228A     		ldrh	r2, [r4, #16]
 3731 073c A3F80624 		strh	r2, [r3, #1030]	@ movhi
 3732 0740 D6E7     		b	.L142
 3733              	.LVL452:
 3734              	.L146:
 542:Drivers/STM32L5xx_HAL_Driver/Src/stm32l5xx_ll_usb.c **** 
 3735              		.loc 1 542 9 is_stmt 0 discriminator 34 view .LVU1268
 3736              	.LBE123:
 569:Drivers/STM32L5xx_HAL_Driver/Src/stm32l5xx_ll_usb.c ****           ep->xfer_len = 0U;
 3737              		.loc 1 569 11 is_stmt 1 view .LVU1269
 570:Drivers/STM32L5xx_HAL_Driver/Src/stm32l5xx_ll_usb.c ****         }
 3738              		.loc 1 570 11 view .LVU1270
 570:Drivers/STM32L5xx_HAL_Driver/Src/stm32l5xx_ll_usb.c ****         }
 3739              		.loc 1 570 24 is_stmt 0 view .LVU1271
 3740 0742 0023     		movs	r3, #0
 3741 0744 A361     		str	r3, [r4, #24]
 569:Drivers/STM32L5xx_HAL_Driver/Src/stm32l5xx_ll_usb.c ****           ep->xfer_len = 0U;
 3742              		.loc 1 569 15 view .LVU1272
 3743 0746 0B46     		mov	r3, r1
 3744 0748 17E7     		b	.L147
 3745              	.LVL453:
 3746              	.L149:
 3747              	.LBB124:
 3748              	.LBB106:
 572:Drivers/STM32L5xx_HAL_Driver/Src/stm32l5xx_ll_usb.c ****       }
 3749              		.loc 1 572 9 is_stmt 1 discriminator 4 view .LVU1273
 3750 074a 4BB9     		cbnz	r3, .L151
 572:Drivers/STM32L5xx_HAL_Driver/Src/stm32l5xx_ll_usb.c ****       }
 3751              		.loc 1 572 9 discriminator 9 view .LVU1274
 3752 074c B2F80214 		ldrh	r1, [r2, #1026]
 3753 0750 6FEA4141 		mvn	r1, r1, lsl #17
 3754 0754 6FEA5141 		mvn	r1, r1, lsr #17
 3755 0758 89B2     		uxth	r1, r1
 3756 075a A2F80214 		strh	r1, [r2, #1026]	@ movhi
 3757 075e 2CE7     		b	.L148
 3758              	.L151:
 572:Drivers/STM32L5xx_HAL_Driver/Src/stm32l5xx_ll_usb.c ****       }
 3759              		.loc 1 572 9 discriminator 10 view .LVU1275
 572:Drivers/STM32L5xx_HAL_Driver/Src/stm32l5xx_ll_usb.c ****       }
 3760              		.loc 1 572 9 discriminator 10 view .LVU1276
 3761 0760 5908     		lsrs	r1, r3, #1
 3762              	.LVL454:
 572:Drivers/STM32L5xx_HAL_Driver/Src/stm32l5xx_ll_usb.c ****       }
 3763              		.loc 1 572 9 discriminator 10 view .LVU1277
 3764 0762 13F0010F 		tst	r3, #1
 3765 0766 00D0     		beq	.L152
 572:Drivers/STM32L5xx_HAL_Driver/Src/stm32l5xx_ll_usb.c ****       }
 3766              		.loc 1 572 9 discriminator 12 view .LVU1278
 3767 0768 0131     		adds	r1, r1, #1
 3768              	.LVL455:
 3769              	.L152:
 572:Drivers/STM32L5xx_HAL_Driver/Src/stm32l5xx_ll_usb.c ****       }
ARM GAS  /tmp/ccQg3iPh.s 			page 95


 3770              		.loc 1 572 9 discriminator 14 view .LVU1279
 3771 076a B2F80204 		ldrh	r0, [r2, #1026]
 3772              	.LVL456:
 572:Drivers/STM32L5xx_HAL_Driver/Src/stm32l5xx_ll_usb.c ****       }
 3773              		.loc 1 572 9 is_stmt 0 discriminator 14 view .LVU1280
 3774 076e 80B2     		uxth	r0, r0
 3775 0770 8902     		lsls	r1, r1, #10
 3776              	.LVL457:
 572:Drivers/STM32L5xx_HAL_Driver/Src/stm32l5xx_ll_usb.c ****       }
 3777              		.loc 1 572 9 discriminator 14 view .LVU1281
 3778 0772 89B2     		uxth	r1, r1
 3779 0774 0143     		orrs	r1, r1, r0
 3780 0776 A2F80214 		strh	r1, [r2, #1026]	@ movhi
 3781 077a 1EE7     		b	.L148
 3782              	.LVL458:
 3783              	.L154:
 572:Drivers/STM32L5xx_HAL_Driver/Src/stm32l5xx_ll_usb.c ****       }
 3784              		.loc 1 572 9 discriminator 14 view .LVU1282
 3785              	.LBE106:
 3786              	.LBE124:
 3787              	.LBB125:
 3788              	.LBB111:
 3789              	.LBB110:
 572:Drivers/STM32L5xx_HAL_Driver/Src/stm32l5xx_ll_usb.c ****       }
 3790              		.loc 1 572 9 is_stmt 1 discriminator 22 view .LVU1283
 3791 077c 4BB9     		cbnz	r3, .L156
 572:Drivers/STM32L5xx_HAL_Driver/Src/stm32l5xx_ll_usb.c ****       }
 3792              		.loc 1 572 9 discriminator 27 view .LVU1284
 3793 077e B2F80634 		ldrh	r3, [r2, #1030]
 3794              	.LVL459:
 572:Drivers/STM32L5xx_HAL_Driver/Src/stm32l5xx_ll_usb.c ****       }
 3795              		.loc 1 572 9 is_stmt 0 discriminator 27 view .LVU1285
 3796 0782 6FEA4343 		mvn	r3, r3, lsl #17
 3797 0786 6FEA5343 		mvn	r3, r3, lsr #17
 3798 078a 9BB2     		uxth	r3, r3
 3799 078c A2F80634 		strh	r3, [r2, #1030]	@ movhi
 3800 0790 66E4     		b	.L130
 3801              	.LVL460:
 3802              	.L156:
 572:Drivers/STM32L5xx_HAL_Driver/Src/stm32l5xx_ll_usb.c ****       }
 3803              		.loc 1 572 9 is_stmt 1 discriminator 28 view .LVU1286
 572:Drivers/STM32L5xx_HAL_Driver/Src/stm32l5xx_ll_usb.c ****       }
 3804              		.loc 1 572 9 discriminator 28 view .LVU1287
 3805 0792 5908     		lsrs	r1, r3, #1
 3806              	.LVL461:
 572:Drivers/STM32L5xx_HAL_Driver/Src/stm32l5xx_ll_usb.c ****       }
 3807              		.loc 1 572 9 discriminator 28 view .LVU1288
 3808 0794 13F0010F 		tst	r3, #1
 3809 0798 00D0     		beq	.L157
 572:Drivers/STM32L5xx_HAL_Driver/Src/stm32l5xx_ll_usb.c ****       }
 3810              		.loc 1 572 9 discriminator 30 view .LVU1289
 3811 079a 0131     		adds	r1, r1, #1
 3812              	.LVL462:
 3813              	.L157:
 572:Drivers/STM32L5xx_HAL_Driver/Src/stm32l5xx_ll_usb.c ****       }
 3814              		.loc 1 572 9 discriminator 32 view .LVU1290
 3815 079c B2F80634 		ldrh	r3, [r2, #1030]
ARM GAS  /tmp/ccQg3iPh.s 			page 96


 3816              	.LVL463:
 572:Drivers/STM32L5xx_HAL_Driver/Src/stm32l5xx_ll_usb.c ****       }
 3817              		.loc 1 572 9 is_stmt 0 discriminator 32 view .LVU1291
 3818 07a0 98B2     		uxth	r0, r3
 3819 07a2 8B02     		lsls	r3, r1, #10
 3820 07a4 9BB2     		uxth	r3, r3
 3821 07a6 0343     		orrs	r3, r3, r0
 3822 07a8 A2F80634 		strh	r3, [r2, #1030]	@ movhi
 3823 07ac 58E4     		b	.L130
 3824              	.LVL464:
 3825              	.L153:
 572:Drivers/STM32L5xx_HAL_Driver/Src/stm32l5xx_ll_usb.c ****       }
 3826              		.loc 1 572 9 discriminator 32 view .LVU1292
 3827              	.LBE110:
 3828              	.LBE111:
 572:Drivers/STM32L5xx_HAL_Driver/Src/stm32l5xx_ll_usb.c ****       }
 3829              		.loc 1 572 9 is_stmt 1 discriminator 20 view .LVU1293
 3830 07ae 012A     		cmp	r2, #1
 3831 07b0 7FF456AC 		bne	.L130
 572:Drivers/STM32L5xx_HAL_Driver/Src/stm32l5xx_ll_usb.c ****       }
 3832              		.loc 1 572 9 discriminator 34 view .LVU1294
 3833 07b4 B5F85020 		ldrh	r2, [r5, #80]
 3834 07b8 15FA82F2 		uxtah	r2, r5, r2
 3835              	.LVL465:
 572:Drivers/STM32L5xx_HAL_Driver/Src/stm32l5xx_ll_usb.c ****       }
 3836              		.loc 1 572 9 discriminator 34 view .LVU1295
 3837 07bc 2178     		ldrb	r1, [r4]	@ zero_extendqisi2
 3838 07be 02EBC102 		add	r2, r2, r1, lsl #3
 3839              	.LVL466:
 572:Drivers/STM32L5xx_HAL_Driver/Src/stm32l5xx_ll_usb.c ****       }
 3840              		.loc 1 572 9 discriminator 34 view .LVU1296
 3841 07c2 9BB2     		uxth	r3, r3
 3842              	.LVL467:
 572:Drivers/STM32L5xx_HAL_Driver/Src/stm32l5xx_ll_usb.c ****       }
 3843              		.loc 1 572 9 is_stmt 0 discriminator 34 view .LVU1297
 3844 07c4 A2F80634 		strh	r3, [r2, #1030]	@ movhi
 3845 07c8 4AE4     		b	.L130
 3846              	.LVL468:
 3847              	.L158:
 572:Drivers/STM32L5xx_HAL_Driver/Src/stm32l5xx_ll_usb.c ****       }
 3848              		.loc 1 572 9 discriminator 34 view .LVU1298
 3849              	.LBE125:
 576:Drivers/STM32L5xx_HAL_Driver/Src/stm32l5xx_ll_usb.c ****       }
 3850              		.loc 1 576 16 view .LVU1299
 3851 07ca 0120     		movs	r0, #1
 3852              	.LVL469:
 576:Drivers/STM32L5xx_HAL_Driver/Src/stm32l5xx_ll_usb.c ****       }
 3853              		.loc 1 576 16 view .LVU1300
 3854 07cc 59E4     		b	.L124
 3855              		.cfi_endproc
 3856              	.LFE159:
 3858              		.section	.text.USB_ReadPMA,"ax",%progbits
 3859              		.align	1
 3860              		.global	USB_ReadPMA
 3861              		.syntax unified
 3862              		.thumb
 3863              		.thumb_func
ARM GAS  /tmp/ccQg3iPh.s 			page 97


 3865              	USB_ReadPMA:
 3866              	.LVL470:
 3867              	.LFB171:
 820:Drivers/STM32L5xx_HAL_Driver/Src/stm32l5xx_ll_usb.c **** 
 821:Drivers/STM32L5xx_HAL_Driver/Src/stm32l5xx_ll_usb.c **** /**
 822:Drivers/STM32L5xx_HAL_Driver/Src/stm32l5xx_ll_usb.c ****   * @brief Copy data from packet memory area (PMA) to user memory buffer
 823:Drivers/STM32L5xx_HAL_Driver/Src/stm32l5xx_ll_usb.c ****   * @param   USBx USB peripheral instance register address.
 824:Drivers/STM32L5xx_HAL_Driver/Src/stm32l5xx_ll_usb.c ****   * @param   pbUsrBuf pointer to user memory area.
 825:Drivers/STM32L5xx_HAL_Driver/Src/stm32l5xx_ll_usb.c ****   * @param   wPMABufAddr address into PMA.
 826:Drivers/STM32L5xx_HAL_Driver/Src/stm32l5xx_ll_usb.c ****   * @param   wNBytes no. of bytes to be copied.
 827:Drivers/STM32L5xx_HAL_Driver/Src/stm32l5xx_ll_usb.c ****   * @retval None
 828:Drivers/STM32L5xx_HAL_Driver/Src/stm32l5xx_ll_usb.c ****   */
 829:Drivers/STM32L5xx_HAL_Driver/Src/stm32l5xx_ll_usb.c **** void USB_ReadPMA(USB_TypeDef *USBx, uint8_t *pbUsrBuf, uint16_t wPMABufAddr, uint16_t wNBytes)
 830:Drivers/STM32L5xx_HAL_Driver/Src/stm32l5xx_ll_usb.c **** {
 3868              		.loc 1 830 1 is_stmt 1 view -0
 3869              		.cfi_startproc
 3870              		@ args = 0, pretend = 0, frame = 0
 3871              		@ frame_needed = 0, uses_anonymous_args = 0
 3872              		@ link register save eliminated.
 3873              		.loc 1 830 1 is_stmt 0 view .LVU1302
 3874 0000 10B4     		push	{r4}
 3875              	.LCFI6:
 3876              		.cfi_def_cfa_offset 4
 3877              		.cfi_offset 4, -4
 831:Drivers/STM32L5xx_HAL_Driver/Src/stm32l5xx_ll_usb.c ****   uint32_t n = (uint32_t)wNBytes >> 1;
 3878              		.loc 1 831 3 is_stmt 1 view .LVU1303
 3879              		.loc 1 831 34 is_stmt 0 view .LVU1304
 3880 0002 5C08     		lsrs	r4, r3, #1
 3881              	.LVL471:
 832:Drivers/STM32L5xx_HAL_Driver/Src/stm32l5xx_ll_usb.c ****   uint32_t BaseAddr = (uint32_t)USBx;
 3882              		.loc 1 832 3 is_stmt 1 view .LVU1305
 833:Drivers/STM32L5xx_HAL_Driver/Src/stm32l5xx_ll_usb.c ****   uint32_t count;
 3883              		.loc 1 833 3 view .LVU1306
 834:Drivers/STM32L5xx_HAL_Driver/Src/stm32l5xx_ll_usb.c ****   uint32_t RdVal;
 3884              		.loc 1 834 3 view .LVU1307
 835:Drivers/STM32L5xx_HAL_Driver/Src/stm32l5xx_ll_usb.c ****   __IO uint16_t *pdwVal;
 3885              		.loc 1 835 3 view .LVU1308
 836:Drivers/STM32L5xx_HAL_Driver/Src/stm32l5xx_ll_usb.c ****   uint8_t *pBuf = pbUsrBuf;
 3886              		.loc 1 836 3 view .LVU1309
 837:Drivers/STM32L5xx_HAL_Driver/Src/stm32l5xx_ll_usb.c **** 
 838:Drivers/STM32L5xx_HAL_Driver/Src/stm32l5xx_ll_usb.c ****   pdwVal = (__IO uint16_t *)(BaseAddr + 0x400U + ((uint32_t)wPMABufAddr * PMA_ACCESS));
 3887              		.loc 1 838 3 view .LVU1310
 3888              		.loc 1 838 48 is_stmt 0 view .LVU1311
 3889 0004 0244     		add	r2, r2, r0
 3890              	.LVL472:
 3891              		.loc 1 838 48 view .LVU1312
 3892 0006 02F58062 		add	r2, r2, #1024
 3893              	.LVL473:
 839:Drivers/STM32L5xx_HAL_Driver/Src/stm32l5xx_ll_usb.c **** 
 840:Drivers/STM32L5xx_HAL_Driver/Src/stm32l5xx_ll_usb.c ****   for (count = n; count != 0U; count--)
 3894              		.loc 1 840 3 is_stmt 1 view .LVU1313
 3895              		.loc 1 840 3 is_stmt 0 view .LVU1314
 3896 000a 07E0     		b	.L170
 3897              	.LVL474:
 3898              	.L171:
 841:Drivers/STM32L5xx_HAL_Driver/Src/stm32l5xx_ll_usb.c ****   {
 842:Drivers/STM32L5xx_HAL_Driver/Src/stm32l5xx_ll_usb.c ****     RdVal = *(__IO uint16_t *)pdwVal;
ARM GAS  /tmp/ccQg3iPh.s 			page 98


 3899              		.loc 1 842 5 is_stmt 1 discriminator 3 view .LVU1315
 3900              		.loc 1 842 13 is_stmt 0 discriminator 3 view .LVU1316
 3901 000c 32F8020B 		ldrh	r0, [r2], #2
 3902              	.LVL475:
 843:Drivers/STM32L5xx_HAL_Driver/Src/stm32l5xx_ll_usb.c ****     pdwVal++;
 3903              		.loc 1 843 5 is_stmt 1 discriminator 3 view .LVU1317
 844:Drivers/STM32L5xx_HAL_Driver/Src/stm32l5xx_ll_usb.c ****     *pBuf = (uint8_t)((RdVal >> 0) & 0xFFU);
 3904              		.loc 1 844 5 discriminator 3 view .LVU1318
 3905              		.loc 1 844 11 is_stmt 0 discriminator 3 view .LVU1319
 3906 0010 0870     		strb	r0, [r1]
 845:Drivers/STM32L5xx_HAL_Driver/Src/stm32l5xx_ll_usb.c ****     pBuf++;
 3907              		.loc 1 845 5 is_stmt 1 discriminator 3 view .LVU1320
 3908              	.LVL476:
 846:Drivers/STM32L5xx_HAL_Driver/Src/stm32l5xx_ll_usb.c ****     *pBuf = (uint8_t)((RdVal >> 8) & 0xFFU);
 3909              		.loc 1 846 5 discriminator 3 view .LVU1321
 3910              		.loc 1 846 13 is_stmt 0 discriminator 3 view .LVU1322
 3911 0012 C0F30720 		ubfx	r0, r0, #8, #8
 3912              	.LVL477:
 3913              		.loc 1 846 11 discriminator 3 view .LVU1323
 3914 0016 4870     		strb	r0, [r1, #1]
 847:Drivers/STM32L5xx_HAL_Driver/Src/stm32l5xx_ll_usb.c ****     pBuf++;
 3915              		.loc 1 847 5 is_stmt 1 discriminator 3 view .LVU1324
 3916              		.loc 1 847 9 is_stmt 0 discriminator 3 view .LVU1325
 3917 0018 0231     		adds	r1, r1, #2
 3918              	.LVL478:
 840:Drivers/STM32L5xx_HAL_Driver/Src/stm32l5xx_ll_usb.c ****   {
 3919              		.loc 1 840 37 is_stmt 1 discriminator 3 view .LVU1326
 3920 001a 013C     		subs	r4, r4, #1
 3921              	.LVL479:
 3922              	.L170:
 840:Drivers/STM32L5xx_HAL_Driver/Src/stm32l5xx_ll_usb.c ****   {
 3923              		.loc 1 840 25 discriminator 1 view .LVU1327
 3924 001c 002C     		cmp	r4, #0
 3925 001e F5D1     		bne	.L171
 848:Drivers/STM32L5xx_HAL_Driver/Src/stm32l5xx_ll_usb.c **** 
 849:Drivers/STM32L5xx_HAL_Driver/Src/stm32l5xx_ll_usb.c **** #if PMA_ACCESS > 1U
 850:Drivers/STM32L5xx_HAL_Driver/Src/stm32l5xx_ll_usb.c ****     pdwVal++;
 851:Drivers/STM32L5xx_HAL_Driver/Src/stm32l5xx_ll_usb.c **** #endif /* PMA_ACCESS */
 852:Drivers/STM32L5xx_HAL_Driver/Src/stm32l5xx_ll_usb.c ****   }
 853:Drivers/STM32L5xx_HAL_Driver/Src/stm32l5xx_ll_usb.c **** 
 854:Drivers/STM32L5xx_HAL_Driver/Src/stm32l5xx_ll_usb.c ****   if ((wNBytes % 2U) != 0U)
 3926              		.loc 1 854 3 view .LVU1328
 3927              		.loc 1 854 6 is_stmt 0 view .LVU1329
 3928 0020 13F0010F 		tst	r3, #1
 3929 0024 01D0     		beq	.L169
 855:Drivers/STM32L5xx_HAL_Driver/Src/stm32l5xx_ll_usb.c ****   {
 856:Drivers/STM32L5xx_HAL_Driver/Src/stm32l5xx_ll_usb.c ****     RdVal = *pdwVal;
 3930              		.loc 1 856 5 is_stmt 1 view .LVU1330
 3931              		.loc 1 856 13 is_stmt 0 view .LVU1331
 3932 0026 1388     		ldrh	r3, [r2]
 3933              	.LVL480:
 857:Drivers/STM32L5xx_HAL_Driver/Src/stm32l5xx_ll_usb.c ****     *pBuf = (uint8_t)((RdVal >> 0) & 0xFFU);
 3934              		.loc 1 857 5 is_stmt 1 view .LVU1332
 3935              		.loc 1 857 11 is_stmt 0 view .LVU1333
 3936 0028 0B70     		strb	r3, [r1]
 3937              	.LVL481:
 3938              	.L169:
ARM GAS  /tmp/ccQg3iPh.s 			page 99


 858:Drivers/STM32L5xx_HAL_Driver/Src/stm32l5xx_ll_usb.c ****   }
 859:Drivers/STM32L5xx_HAL_Driver/Src/stm32l5xx_ll_usb.c **** }
 3939              		.loc 1 859 1 view .LVU1334
 3940 002a 5DF8044B 		ldr	r4, [sp], #4
 3941              	.LCFI7:
 3942              		.cfi_restore 4
 3943              		.cfi_def_cfa_offset 0
 3944              	.LVL482:
 3945              		.loc 1 859 1 view .LVU1335
 3946 002e 7047     		bx	lr
 3947              		.cfi_endproc
 3948              	.LFE171:
 3950              		.text
 3951              	.Letext0:
 3952              		.file 2 "/home/yul/toolchain/arm-gnu-toolchain-12.2.rel1-x86_64-arm-none-eabi/arm-none-eabi/includ
 3953              		.file 3 "/home/yul/toolchain/arm-gnu-toolchain-12.2.rel1-x86_64-arm-none-eabi/arm-none-eabi/includ
 3954              		.file 4 "Drivers/CMSIS/Device/ST/STM32L5xx/Include/stm32l562xx.h"
 3955              		.file 5 "Drivers/STM32L5xx_HAL_Driver/Inc/stm32l5xx_hal_def.h"
 3956              		.file 6 "Drivers/STM32L5xx_HAL_Driver/Inc/stm32l5xx_ll_usb.h"
ARM GAS  /tmp/ccQg3iPh.s 			page 100


DEFINED SYMBOLS
                            *ABS*:0000000000000000 stm32l5xx_ll_usb.c
     /tmp/ccQg3iPh.s:22     .text.USB_CoreInit:0000000000000000 $t
     /tmp/ccQg3iPh.s:28     .text.USB_CoreInit:0000000000000000 USB_CoreInit
     /tmp/ccQg3iPh.s:57     .text.USB_EnableGlobalInt:0000000000000000 $t
     /tmp/ccQg3iPh.s:63     .text.USB_EnableGlobalInt:0000000000000000 USB_EnableGlobalInt
     /tmp/ccQg3iPh.s:93     .text.USB_DisableGlobalInt:0000000000000000 $t
     /tmp/ccQg3iPh.s:99     .text.USB_DisableGlobalInt:0000000000000000 USB_DisableGlobalInt
     /tmp/ccQg3iPh.s:127    .text.USB_SetCurrentMode:0000000000000000 $t
     /tmp/ccQg3iPh.s:133    .text.USB_SetCurrentMode:0000000000000000 USB_SetCurrentMode
     /tmp/ccQg3iPh.s:153    .text.USB_DevInit:0000000000000000 $t
     /tmp/ccQg3iPh.s:159    .text.USB_DevInit:0000000000000000 USB_DevInit
     /tmp/ccQg3iPh.s:201    .text.USB_ActivateEndpoint:0000000000000000 $t
     /tmp/ccQg3iPh.s:207    .text.USB_ActivateEndpoint:0000000000000000 USB_ActivateEndpoint
     /tmp/ccQg3iPh.s:244    .text.USB_ActivateEndpoint:0000000000000022 $d
     /tmp/ccQg3iPh.s:248    .text.USB_ActivateEndpoint:0000000000000026 $t
     /tmp/ccQg3iPh.s:1013   .text.USB_DeactivateEndpoint:0000000000000000 $t
     /tmp/ccQg3iPh.s:1019   .text.USB_DeactivateEndpoint:0000000000000000 USB_DeactivateEndpoint
     /tmp/ccQg3iPh.s:1423   .text.USB_EPSetStall:0000000000000000 $t
     /tmp/ccQg3iPh.s:1429   .text.USB_EPSetStall:0000000000000000 USB_EPSetStall
     /tmp/ccQg3iPh.s:1503   .text.USB_EPClearStall:0000000000000000 $t
     /tmp/ccQg3iPh.s:1509   .text.USB_EPClearStall:0000000000000000 USB_EPClearStall
     /tmp/ccQg3iPh.s:1665   .text.USB_EPStopXfer:0000000000000000 $t
     /tmp/ccQg3iPh.s:1671   .text.USB_EPStopXfer:0000000000000000 USB_EPStopXfer
     /tmp/ccQg3iPh.s:1815   .text.USB_StopDevice:0000000000000000 $t
     /tmp/ccQg3iPh.s:1821   .text.USB_StopDevice:0000000000000000 USB_StopDevice
     /tmp/ccQg3iPh.s:1852   .text.USB_SetDevAddress:0000000000000000 $t
     /tmp/ccQg3iPh.s:1858   .text.USB_SetDevAddress:0000000000000000 USB_SetDevAddress
     /tmp/ccQg3iPh.s:1884   .text.USB_DevConnect:0000000000000000 $t
     /tmp/ccQg3iPh.s:1890   .text.USB_DevConnect:0000000000000000 USB_DevConnect
     /tmp/ccQg3iPh.s:1916   .text.USB_DevDisconnect:0000000000000000 $t
     /tmp/ccQg3iPh.s:1922   .text.USB_DevDisconnect:0000000000000000 USB_DevDisconnect
     /tmp/ccQg3iPh.s:1946   .text.USB_ReadInterrupts:0000000000000000 $t
     /tmp/ccQg3iPh.s:1952   .text.USB_ReadInterrupts:0000000000000000 USB_ReadInterrupts
     /tmp/ccQg3iPh.s:1975   .text.USB_ActivateRemoteWakeup:0000000000000000 $t
     /tmp/ccQg3iPh.s:1981   .text.USB_ActivateRemoteWakeup:0000000000000000 USB_ActivateRemoteWakeup
     /tmp/ccQg3iPh.s:2006   .text.USB_DeActivateRemoteWakeup:0000000000000000 $t
     /tmp/ccQg3iPh.s:2012   .text.USB_DeActivateRemoteWakeup:0000000000000000 USB_DeActivateRemoteWakeup
     /tmp/ccQg3iPh.s:2038   .text.USB_WritePMA:0000000000000000 $t
     /tmp/ccQg3iPh.s:2044   .text.USB_WritePMA:0000000000000000 USB_WritePMA
     /tmp/ccQg3iPh.s:2109   .text.USB_EPStartXfer:0000000000000000 $t
     /tmp/ccQg3iPh.s:2115   .text.USB_EPStartXfer:0000000000000000 USB_EPStartXfer
     /tmp/ccQg3iPh.s:3859   .text.USB_ReadPMA:0000000000000000 $t
     /tmp/ccQg3iPh.s:3865   .text.USB_ReadPMA:0000000000000000 USB_ReadPMA

NO UNDEFINED SYMBOLS
