ARM GAS  /tmp/ccgGleel.s 			page 1


   1              		.cpu cortex-m33
   2              		.arch armv8-m.main
   3              		.fpu fpv4-sp-d16
   4              		.arch_extension dsp
   5              		.eabi_attribute 27, 1
   6              		.eabi_attribute 28, 1
   7              		.eabi_attribute 20, 1
   8              		.eabi_attribute 21, 1
   9              		.eabi_attribute 23, 3
  10              		.eabi_attribute 24, 1
  11              		.eabi_attribute 25, 1
  12              		.eabi_attribute 26, 1
  13              		.eabi_attribute 30, 1
  14              		.eabi_attribute 34, 1
  15              		.eabi_attribute 18, 4
  16              		.file	"usbd_core.c"
  17              		.text
  18              	.Ltext0:
  19              		.cfi_sections	.debug_frame
  20              		.file 1 "Middlewares/ST/STM32_USB_Device_Library/Core/Src/usbd_core.c"
  21              		.section	.text.USBD_Init,"ax",%progbits
  22              		.align	1
  23              		.global	USBD_Init
  24              		.syntax unified
  25              		.thumb
  26              		.thumb_func
  28              	USBD_Init:
  29              	.LVL0:
  30              	.LFB156:
   1:Middlewares/ST/STM32_USB_Device_Library/Core/Src/usbd_core.c **** /**
   2:Middlewares/ST/STM32_USB_Device_Library/Core/Src/usbd_core.c ****   ******************************************************************************
   3:Middlewares/ST/STM32_USB_Device_Library/Core/Src/usbd_core.c ****   * @file    usbd_core.c
   4:Middlewares/ST/STM32_USB_Device_Library/Core/Src/usbd_core.c ****   * @author  MCD Application Team
   5:Middlewares/ST/STM32_USB_Device_Library/Core/Src/usbd_core.c ****   * @brief   This file provides all the USBD core functions.
   6:Middlewares/ST/STM32_USB_Device_Library/Core/Src/usbd_core.c ****   ******************************************************************************
   7:Middlewares/ST/STM32_USB_Device_Library/Core/Src/usbd_core.c ****   * @attention
   8:Middlewares/ST/STM32_USB_Device_Library/Core/Src/usbd_core.c ****   *
   9:Middlewares/ST/STM32_USB_Device_Library/Core/Src/usbd_core.c ****   * Copyright (c) 2015 STMicroelectronics.
  10:Middlewares/ST/STM32_USB_Device_Library/Core/Src/usbd_core.c ****   * All rights reserved.
  11:Middlewares/ST/STM32_USB_Device_Library/Core/Src/usbd_core.c ****   *
  12:Middlewares/ST/STM32_USB_Device_Library/Core/Src/usbd_core.c ****   * This software is licensed under terms that can be found in the LICENSE file
  13:Middlewares/ST/STM32_USB_Device_Library/Core/Src/usbd_core.c ****   * in the root directory of this software component.
  14:Middlewares/ST/STM32_USB_Device_Library/Core/Src/usbd_core.c ****   * If no LICENSE file comes with this software, it is provided AS-IS.
  15:Middlewares/ST/STM32_USB_Device_Library/Core/Src/usbd_core.c ****   *
  16:Middlewares/ST/STM32_USB_Device_Library/Core/Src/usbd_core.c ****   ******************************************************************************
  17:Middlewares/ST/STM32_USB_Device_Library/Core/Src/usbd_core.c ****   */
  18:Middlewares/ST/STM32_USB_Device_Library/Core/Src/usbd_core.c **** 
  19:Middlewares/ST/STM32_USB_Device_Library/Core/Src/usbd_core.c **** /* Includes ------------------------------------------------------------------*/
  20:Middlewares/ST/STM32_USB_Device_Library/Core/Src/usbd_core.c **** #include "usbd_core.h"
  21:Middlewares/ST/STM32_USB_Device_Library/Core/Src/usbd_core.c **** 
  22:Middlewares/ST/STM32_USB_Device_Library/Core/Src/usbd_core.c **** #ifdef USE_USBD_COMPOSITE
  23:Middlewares/ST/STM32_USB_Device_Library/Core/Src/usbd_core.c **** #include "usbd_composite_builder.h"
  24:Middlewares/ST/STM32_USB_Device_Library/Core/Src/usbd_core.c **** #endif /* USE_USBD_COMPOSITE */
  25:Middlewares/ST/STM32_USB_Device_Library/Core/Src/usbd_core.c **** 
  26:Middlewares/ST/STM32_USB_Device_Library/Core/Src/usbd_core.c **** /** @addtogroup STM32_USBD_DEVICE_LIBRARY
  27:Middlewares/ST/STM32_USB_Device_Library/Core/Src/usbd_core.c ****   * @{
  28:Middlewares/ST/STM32_USB_Device_Library/Core/Src/usbd_core.c ****   */
ARM GAS  /tmp/ccgGleel.s 			page 2


  29:Middlewares/ST/STM32_USB_Device_Library/Core/Src/usbd_core.c **** 
  30:Middlewares/ST/STM32_USB_Device_Library/Core/Src/usbd_core.c **** 
  31:Middlewares/ST/STM32_USB_Device_Library/Core/Src/usbd_core.c **** /** @defgroup USBD_CORE
  32:Middlewares/ST/STM32_USB_Device_Library/Core/Src/usbd_core.c ****   * @brief usbd core module
  33:Middlewares/ST/STM32_USB_Device_Library/Core/Src/usbd_core.c ****   * @{
  34:Middlewares/ST/STM32_USB_Device_Library/Core/Src/usbd_core.c ****   */
  35:Middlewares/ST/STM32_USB_Device_Library/Core/Src/usbd_core.c **** 
  36:Middlewares/ST/STM32_USB_Device_Library/Core/Src/usbd_core.c **** /** @defgroup USBD_CORE_Private_TypesDefinitions
  37:Middlewares/ST/STM32_USB_Device_Library/Core/Src/usbd_core.c ****   * @{
  38:Middlewares/ST/STM32_USB_Device_Library/Core/Src/usbd_core.c ****   */
  39:Middlewares/ST/STM32_USB_Device_Library/Core/Src/usbd_core.c **** 
  40:Middlewares/ST/STM32_USB_Device_Library/Core/Src/usbd_core.c **** /**
  41:Middlewares/ST/STM32_USB_Device_Library/Core/Src/usbd_core.c ****   * @}
  42:Middlewares/ST/STM32_USB_Device_Library/Core/Src/usbd_core.c ****   */
  43:Middlewares/ST/STM32_USB_Device_Library/Core/Src/usbd_core.c **** 
  44:Middlewares/ST/STM32_USB_Device_Library/Core/Src/usbd_core.c **** 
  45:Middlewares/ST/STM32_USB_Device_Library/Core/Src/usbd_core.c **** /** @defgroup USBD_CORE_Private_Defines
  46:Middlewares/ST/STM32_USB_Device_Library/Core/Src/usbd_core.c ****   * @{
  47:Middlewares/ST/STM32_USB_Device_Library/Core/Src/usbd_core.c ****   */
  48:Middlewares/ST/STM32_USB_Device_Library/Core/Src/usbd_core.c **** 
  49:Middlewares/ST/STM32_USB_Device_Library/Core/Src/usbd_core.c **** /**
  50:Middlewares/ST/STM32_USB_Device_Library/Core/Src/usbd_core.c ****   * @}
  51:Middlewares/ST/STM32_USB_Device_Library/Core/Src/usbd_core.c ****   */
  52:Middlewares/ST/STM32_USB_Device_Library/Core/Src/usbd_core.c **** 
  53:Middlewares/ST/STM32_USB_Device_Library/Core/Src/usbd_core.c **** 
  54:Middlewares/ST/STM32_USB_Device_Library/Core/Src/usbd_core.c **** /** @defgroup USBD_CORE_Private_Macros
  55:Middlewares/ST/STM32_USB_Device_Library/Core/Src/usbd_core.c ****   * @{
  56:Middlewares/ST/STM32_USB_Device_Library/Core/Src/usbd_core.c ****   */
  57:Middlewares/ST/STM32_USB_Device_Library/Core/Src/usbd_core.c **** 
  58:Middlewares/ST/STM32_USB_Device_Library/Core/Src/usbd_core.c **** /**
  59:Middlewares/ST/STM32_USB_Device_Library/Core/Src/usbd_core.c ****   * @}
  60:Middlewares/ST/STM32_USB_Device_Library/Core/Src/usbd_core.c ****   */
  61:Middlewares/ST/STM32_USB_Device_Library/Core/Src/usbd_core.c **** 
  62:Middlewares/ST/STM32_USB_Device_Library/Core/Src/usbd_core.c **** 
  63:Middlewares/ST/STM32_USB_Device_Library/Core/Src/usbd_core.c **** /** @defgroup USBD_CORE_Private_FunctionPrototypes
  64:Middlewares/ST/STM32_USB_Device_Library/Core/Src/usbd_core.c ****   * @{
  65:Middlewares/ST/STM32_USB_Device_Library/Core/Src/usbd_core.c ****   */
  66:Middlewares/ST/STM32_USB_Device_Library/Core/Src/usbd_core.c **** 
  67:Middlewares/ST/STM32_USB_Device_Library/Core/Src/usbd_core.c **** /**
  68:Middlewares/ST/STM32_USB_Device_Library/Core/Src/usbd_core.c ****   * @}
  69:Middlewares/ST/STM32_USB_Device_Library/Core/Src/usbd_core.c ****   */
  70:Middlewares/ST/STM32_USB_Device_Library/Core/Src/usbd_core.c **** 
  71:Middlewares/ST/STM32_USB_Device_Library/Core/Src/usbd_core.c **** /** @defgroup USBD_CORE_Private_Variables
  72:Middlewares/ST/STM32_USB_Device_Library/Core/Src/usbd_core.c ****   * @{
  73:Middlewares/ST/STM32_USB_Device_Library/Core/Src/usbd_core.c ****   */
  74:Middlewares/ST/STM32_USB_Device_Library/Core/Src/usbd_core.c **** 
  75:Middlewares/ST/STM32_USB_Device_Library/Core/Src/usbd_core.c **** /**
  76:Middlewares/ST/STM32_USB_Device_Library/Core/Src/usbd_core.c ****   * @}
  77:Middlewares/ST/STM32_USB_Device_Library/Core/Src/usbd_core.c ****   */
  78:Middlewares/ST/STM32_USB_Device_Library/Core/Src/usbd_core.c **** 
  79:Middlewares/ST/STM32_USB_Device_Library/Core/Src/usbd_core.c **** 
  80:Middlewares/ST/STM32_USB_Device_Library/Core/Src/usbd_core.c **** /** @defgroup USBD_CORE_Private_Functions
  81:Middlewares/ST/STM32_USB_Device_Library/Core/Src/usbd_core.c ****   * @{
  82:Middlewares/ST/STM32_USB_Device_Library/Core/Src/usbd_core.c ****   */
  83:Middlewares/ST/STM32_USB_Device_Library/Core/Src/usbd_core.c **** 
  84:Middlewares/ST/STM32_USB_Device_Library/Core/Src/usbd_core.c **** /**
  85:Middlewares/ST/STM32_USB_Device_Library/Core/Src/usbd_core.c ****   * @brief  USBD_Init
ARM GAS  /tmp/ccgGleel.s 			page 3


  86:Middlewares/ST/STM32_USB_Device_Library/Core/Src/usbd_core.c ****   *         Initializes the device stack and load the class driver
  87:Middlewares/ST/STM32_USB_Device_Library/Core/Src/usbd_core.c ****   * @param  pdev: device instance
  88:Middlewares/ST/STM32_USB_Device_Library/Core/Src/usbd_core.c ****   * @param  pdesc: Descriptor structure address
  89:Middlewares/ST/STM32_USB_Device_Library/Core/Src/usbd_core.c ****   * @param  id: Low level core index
  90:Middlewares/ST/STM32_USB_Device_Library/Core/Src/usbd_core.c ****   * @retval None
  91:Middlewares/ST/STM32_USB_Device_Library/Core/Src/usbd_core.c ****   */
  92:Middlewares/ST/STM32_USB_Device_Library/Core/Src/usbd_core.c **** USBD_StatusTypeDef USBD_Init(USBD_HandleTypeDef *pdev,
  93:Middlewares/ST/STM32_USB_Device_Library/Core/Src/usbd_core.c ****                              USBD_DescriptorsTypeDef *pdesc, uint8_t id)
  94:Middlewares/ST/STM32_USB_Device_Library/Core/Src/usbd_core.c **** {
  31              		.loc 1 94 1 view -0
  32              		.cfi_startproc
  33              		@ args = 0, pretend = 0, frame = 0
  34              		@ frame_needed = 0, uses_anonymous_args = 0
  95:Middlewares/ST/STM32_USB_Device_Library/Core/Src/usbd_core.c ****   USBD_StatusTypeDef ret;
  35              		.loc 1 95 3 view .LVU1
  96:Middlewares/ST/STM32_USB_Device_Library/Core/Src/usbd_core.c **** 
  97:Middlewares/ST/STM32_USB_Device_Library/Core/Src/usbd_core.c ****   /* Check whether the USB Host handle is valid */
  98:Middlewares/ST/STM32_USB_Device_Library/Core/Src/usbd_core.c ****   if (pdev == NULL)
  36              		.loc 1 98 3 view .LVU2
  37              		.loc 1 98 6 is_stmt 0 view .LVU3
  38 0000 98B1     		cbz	r0, .L4
  94:Middlewares/ST/STM32_USB_Device_Library/Core/Src/usbd_core.c ****   USBD_StatusTypeDef ret;
  39              		.loc 1 94 1 view .LVU4
  40 0002 08B5     		push	{r3, lr}
  41              	.LCFI0:
  42              		.cfi_def_cfa_offset 8
  43              		.cfi_offset 3, -8
  44              		.cfi_offset 14, -4
  45 0004 0346     		mov	r3, r0
  99:Middlewares/ST/STM32_USB_Device_Library/Core/Src/usbd_core.c ****   {
 100:Middlewares/ST/STM32_USB_Device_Library/Core/Src/usbd_core.c **** #if (USBD_DEBUG_LEVEL > 1U)
 101:Middlewares/ST/STM32_USB_Device_Library/Core/Src/usbd_core.c ****     USBD_ErrLog("Invalid Device handle");
 102:Middlewares/ST/STM32_USB_Device_Library/Core/Src/usbd_core.c **** #endif /* (USBD_DEBUG_LEVEL > 1U) */
 103:Middlewares/ST/STM32_USB_Device_Library/Core/Src/usbd_core.c ****     return USBD_FAIL;
 104:Middlewares/ST/STM32_USB_Device_Library/Core/Src/usbd_core.c ****   }
 105:Middlewares/ST/STM32_USB_Device_Library/Core/Src/usbd_core.c **** 
 106:Middlewares/ST/STM32_USB_Device_Library/Core/Src/usbd_core.c **** #ifdef USE_USBD_COMPOSITE
 107:Middlewares/ST/STM32_USB_Device_Library/Core/Src/usbd_core.c ****   /* Parse the table of classes in use */
 108:Middlewares/ST/STM32_USB_Device_Library/Core/Src/usbd_core.c ****   for (uint32_t i = 0; i < USBD_MAX_SUPPORTED_CLASS; i++)
 109:Middlewares/ST/STM32_USB_Device_Library/Core/Src/usbd_core.c ****   {
 110:Middlewares/ST/STM32_USB_Device_Library/Core/Src/usbd_core.c ****     /* Unlink previous class*/
 111:Middlewares/ST/STM32_USB_Device_Library/Core/Src/usbd_core.c ****     pdev->pClass[i] = NULL;
 112:Middlewares/ST/STM32_USB_Device_Library/Core/Src/usbd_core.c ****     pdev->pUserData[i] = NULL;
 113:Middlewares/ST/STM32_USB_Device_Library/Core/Src/usbd_core.c **** 
 114:Middlewares/ST/STM32_USB_Device_Library/Core/Src/usbd_core.c ****     /* Set class as inactive */
 115:Middlewares/ST/STM32_USB_Device_Library/Core/Src/usbd_core.c ****     pdev->tclasslist[i].Active = 0;
 116:Middlewares/ST/STM32_USB_Device_Library/Core/Src/usbd_core.c ****     pdev->NumClasses = 0;
 117:Middlewares/ST/STM32_USB_Device_Library/Core/Src/usbd_core.c ****     pdev->classId = 0;
 118:Middlewares/ST/STM32_USB_Device_Library/Core/Src/usbd_core.c ****   }
 119:Middlewares/ST/STM32_USB_Device_Library/Core/Src/usbd_core.c **** #else
 120:Middlewares/ST/STM32_USB_Device_Library/Core/Src/usbd_core.c ****   /* Unlink previous class*/
 121:Middlewares/ST/STM32_USB_Device_Library/Core/Src/usbd_core.c ****   pdev->pClass[0] = NULL;
  46              		.loc 1 121 3 is_stmt 1 view .LVU5
  47              		.loc 1 121 19 is_stmt 0 view .LVU6
  48 0006 0020     		movs	r0, #0
  49              	.LVL1:
  50              		.loc 1 121 19 view .LVU7
ARM GAS  /tmp/ccgGleel.s 			page 4


  51 0008 C3F8B802 		str	r0, [r3, #696]
 122:Middlewares/ST/STM32_USB_Device_Library/Core/Src/usbd_core.c ****   pdev->pUserData[0] = NULL;
  52              		.loc 1 122 3 is_stmt 1 view .LVU8
  53              		.loc 1 122 22 is_stmt 0 view .LVU9
  54 000c C3F8C402 		str	r0, [r3, #708]
 123:Middlewares/ST/STM32_USB_Device_Library/Core/Src/usbd_core.c **** #endif /* USE_USBD_COMPOSITE */
 124:Middlewares/ST/STM32_USB_Device_Library/Core/Src/usbd_core.c **** 
 125:Middlewares/ST/STM32_USB_Device_Library/Core/Src/usbd_core.c ****   pdev->pConfDesc = NULL;
  55              		.loc 1 125 3 is_stmt 1 view .LVU10
  56              		.loc 1 125 19 is_stmt 0 view .LVU11
  57 0010 C3F8D002 		str	r0, [r3, #720]
 126:Middlewares/ST/STM32_USB_Device_Library/Core/Src/usbd_core.c **** 
 127:Middlewares/ST/STM32_USB_Device_Library/Core/Src/usbd_core.c ****   /* Assign USBD Descriptors */
 128:Middlewares/ST/STM32_USB_Device_Library/Core/Src/usbd_core.c ****   if (pdesc != NULL)
  58              		.loc 1 128 3 is_stmt 1 view .LVU12
  59              		.loc 1 128 6 is_stmt 0 view .LVU13
  60 0014 09B1     		cbz	r1, .L3
 129:Middlewares/ST/STM32_USB_Device_Library/Core/Src/usbd_core.c ****   {
 130:Middlewares/ST/STM32_USB_Device_Library/Core/Src/usbd_core.c ****     pdev->pDesc = pdesc;
  61              		.loc 1 130 5 is_stmt 1 view .LVU14
  62              		.loc 1 130 17 is_stmt 0 view .LVU15
  63 0016 C3F8B412 		str	r1, [r3, #692]
  64              	.L3:
 131:Middlewares/ST/STM32_USB_Device_Library/Core/Src/usbd_core.c ****   }
 132:Middlewares/ST/STM32_USB_Device_Library/Core/Src/usbd_core.c **** 
 133:Middlewares/ST/STM32_USB_Device_Library/Core/Src/usbd_core.c ****   /* Set Device initial State */
 134:Middlewares/ST/STM32_USB_Device_Library/Core/Src/usbd_core.c ****   pdev->dev_state = USBD_STATE_DEFAULT;
  65              		.loc 1 134 3 is_stmt 1 view .LVU16
  66              		.loc 1 134 19 is_stmt 0 view .LVU17
  67 001a 0121     		movs	r1, #1
  68              	.LVL2:
  69              		.loc 1 134 19 view .LVU18
  70 001c 83F89C12 		strb	r1, [r3, #668]
 135:Middlewares/ST/STM32_USB_Device_Library/Core/Src/usbd_core.c ****   pdev->id = id;
  71              		.loc 1 135 3 is_stmt 1 view .LVU19
  72              		.loc 1 135 12 is_stmt 0 view .LVU20
  73 0020 1A70     		strb	r2, [r3]
 136:Middlewares/ST/STM32_USB_Device_Library/Core/Src/usbd_core.c **** 
 137:Middlewares/ST/STM32_USB_Device_Library/Core/Src/usbd_core.c ****   /* Initialize low level driver */
 138:Middlewares/ST/STM32_USB_Device_Library/Core/Src/usbd_core.c ****   ret = USBD_LL_Init(pdev);
  74              		.loc 1 138 3 is_stmt 1 view .LVU21
  75              		.loc 1 138 9 is_stmt 0 view .LVU22
  76 0022 1846     		mov	r0, r3
  77 0024 FFF7FEFF 		bl	USBD_LL_Init
  78              	.LVL3:
 139:Middlewares/ST/STM32_USB_Device_Library/Core/Src/usbd_core.c **** 
 140:Middlewares/ST/STM32_USB_Device_Library/Core/Src/usbd_core.c ****   return ret;
  79              		.loc 1 140 3 is_stmt 1 view .LVU23
 141:Middlewares/ST/STM32_USB_Device_Library/Core/Src/usbd_core.c **** }
  80              		.loc 1 141 1 is_stmt 0 view .LVU24
  81 0028 08BD     		pop	{r3, pc}
  82              	.LVL4:
  83              	.L4:
  84              	.LCFI1:
  85              		.cfi_def_cfa_offset 0
  86              		.cfi_restore 3
  87              		.cfi_restore 14
ARM GAS  /tmp/ccgGleel.s 			page 5


 103:Middlewares/ST/STM32_USB_Device_Library/Core/Src/usbd_core.c ****   }
  88              		.loc 1 103 12 view .LVU25
  89 002a 0320     		movs	r0, #3
  90              	.LVL5:
  91              		.loc 1 141 1 view .LVU26
  92 002c 7047     		bx	lr
  93              		.cfi_endproc
  94              	.LFE156:
  96              		.section	.text.USBD_DeInit,"ax",%progbits
  97              		.align	1
  98              		.global	USBD_DeInit
  99              		.syntax unified
 100              		.thumb
 101              		.thumb_func
 103              	USBD_DeInit:
 104              	.LVL6:
 105              	.LFB157:
 142:Middlewares/ST/STM32_USB_Device_Library/Core/Src/usbd_core.c **** 
 143:Middlewares/ST/STM32_USB_Device_Library/Core/Src/usbd_core.c **** /**
 144:Middlewares/ST/STM32_USB_Device_Library/Core/Src/usbd_core.c ****   * @brief  USBD_DeInit
 145:Middlewares/ST/STM32_USB_Device_Library/Core/Src/usbd_core.c ****   *         Re-Initialize the device library
 146:Middlewares/ST/STM32_USB_Device_Library/Core/Src/usbd_core.c ****   * @param  pdev: device instance
 147:Middlewares/ST/STM32_USB_Device_Library/Core/Src/usbd_core.c ****   * @retval status: status
 148:Middlewares/ST/STM32_USB_Device_Library/Core/Src/usbd_core.c ****   */
 149:Middlewares/ST/STM32_USB_Device_Library/Core/Src/usbd_core.c **** USBD_StatusTypeDef USBD_DeInit(USBD_HandleTypeDef *pdev)
 150:Middlewares/ST/STM32_USB_Device_Library/Core/Src/usbd_core.c **** {
 106              		.loc 1 150 1 is_stmt 1 view -0
 107              		.cfi_startproc
 108              		@ args = 0, pretend = 0, frame = 0
 109              		@ frame_needed = 0, uses_anonymous_args = 0
 110              		.loc 1 150 1 is_stmt 0 view .LVU28
 111 0000 10B5     		push	{r4, lr}
 112              	.LCFI2:
 113              		.cfi_def_cfa_offset 8
 114              		.cfi_offset 4, -8
 115              		.cfi_offset 14, -4
 116 0002 0446     		mov	r4, r0
 151:Middlewares/ST/STM32_USB_Device_Library/Core/Src/usbd_core.c ****   USBD_StatusTypeDef ret;
 117              		.loc 1 151 3 is_stmt 1 view .LVU29
 152:Middlewares/ST/STM32_USB_Device_Library/Core/Src/usbd_core.c **** 
 153:Middlewares/ST/STM32_USB_Device_Library/Core/Src/usbd_core.c ****   /* Disconnect the USB Device */
 154:Middlewares/ST/STM32_USB_Device_Library/Core/Src/usbd_core.c ****   (void)USBD_LL_Stop(pdev);
 118              		.loc 1 154 3 view .LVU30
 119              		.loc 1 154 9 is_stmt 0 view .LVU31
 120 0004 FFF7FEFF 		bl	USBD_LL_Stop
 121              	.LVL7:
 155:Middlewares/ST/STM32_USB_Device_Library/Core/Src/usbd_core.c **** 
 156:Middlewares/ST/STM32_USB_Device_Library/Core/Src/usbd_core.c ****   /* Set Default State */
 157:Middlewares/ST/STM32_USB_Device_Library/Core/Src/usbd_core.c ****   pdev->dev_state = USBD_STATE_DEFAULT;
 122              		.loc 1 157 3 is_stmt 1 view .LVU32
 123              		.loc 1 157 19 is_stmt 0 view .LVU33
 124 0008 0123     		movs	r3, #1
 125 000a 84F89C32 		strb	r3, [r4, #668]
 158:Middlewares/ST/STM32_USB_Device_Library/Core/Src/usbd_core.c **** 
 159:Middlewares/ST/STM32_USB_Device_Library/Core/Src/usbd_core.c **** #ifdef USE_USBD_COMPOSITE
 160:Middlewares/ST/STM32_USB_Device_Library/Core/Src/usbd_core.c ****   /* Parse the table of classes in use */
 161:Middlewares/ST/STM32_USB_Device_Library/Core/Src/usbd_core.c ****   for (uint32_t i = 0; i < USBD_MAX_SUPPORTED_CLASS; i++)
ARM GAS  /tmp/ccgGleel.s 			page 6


 162:Middlewares/ST/STM32_USB_Device_Library/Core/Src/usbd_core.c ****   {
 163:Middlewares/ST/STM32_USB_Device_Library/Core/Src/usbd_core.c ****     /* Check if current class is in use */
 164:Middlewares/ST/STM32_USB_Device_Library/Core/Src/usbd_core.c ****     if ((pdev->tclasslist[i].Active) == 1U)
 165:Middlewares/ST/STM32_USB_Device_Library/Core/Src/usbd_core.c ****     {
 166:Middlewares/ST/STM32_USB_Device_Library/Core/Src/usbd_core.c ****       if (pdev->pClass[i] != NULL)
 167:Middlewares/ST/STM32_USB_Device_Library/Core/Src/usbd_core.c ****       {
 168:Middlewares/ST/STM32_USB_Device_Library/Core/Src/usbd_core.c ****         pdev->classId = i;
 169:Middlewares/ST/STM32_USB_Device_Library/Core/Src/usbd_core.c ****         /* Free Class Resources */
 170:Middlewares/ST/STM32_USB_Device_Library/Core/Src/usbd_core.c ****         pdev->pClass[i]->DeInit(pdev, (uint8_t)pdev->dev_config);
 171:Middlewares/ST/STM32_USB_Device_Library/Core/Src/usbd_core.c ****       }
 172:Middlewares/ST/STM32_USB_Device_Library/Core/Src/usbd_core.c ****     }
 173:Middlewares/ST/STM32_USB_Device_Library/Core/Src/usbd_core.c ****   }
 174:Middlewares/ST/STM32_USB_Device_Library/Core/Src/usbd_core.c **** #else
 175:Middlewares/ST/STM32_USB_Device_Library/Core/Src/usbd_core.c ****   /* Free Class Resources */
 176:Middlewares/ST/STM32_USB_Device_Library/Core/Src/usbd_core.c ****   if (pdev->pClass[0] != NULL)
 126              		.loc 1 176 3 is_stmt 1 view .LVU34
 127              		.loc 1 176 19 is_stmt 0 view .LVU35
 128 000e D4F8B832 		ldr	r3, [r4, #696]
 129              		.loc 1 176 6 view .LVU36
 130 0012 1BB1     		cbz	r3, .L10
 177:Middlewares/ST/STM32_USB_Device_Library/Core/Src/usbd_core.c ****   {
 178:Middlewares/ST/STM32_USB_Device_Library/Core/Src/usbd_core.c ****     pdev->pClass[0]->DeInit(pdev, (uint8_t)pdev->dev_config);
 131              		.loc 1 178 5 is_stmt 1 view .LVU37
 132              		.loc 1 178 20 is_stmt 0 view .LVU38
 133 0014 5B68     		ldr	r3, [r3, #4]
 134              		.loc 1 178 5 view .LVU39
 135 0016 2179     		ldrb	r1, [r4, #4]	@ zero_extendqisi2
 136 0018 2046     		mov	r0, r4
 137 001a 9847     		blx	r3
 138              	.LVL8:
 139              	.L10:
 179:Middlewares/ST/STM32_USB_Device_Library/Core/Src/usbd_core.c ****   }
 180:Middlewares/ST/STM32_USB_Device_Library/Core/Src/usbd_core.c **** 
 181:Middlewares/ST/STM32_USB_Device_Library/Core/Src/usbd_core.c ****   pdev->pUserData[0] = NULL;
 140              		.loc 1 181 3 is_stmt 1 view .LVU40
 141              		.loc 1 181 22 is_stmt 0 view .LVU41
 142 001c 0023     		movs	r3, #0
 143 001e C4F8C432 		str	r3, [r4, #708]
 182:Middlewares/ST/STM32_USB_Device_Library/Core/Src/usbd_core.c **** 
 183:Middlewares/ST/STM32_USB_Device_Library/Core/Src/usbd_core.c **** #endif /* USE_USBD_COMPOSITE */
 184:Middlewares/ST/STM32_USB_Device_Library/Core/Src/usbd_core.c **** 
 185:Middlewares/ST/STM32_USB_Device_Library/Core/Src/usbd_core.c ****   /* Free Device descriptors resources */
 186:Middlewares/ST/STM32_USB_Device_Library/Core/Src/usbd_core.c ****   pdev->pDesc = NULL;
 144              		.loc 1 186 3 is_stmt 1 view .LVU42
 145              		.loc 1 186 15 is_stmt 0 view .LVU43
 146 0022 C4F8B432 		str	r3, [r4, #692]
 187:Middlewares/ST/STM32_USB_Device_Library/Core/Src/usbd_core.c ****   pdev->pConfDesc = NULL;
 147              		.loc 1 187 3 is_stmt 1 view .LVU44
 148              		.loc 1 187 19 is_stmt 0 view .LVU45
 149 0026 C4F8D032 		str	r3, [r4, #720]
 188:Middlewares/ST/STM32_USB_Device_Library/Core/Src/usbd_core.c **** 
 189:Middlewares/ST/STM32_USB_Device_Library/Core/Src/usbd_core.c ****   /* DeInitialize low level driver */
 190:Middlewares/ST/STM32_USB_Device_Library/Core/Src/usbd_core.c ****   ret = USBD_LL_DeInit(pdev);
 150              		.loc 1 190 3 is_stmt 1 view .LVU46
 151              		.loc 1 190 9 is_stmt 0 view .LVU47
 152 002a 2046     		mov	r0, r4
 153 002c FFF7FEFF 		bl	USBD_LL_DeInit
ARM GAS  /tmp/ccgGleel.s 			page 7


 154              	.LVL9:
 191:Middlewares/ST/STM32_USB_Device_Library/Core/Src/usbd_core.c **** 
 192:Middlewares/ST/STM32_USB_Device_Library/Core/Src/usbd_core.c ****   return ret;
 155              		.loc 1 192 3 is_stmt 1 view .LVU48
 193:Middlewares/ST/STM32_USB_Device_Library/Core/Src/usbd_core.c **** }
 156              		.loc 1 193 1 is_stmt 0 view .LVU49
 157 0030 10BD     		pop	{r4, pc}
 158              		.loc 1 193 1 view .LVU50
 159              		.cfi_endproc
 160              	.LFE157:
 162              		.section	.text.USBD_RegisterClass,"ax",%progbits
 163              		.align	1
 164              		.global	USBD_RegisterClass
 165              		.syntax unified
 166              		.thumb
 167              		.thumb_func
 169              	USBD_RegisterClass:
 170              	.LVL10:
 171              	.LFB158:
 194:Middlewares/ST/STM32_USB_Device_Library/Core/Src/usbd_core.c **** 
 195:Middlewares/ST/STM32_USB_Device_Library/Core/Src/usbd_core.c **** /**
 196:Middlewares/ST/STM32_USB_Device_Library/Core/Src/usbd_core.c ****   * @brief  USBD_RegisterClass
 197:Middlewares/ST/STM32_USB_Device_Library/Core/Src/usbd_core.c ****   *         Link class driver to Device Core.
 198:Middlewares/ST/STM32_USB_Device_Library/Core/Src/usbd_core.c ****   * @param  pDevice : Device Handle
 199:Middlewares/ST/STM32_USB_Device_Library/Core/Src/usbd_core.c ****   * @param  pclass: Class handle
 200:Middlewares/ST/STM32_USB_Device_Library/Core/Src/usbd_core.c ****   * @retval USBD Status
 201:Middlewares/ST/STM32_USB_Device_Library/Core/Src/usbd_core.c ****   */
 202:Middlewares/ST/STM32_USB_Device_Library/Core/Src/usbd_core.c **** USBD_StatusTypeDef USBD_RegisterClass(USBD_HandleTypeDef *pdev, USBD_ClassTypeDef *pclass)
 203:Middlewares/ST/STM32_USB_Device_Library/Core/Src/usbd_core.c **** {
 172              		.loc 1 203 1 is_stmt 1 view -0
 173              		.cfi_startproc
 174              		@ args = 0, pretend = 0, frame = 8
 175              		@ frame_needed = 0, uses_anonymous_args = 0
 176              		.loc 1 203 1 is_stmt 0 view .LVU52
 177 0000 10B5     		push	{r4, lr}
 178              	.LCFI3:
 179              		.cfi_def_cfa_offset 8
 180              		.cfi_offset 4, -8
 181              		.cfi_offset 14, -4
 182 0002 82B0     		sub	sp, sp, #8
 183              	.LCFI4:
 184              		.cfi_def_cfa_offset 16
 204:Middlewares/ST/STM32_USB_Device_Library/Core/Src/usbd_core.c ****   uint16_t len = 0U;
 185              		.loc 1 204 3 is_stmt 1 view .LVU53
 186              		.loc 1 204 12 is_stmt 0 view .LVU54
 187 0004 0023     		movs	r3, #0
 188 0006 ADF80630 		strh	r3, [sp, #6]	@ movhi
 205:Middlewares/ST/STM32_USB_Device_Library/Core/Src/usbd_core.c **** 
 206:Middlewares/ST/STM32_USB_Device_Library/Core/Src/usbd_core.c ****   if (pclass == NULL)
 189              		.loc 1 206 3 is_stmt 1 view .LVU55
 190              		.loc 1 206 6 is_stmt 0 view .LVU56
 191 000a 89B1     		cbz	r1, .L15
 192 000c 0446     		mov	r4, r0
 207:Middlewares/ST/STM32_USB_Device_Library/Core/Src/usbd_core.c ****   {
 208:Middlewares/ST/STM32_USB_Device_Library/Core/Src/usbd_core.c **** #if (USBD_DEBUG_LEVEL > 1U)
 209:Middlewares/ST/STM32_USB_Device_Library/Core/Src/usbd_core.c ****     USBD_ErrLog("Invalid Class handle");
 210:Middlewares/ST/STM32_USB_Device_Library/Core/Src/usbd_core.c **** #endif /* (USBD_DEBUG_LEVEL > 1U) */
ARM GAS  /tmp/ccgGleel.s 			page 8


 211:Middlewares/ST/STM32_USB_Device_Library/Core/Src/usbd_core.c ****     return USBD_FAIL;
 212:Middlewares/ST/STM32_USB_Device_Library/Core/Src/usbd_core.c ****   }
 213:Middlewares/ST/STM32_USB_Device_Library/Core/Src/usbd_core.c **** 
 214:Middlewares/ST/STM32_USB_Device_Library/Core/Src/usbd_core.c ****   /* link the class to the USB Device handle */
 215:Middlewares/ST/STM32_USB_Device_Library/Core/Src/usbd_core.c ****   pdev->pClass[0] = pclass;
 193              		.loc 1 215 3 is_stmt 1 view .LVU57
 194              		.loc 1 215 19 is_stmt 0 view .LVU58
 195 000e C0F8B812 		str	r1, [r0, #696]
 216:Middlewares/ST/STM32_USB_Device_Library/Core/Src/usbd_core.c **** 
 217:Middlewares/ST/STM32_USB_Device_Library/Core/Src/usbd_core.c ****   /* Get Device Configuration Descriptor */
 218:Middlewares/ST/STM32_USB_Device_Library/Core/Src/usbd_core.c **** #ifdef USE_USB_HS
 219:Middlewares/ST/STM32_USB_Device_Library/Core/Src/usbd_core.c ****   if (pdev->pClass[pdev->classId]->GetHSConfigDescriptor != NULL)
 220:Middlewares/ST/STM32_USB_Device_Library/Core/Src/usbd_core.c ****   {
 221:Middlewares/ST/STM32_USB_Device_Library/Core/Src/usbd_core.c ****     pdev->pConfDesc = (void *)pdev->pClass[pdev->classId]->GetHSConfigDescriptor(&len);
 222:Middlewares/ST/STM32_USB_Device_Library/Core/Src/usbd_core.c ****   }
 223:Middlewares/ST/STM32_USB_Device_Library/Core/Src/usbd_core.c **** #else /* Default USE_USB_FS */
 224:Middlewares/ST/STM32_USB_Device_Library/Core/Src/usbd_core.c ****   if (pdev->pClass[pdev->classId]->GetFSConfigDescriptor != NULL)
 196              		.loc 1 224 3 is_stmt 1 view .LVU59
 197              		.loc 1 224 34 is_stmt 0 view .LVU60
 198 0012 CB6A     		ldr	r3, [r1, #44]
 199              		.loc 1 224 6 view .LVU61
 200 0014 23B1     		cbz	r3, .L14
 225:Middlewares/ST/STM32_USB_Device_Library/Core/Src/usbd_core.c ****   {
 226:Middlewares/ST/STM32_USB_Device_Library/Core/Src/usbd_core.c ****     pdev->pConfDesc = (void *)pdev->pClass[pdev->classId]->GetFSConfigDescriptor(&len);
 201              		.loc 1 226 5 is_stmt 1 view .LVU62
 202              		.loc 1 226 31 is_stmt 0 view .LVU63
 203 0016 0DF10600 		add	r0, sp, #6
 204              	.LVL11:
 205              		.loc 1 226 31 view .LVU64
 206 001a 9847     		blx	r3
 207              	.LVL12:
 208              		.loc 1 226 21 view .LVU65
 209 001c C4F8D002 		str	r0, [r4, #720]
 210              	.L14:
 227:Middlewares/ST/STM32_USB_Device_Library/Core/Src/usbd_core.c ****   }
 228:Middlewares/ST/STM32_USB_Device_Library/Core/Src/usbd_core.c **** #endif /* USE_USB_FS */
 229:Middlewares/ST/STM32_USB_Device_Library/Core/Src/usbd_core.c **** 
 230:Middlewares/ST/STM32_USB_Device_Library/Core/Src/usbd_core.c ****   /* Increment the NumClasses */
 231:Middlewares/ST/STM32_USB_Device_Library/Core/Src/usbd_core.c ****   pdev->NumClasses ++;
 211              		.loc 1 231 3 is_stmt 1 view .LVU66
 212              		.loc 1 231 7 is_stmt 0 view .LVU67
 213 0020 D4F8D832 		ldr	r3, [r4, #728]
 214              		.loc 1 231 20 view .LVU68
 215 0024 0133     		adds	r3, r3, #1
 216 0026 C4F8D832 		str	r3, [r4, #728]
 232:Middlewares/ST/STM32_USB_Device_Library/Core/Src/usbd_core.c **** 
 233:Middlewares/ST/STM32_USB_Device_Library/Core/Src/usbd_core.c ****   return USBD_OK;
 217              		.loc 1 233 3 is_stmt 1 view .LVU69
 218              		.loc 1 233 10 is_stmt 0 view .LVU70
 219 002a 0020     		movs	r0, #0
 220              	.LVL13:
 221              	.L13:
 234:Middlewares/ST/STM32_USB_Device_Library/Core/Src/usbd_core.c **** }
 222              		.loc 1 234 1 view .LVU71
 223 002c 02B0     		add	sp, sp, #8
 224              	.LCFI5:
 225              		.cfi_remember_state
ARM GAS  /tmp/ccgGleel.s 			page 9


 226              		.cfi_def_cfa_offset 8
 227              		@ sp needed
 228 002e 10BD     		pop	{r4, pc}
 229              	.LVL14:
 230              	.L15:
 231              	.LCFI6:
 232              		.cfi_restore_state
 211:Middlewares/ST/STM32_USB_Device_Library/Core/Src/usbd_core.c ****   }
 233              		.loc 1 211 12 view .LVU72
 234 0030 0320     		movs	r0, #3
 235              	.LVL15:
 211:Middlewares/ST/STM32_USB_Device_Library/Core/Src/usbd_core.c ****   }
 236              		.loc 1 211 12 view .LVU73
 237 0032 FBE7     		b	.L13
 238              		.cfi_endproc
 239              	.LFE158:
 241              		.section	.text.USBD_Start,"ax",%progbits
 242              		.align	1
 243              		.global	USBD_Start
 244              		.syntax unified
 245              		.thumb
 246              		.thumb_func
 248              	USBD_Start:
 249              	.LVL16:
 250              	.LFB159:
 235:Middlewares/ST/STM32_USB_Device_Library/Core/Src/usbd_core.c **** 
 236:Middlewares/ST/STM32_USB_Device_Library/Core/Src/usbd_core.c **** #ifdef USE_USBD_COMPOSITE
 237:Middlewares/ST/STM32_USB_Device_Library/Core/Src/usbd_core.c **** /**
 238:Middlewares/ST/STM32_USB_Device_Library/Core/Src/usbd_core.c ****   * @brief  USBD_RegisterClassComposite
 239:Middlewares/ST/STM32_USB_Device_Library/Core/Src/usbd_core.c ****   *         Link class driver to Device Core.
 240:Middlewares/ST/STM32_USB_Device_Library/Core/Src/usbd_core.c ****   * @param  pdev : Device Handle
 241:Middlewares/ST/STM32_USB_Device_Library/Core/Src/usbd_core.c ****   * @param  pclass: Class handle
 242:Middlewares/ST/STM32_USB_Device_Library/Core/Src/usbd_core.c ****   * @param  classtype: Class type
 243:Middlewares/ST/STM32_USB_Device_Library/Core/Src/usbd_core.c ****   * @param  EpAddr: Endpoint Address handle
 244:Middlewares/ST/STM32_USB_Device_Library/Core/Src/usbd_core.c ****   * @retval USBD Status
 245:Middlewares/ST/STM32_USB_Device_Library/Core/Src/usbd_core.c ****   */
 246:Middlewares/ST/STM32_USB_Device_Library/Core/Src/usbd_core.c **** USBD_StatusTypeDef  USBD_RegisterClassComposite(USBD_HandleTypeDef *pdev, USBD_ClassTypeDef *pclass
 247:Middlewares/ST/STM32_USB_Device_Library/Core/Src/usbd_core.c ****                                                 USBD_CompositeClassTypeDef classtype, uint8_t *EpAd
 248:Middlewares/ST/STM32_USB_Device_Library/Core/Src/usbd_core.c **** {
 249:Middlewares/ST/STM32_USB_Device_Library/Core/Src/usbd_core.c ****   USBD_StatusTypeDef   ret = USBD_OK;
 250:Middlewares/ST/STM32_USB_Device_Library/Core/Src/usbd_core.c ****   uint16_t len = 0U;
 251:Middlewares/ST/STM32_USB_Device_Library/Core/Src/usbd_core.c **** 
 252:Middlewares/ST/STM32_USB_Device_Library/Core/Src/usbd_core.c ****   if ((pdev->classId < USBD_MAX_SUPPORTED_CLASS) && (pdev->NumClasses < USBD_MAX_SUPPORTED_CLASS))
 253:Middlewares/ST/STM32_USB_Device_Library/Core/Src/usbd_core.c ****   {
 254:Middlewares/ST/STM32_USB_Device_Library/Core/Src/usbd_core.c ****     if ((uint32_t)pclass != 0U)
 255:Middlewares/ST/STM32_USB_Device_Library/Core/Src/usbd_core.c ****     {
 256:Middlewares/ST/STM32_USB_Device_Library/Core/Src/usbd_core.c ****       /* Link the class to the USB Device handle */
 257:Middlewares/ST/STM32_USB_Device_Library/Core/Src/usbd_core.c ****       pdev->pClass[pdev->classId] = pclass;
 258:Middlewares/ST/STM32_USB_Device_Library/Core/Src/usbd_core.c ****       ret = USBD_OK;
 259:Middlewares/ST/STM32_USB_Device_Library/Core/Src/usbd_core.c **** 
 260:Middlewares/ST/STM32_USB_Device_Library/Core/Src/usbd_core.c ****       pdev->tclasslist[pdev->classId].EpAdd = EpAddr;
 261:Middlewares/ST/STM32_USB_Device_Library/Core/Src/usbd_core.c **** 
 262:Middlewares/ST/STM32_USB_Device_Library/Core/Src/usbd_core.c ****       /* Call the composite class builder */
 263:Middlewares/ST/STM32_USB_Device_Library/Core/Src/usbd_core.c ****       (void)USBD_CMPSIT_AddClass(pdev, pclass, classtype, 0);
 264:Middlewares/ST/STM32_USB_Device_Library/Core/Src/usbd_core.c **** 
 265:Middlewares/ST/STM32_USB_Device_Library/Core/Src/usbd_core.c ****       /* Increment the ClassId for the next occurrence */
 266:Middlewares/ST/STM32_USB_Device_Library/Core/Src/usbd_core.c ****       pdev->classId ++;
ARM GAS  /tmp/ccgGleel.s 			page 10


 267:Middlewares/ST/STM32_USB_Device_Library/Core/Src/usbd_core.c ****       pdev->NumClasses ++;
 268:Middlewares/ST/STM32_USB_Device_Library/Core/Src/usbd_core.c ****     }
 269:Middlewares/ST/STM32_USB_Device_Library/Core/Src/usbd_core.c ****     else
 270:Middlewares/ST/STM32_USB_Device_Library/Core/Src/usbd_core.c ****     {
 271:Middlewares/ST/STM32_USB_Device_Library/Core/Src/usbd_core.c **** #if (USBD_DEBUG_LEVEL > 1U)
 272:Middlewares/ST/STM32_USB_Device_Library/Core/Src/usbd_core.c ****       USBD_ErrLog("Invalid Class handle");
 273:Middlewares/ST/STM32_USB_Device_Library/Core/Src/usbd_core.c **** #endif /* (USBD_DEBUG_LEVEL > 1U) */
 274:Middlewares/ST/STM32_USB_Device_Library/Core/Src/usbd_core.c ****       ret = USBD_FAIL;
 275:Middlewares/ST/STM32_USB_Device_Library/Core/Src/usbd_core.c ****     }
 276:Middlewares/ST/STM32_USB_Device_Library/Core/Src/usbd_core.c ****   }
 277:Middlewares/ST/STM32_USB_Device_Library/Core/Src/usbd_core.c **** 
 278:Middlewares/ST/STM32_USB_Device_Library/Core/Src/usbd_core.c ****   if (ret == USBD_OK)
 279:Middlewares/ST/STM32_USB_Device_Library/Core/Src/usbd_core.c ****   {
 280:Middlewares/ST/STM32_USB_Device_Library/Core/Src/usbd_core.c ****     /* Get Device Configuration Descriptor */
 281:Middlewares/ST/STM32_USB_Device_Library/Core/Src/usbd_core.c **** #ifdef USE_USB_HS
 282:Middlewares/ST/STM32_USB_Device_Library/Core/Src/usbd_core.c ****     pdev->pConfDesc = USBD_CMPSIT.GetHSConfigDescriptor(&len);
 283:Middlewares/ST/STM32_USB_Device_Library/Core/Src/usbd_core.c **** #else /* Default USE_USB_FS */
 284:Middlewares/ST/STM32_USB_Device_Library/Core/Src/usbd_core.c ****     pdev->pConfDesc = USBD_CMPSIT.GetFSConfigDescriptor(&len);
 285:Middlewares/ST/STM32_USB_Device_Library/Core/Src/usbd_core.c **** #endif /* USE_USB_FS */
 286:Middlewares/ST/STM32_USB_Device_Library/Core/Src/usbd_core.c ****   }
 287:Middlewares/ST/STM32_USB_Device_Library/Core/Src/usbd_core.c **** 
 288:Middlewares/ST/STM32_USB_Device_Library/Core/Src/usbd_core.c ****   return ret;
 289:Middlewares/ST/STM32_USB_Device_Library/Core/Src/usbd_core.c **** }
 290:Middlewares/ST/STM32_USB_Device_Library/Core/Src/usbd_core.c **** 
 291:Middlewares/ST/STM32_USB_Device_Library/Core/Src/usbd_core.c **** /**
 292:Middlewares/ST/STM32_USB_Device_Library/Core/Src/usbd_core.c ****   * @brief  USBD_UnRegisterClassComposite
 293:Middlewares/ST/STM32_USB_Device_Library/Core/Src/usbd_core.c ****   *         UnLink all composite class drivers from Device Core.
 294:Middlewares/ST/STM32_USB_Device_Library/Core/Src/usbd_core.c ****   * @param  pDevice : Device Handle
 295:Middlewares/ST/STM32_USB_Device_Library/Core/Src/usbd_core.c ****   * @retval USBD Status
 296:Middlewares/ST/STM32_USB_Device_Library/Core/Src/usbd_core.c ****   */
 297:Middlewares/ST/STM32_USB_Device_Library/Core/Src/usbd_core.c **** USBD_StatusTypeDef  USBD_UnRegisterClassComposite(USBD_HandleTypeDef *pdev)
 298:Middlewares/ST/STM32_USB_Device_Library/Core/Src/usbd_core.c **** {
 299:Middlewares/ST/STM32_USB_Device_Library/Core/Src/usbd_core.c ****   USBD_StatusTypeDef   ret = USBD_FAIL;
 300:Middlewares/ST/STM32_USB_Device_Library/Core/Src/usbd_core.c ****   uint8_t idx1;
 301:Middlewares/ST/STM32_USB_Device_Library/Core/Src/usbd_core.c ****   uint8_t idx2;
 302:Middlewares/ST/STM32_USB_Device_Library/Core/Src/usbd_core.c **** 
 303:Middlewares/ST/STM32_USB_Device_Library/Core/Src/usbd_core.c ****   /* Unroll all activated classes */
 304:Middlewares/ST/STM32_USB_Device_Library/Core/Src/usbd_core.c ****   for (idx1 = 0; idx1 < pdev->NumClasses; idx1++)
 305:Middlewares/ST/STM32_USB_Device_Library/Core/Src/usbd_core.c ****   {
 306:Middlewares/ST/STM32_USB_Device_Library/Core/Src/usbd_core.c ****     /* Check if the class correspond to the requested type and if it is active */
 307:Middlewares/ST/STM32_USB_Device_Library/Core/Src/usbd_core.c ****     if (pdev->tclasslist[idx1].Active == 1U)
 308:Middlewares/ST/STM32_USB_Device_Library/Core/Src/usbd_core.c ****     {
 309:Middlewares/ST/STM32_USB_Device_Library/Core/Src/usbd_core.c ****       /* Set the new class ID */
 310:Middlewares/ST/STM32_USB_Device_Library/Core/Src/usbd_core.c ****       pdev->classId = idx1;
 311:Middlewares/ST/STM32_USB_Device_Library/Core/Src/usbd_core.c **** 
 312:Middlewares/ST/STM32_USB_Device_Library/Core/Src/usbd_core.c ****       /* Free resources used by the selected class */
 313:Middlewares/ST/STM32_USB_Device_Library/Core/Src/usbd_core.c ****       if (pdev->pClass[pdev->classId] != NULL)
 314:Middlewares/ST/STM32_USB_Device_Library/Core/Src/usbd_core.c ****       {
 315:Middlewares/ST/STM32_USB_Device_Library/Core/Src/usbd_core.c ****         /* Free Class Resources */
 316:Middlewares/ST/STM32_USB_Device_Library/Core/Src/usbd_core.c ****         if (pdev->pClass[pdev->classId]->DeInit(pdev, (uint8_t)pdev->dev_config) != 0U)
 317:Middlewares/ST/STM32_USB_Device_Library/Core/Src/usbd_core.c ****         {
 318:Middlewares/ST/STM32_USB_Device_Library/Core/Src/usbd_core.c **** #if (USBD_DEBUG_LEVEL > 1U)
 319:Middlewares/ST/STM32_USB_Device_Library/Core/Src/usbd_core.c ****           USBD_ErrLog("Class DeInit didn't succeed!, can't unregister selected class");
 320:Middlewares/ST/STM32_USB_Device_Library/Core/Src/usbd_core.c **** #endif /* (USBD_DEBUG_LEVEL > 1U) */
 321:Middlewares/ST/STM32_USB_Device_Library/Core/Src/usbd_core.c **** 
 322:Middlewares/ST/STM32_USB_Device_Library/Core/Src/usbd_core.c ****           ret = USBD_FAIL;
 323:Middlewares/ST/STM32_USB_Device_Library/Core/Src/usbd_core.c ****         }
ARM GAS  /tmp/ccgGleel.s 			page 11


 324:Middlewares/ST/STM32_USB_Device_Library/Core/Src/usbd_core.c ****       }
 325:Middlewares/ST/STM32_USB_Device_Library/Core/Src/usbd_core.c **** 
 326:Middlewares/ST/STM32_USB_Device_Library/Core/Src/usbd_core.c ****       /* Free the class pointer */
 327:Middlewares/ST/STM32_USB_Device_Library/Core/Src/usbd_core.c ****       pdev->pClass[pdev->classId] = NULL;
 328:Middlewares/ST/STM32_USB_Device_Library/Core/Src/usbd_core.c **** 
 329:Middlewares/ST/STM32_USB_Device_Library/Core/Src/usbd_core.c ****       /* Free the class location in classes table and reset its parameters to zero */
 330:Middlewares/ST/STM32_USB_Device_Library/Core/Src/usbd_core.c ****       pdev->tclasslist[pdev->classId].ClassType = CLASS_TYPE_NONE;
 331:Middlewares/ST/STM32_USB_Device_Library/Core/Src/usbd_core.c ****       pdev->tclasslist[pdev->classId].ClassId = 0U;
 332:Middlewares/ST/STM32_USB_Device_Library/Core/Src/usbd_core.c ****       pdev->tclasslist[pdev->classId].Active = 0U;
 333:Middlewares/ST/STM32_USB_Device_Library/Core/Src/usbd_core.c ****       pdev->tclasslist[pdev->classId].NumEps = 0U;
 334:Middlewares/ST/STM32_USB_Device_Library/Core/Src/usbd_core.c ****       pdev->tclasslist[pdev->classId].NumIf = 0U;
 335:Middlewares/ST/STM32_USB_Device_Library/Core/Src/usbd_core.c ****       pdev->tclasslist[pdev->classId].CurrPcktSze = 0U;
 336:Middlewares/ST/STM32_USB_Device_Library/Core/Src/usbd_core.c **** 
 337:Middlewares/ST/STM32_USB_Device_Library/Core/Src/usbd_core.c ****       for (idx2 = 0U; idx2 < USBD_MAX_CLASS_ENDPOINTS; idx2++)
 338:Middlewares/ST/STM32_USB_Device_Library/Core/Src/usbd_core.c ****       {
 339:Middlewares/ST/STM32_USB_Device_Library/Core/Src/usbd_core.c ****         pdev->tclasslist[pdev->classId].Eps[idx2].add = 0U;
 340:Middlewares/ST/STM32_USB_Device_Library/Core/Src/usbd_core.c ****         pdev->tclasslist[pdev->classId].Eps[idx2].type = 0U;
 341:Middlewares/ST/STM32_USB_Device_Library/Core/Src/usbd_core.c ****         pdev->tclasslist[pdev->classId].Eps[idx2].size = 0U;
 342:Middlewares/ST/STM32_USB_Device_Library/Core/Src/usbd_core.c ****         pdev->tclasslist[pdev->classId].Eps[idx2].is_used = 0U;
 343:Middlewares/ST/STM32_USB_Device_Library/Core/Src/usbd_core.c ****       }
 344:Middlewares/ST/STM32_USB_Device_Library/Core/Src/usbd_core.c **** 
 345:Middlewares/ST/STM32_USB_Device_Library/Core/Src/usbd_core.c ****       for (idx2 = 0U; idx2 < USBD_MAX_CLASS_INTERFACES; idx2++)
 346:Middlewares/ST/STM32_USB_Device_Library/Core/Src/usbd_core.c ****       {
 347:Middlewares/ST/STM32_USB_Device_Library/Core/Src/usbd_core.c ****         pdev->tclasslist[pdev->classId].Ifs[idx2] = 0U;
 348:Middlewares/ST/STM32_USB_Device_Library/Core/Src/usbd_core.c ****       }
 349:Middlewares/ST/STM32_USB_Device_Library/Core/Src/usbd_core.c ****     }
 350:Middlewares/ST/STM32_USB_Device_Library/Core/Src/usbd_core.c ****   }
 351:Middlewares/ST/STM32_USB_Device_Library/Core/Src/usbd_core.c **** 
 352:Middlewares/ST/STM32_USB_Device_Library/Core/Src/usbd_core.c ****   /* Reset the configuration descriptor */
 353:Middlewares/ST/STM32_USB_Device_Library/Core/Src/usbd_core.c ****   (void)USBD_CMPST_ClearConfDesc(pdev);
 354:Middlewares/ST/STM32_USB_Device_Library/Core/Src/usbd_core.c **** 
 355:Middlewares/ST/STM32_USB_Device_Library/Core/Src/usbd_core.c ****   /* Reset the class ID and number of classes */
 356:Middlewares/ST/STM32_USB_Device_Library/Core/Src/usbd_core.c ****   pdev->classId = 0U;
 357:Middlewares/ST/STM32_USB_Device_Library/Core/Src/usbd_core.c ****   pdev->NumClasses = 0U;
 358:Middlewares/ST/STM32_USB_Device_Library/Core/Src/usbd_core.c **** 
 359:Middlewares/ST/STM32_USB_Device_Library/Core/Src/usbd_core.c ****   return ret;
 360:Middlewares/ST/STM32_USB_Device_Library/Core/Src/usbd_core.c **** }
 361:Middlewares/ST/STM32_USB_Device_Library/Core/Src/usbd_core.c **** 
 362:Middlewares/ST/STM32_USB_Device_Library/Core/Src/usbd_core.c **** 
 363:Middlewares/ST/STM32_USB_Device_Library/Core/Src/usbd_core.c **** #endif /* USE_USBD_COMPOSITE */
 364:Middlewares/ST/STM32_USB_Device_Library/Core/Src/usbd_core.c **** 
 365:Middlewares/ST/STM32_USB_Device_Library/Core/Src/usbd_core.c **** /**
 366:Middlewares/ST/STM32_USB_Device_Library/Core/Src/usbd_core.c ****   * @brief  USBD_Start
 367:Middlewares/ST/STM32_USB_Device_Library/Core/Src/usbd_core.c ****   *         Start the USB Device Core.
 368:Middlewares/ST/STM32_USB_Device_Library/Core/Src/usbd_core.c ****   * @param  pdev: Device Handle
 369:Middlewares/ST/STM32_USB_Device_Library/Core/Src/usbd_core.c ****   * @retval USBD Status
 370:Middlewares/ST/STM32_USB_Device_Library/Core/Src/usbd_core.c ****   */
 371:Middlewares/ST/STM32_USB_Device_Library/Core/Src/usbd_core.c **** USBD_StatusTypeDef USBD_Start(USBD_HandleTypeDef *pdev)
 372:Middlewares/ST/STM32_USB_Device_Library/Core/Src/usbd_core.c **** {
 251              		.loc 1 372 1 is_stmt 1 view -0
 252              		.cfi_startproc
 253              		@ args = 0, pretend = 0, frame = 0
 254              		@ frame_needed = 0, uses_anonymous_args = 0
 255              		.loc 1 372 1 is_stmt 0 view .LVU75
 256 0000 08B5     		push	{r3, lr}
 257              	.LCFI7:
 258              		.cfi_def_cfa_offset 8
ARM GAS  /tmp/ccgGleel.s 			page 12


 259              		.cfi_offset 3, -8
 260              		.cfi_offset 14, -4
 373:Middlewares/ST/STM32_USB_Device_Library/Core/Src/usbd_core.c **** #ifdef USE_USBD_COMPOSITE
 374:Middlewares/ST/STM32_USB_Device_Library/Core/Src/usbd_core.c ****   pdev->classId = 0U;
 375:Middlewares/ST/STM32_USB_Device_Library/Core/Src/usbd_core.c **** #endif /* USE_USBD_COMPOSITE */
 376:Middlewares/ST/STM32_USB_Device_Library/Core/Src/usbd_core.c **** 
 377:Middlewares/ST/STM32_USB_Device_Library/Core/Src/usbd_core.c ****   /* Start the low level driver  */
 378:Middlewares/ST/STM32_USB_Device_Library/Core/Src/usbd_core.c ****   return USBD_LL_Start(pdev);
 261              		.loc 1 378 3 is_stmt 1 view .LVU76
 262              		.loc 1 378 10 is_stmt 0 view .LVU77
 263 0002 FFF7FEFF 		bl	USBD_LL_Start
 264              	.LVL17:
 379:Middlewares/ST/STM32_USB_Device_Library/Core/Src/usbd_core.c **** }
 265              		.loc 1 379 1 view .LVU78
 266 0006 08BD     		pop	{r3, pc}
 267              		.cfi_endproc
 268              	.LFE159:
 270              		.section	.text.USBD_Stop,"ax",%progbits
 271              		.align	1
 272              		.global	USBD_Stop
 273              		.syntax unified
 274              		.thumb
 275              		.thumb_func
 277              	USBD_Stop:
 278              	.LVL18:
 279              	.LFB160:
 380:Middlewares/ST/STM32_USB_Device_Library/Core/Src/usbd_core.c **** 
 381:Middlewares/ST/STM32_USB_Device_Library/Core/Src/usbd_core.c **** /**
 382:Middlewares/ST/STM32_USB_Device_Library/Core/Src/usbd_core.c ****   * @brief  USBD_Stop
 383:Middlewares/ST/STM32_USB_Device_Library/Core/Src/usbd_core.c ****   *         Stop the USB Device Core.
 384:Middlewares/ST/STM32_USB_Device_Library/Core/Src/usbd_core.c ****   * @param  pdev: Device Handle
 385:Middlewares/ST/STM32_USB_Device_Library/Core/Src/usbd_core.c ****   * @retval USBD Status
 386:Middlewares/ST/STM32_USB_Device_Library/Core/Src/usbd_core.c ****   */
 387:Middlewares/ST/STM32_USB_Device_Library/Core/Src/usbd_core.c **** USBD_StatusTypeDef USBD_Stop(USBD_HandleTypeDef *pdev)
 388:Middlewares/ST/STM32_USB_Device_Library/Core/Src/usbd_core.c **** {
 280              		.loc 1 388 1 is_stmt 1 view -0
 281              		.cfi_startproc
 282              		@ args = 0, pretend = 0, frame = 0
 283              		@ frame_needed = 0, uses_anonymous_args = 0
 284              		.loc 1 388 1 is_stmt 0 view .LVU80
 285 0000 10B5     		push	{r4, lr}
 286              	.LCFI8:
 287              		.cfi_def_cfa_offset 8
 288              		.cfi_offset 4, -8
 289              		.cfi_offset 14, -4
 290 0002 0446     		mov	r4, r0
 389:Middlewares/ST/STM32_USB_Device_Library/Core/Src/usbd_core.c ****   /* Disconnect USB Device */
 390:Middlewares/ST/STM32_USB_Device_Library/Core/Src/usbd_core.c ****   (void)USBD_LL_Stop(pdev);
 291              		.loc 1 390 3 is_stmt 1 view .LVU81
 292              		.loc 1 390 9 is_stmt 0 view .LVU82
 293 0004 FFF7FEFF 		bl	USBD_LL_Stop
 294              	.LVL19:
 391:Middlewares/ST/STM32_USB_Device_Library/Core/Src/usbd_core.c **** 
 392:Middlewares/ST/STM32_USB_Device_Library/Core/Src/usbd_core.c ****   /* Free Class Resources */
 393:Middlewares/ST/STM32_USB_Device_Library/Core/Src/usbd_core.c **** #ifdef USE_USBD_COMPOSITE
 394:Middlewares/ST/STM32_USB_Device_Library/Core/Src/usbd_core.c ****   /* Parse the table of classes in use */
 395:Middlewares/ST/STM32_USB_Device_Library/Core/Src/usbd_core.c ****   for (uint32_t i = 0U; i < USBD_MAX_SUPPORTED_CLASS; i++)
ARM GAS  /tmp/ccgGleel.s 			page 13


 396:Middlewares/ST/STM32_USB_Device_Library/Core/Src/usbd_core.c ****   {
 397:Middlewares/ST/STM32_USB_Device_Library/Core/Src/usbd_core.c ****     /* Check if current class is in use */
 398:Middlewares/ST/STM32_USB_Device_Library/Core/Src/usbd_core.c ****     if ((pdev->tclasslist[i].Active) == 1U)
 399:Middlewares/ST/STM32_USB_Device_Library/Core/Src/usbd_core.c ****     {
 400:Middlewares/ST/STM32_USB_Device_Library/Core/Src/usbd_core.c ****       if (pdev->pClass[i] != NULL)
 401:Middlewares/ST/STM32_USB_Device_Library/Core/Src/usbd_core.c ****       {
 402:Middlewares/ST/STM32_USB_Device_Library/Core/Src/usbd_core.c ****         pdev->classId = i;
 403:Middlewares/ST/STM32_USB_Device_Library/Core/Src/usbd_core.c ****         /* Free Class Resources */
 404:Middlewares/ST/STM32_USB_Device_Library/Core/Src/usbd_core.c ****         (void)pdev->pClass[i]->DeInit(pdev, (uint8_t)pdev->dev_config);
 405:Middlewares/ST/STM32_USB_Device_Library/Core/Src/usbd_core.c ****       }
 406:Middlewares/ST/STM32_USB_Device_Library/Core/Src/usbd_core.c ****     }
 407:Middlewares/ST/STM32_USB_Device_Library/Core/Src/usbd_core.c ****   }
 408:Middlewares/ST/STM32_USB_Device_Library/Core/Src/usbd_core.c **** 
 409:Middlewares/ST/STM32_USB_Device_Library/Core/Src/usbd_core.c ****   /* Reset the class ID */
 410:Middlewares/ST/STM32_USB_Device_Library/Core/Src/usbd_core.c ****   pdev->classId = 0U;
 411:Middlewares/ST/STM32_USB_Device_Library/Core/Src/usbd_core.c **** #else
 412:Middlewares/ST/STM32_USB_Device_Library/Core/Src/usbd_core.c ****   if (pdev->pClass[0] != NULL)
 295              		.loc 1 412 3 is_stmt 1 view .LVU83
 296              		.loc 1 412 19 is_stmt 0 view .LVU84
 297 0008 D4F8B832 		ldr	r3, [r4, #696]
 298              		.loc 1 412 6 view .LVU85
 299 000c 1BB1     		cbz	r3, .L20
 413:Middlewares/ST/STM32_USB_Device_Library/Core/Src/usbd_core.c ****   {
 414:Middlewares/ST/STM32_USB_Device_Library/Core/Src/usbd_core.c ****     (void)pdev->pClass[0]->DeInit(pdev, (uint8_t)pdev->dev_config);
 300              		.loc 1 414 5 is_stmt 1 view .LVU86
 301              		.loc 1 414 26 is_stmt 0 view .LVU87
 302 000e 5B68     		ldr	r3, [r3, #4]
 303              		.loc 1 414 11 view .LVU88
 304 0010 2179     		ldrb	r1, [r4, #4]	@ zero_extendqisi2
 305 0012 2046     		mov	r0, r4
 306 0014 9847     		blx	r3
 307              	.LVL20:
 308              	.L20:
 415:Middlewares/ST/STM32_USB_Device_Library/Core/Src/usbd_core.c ****   }
 416:Middlewares/ST/STM32_USB_Device_Library/Core/Src/usbd_core.c **** #endif /* USE_USBD_COMPOSITE */
 417:Middlewares/ST/STM32_USB_Device_Library/Core/Src/usbd_core.c **** 
 418:Middlewares/ST/STM32_USB_Device_Library/Core/Src/usbd_core.c ****   return USBD_OK;
 309              		.loc 1 418 3 is_stmt 1 view .LVU89
 419:Middlewares/ST/STM32_USB_Device_Library/Core/Src/usbd_core.c **** }
 310              		.loc 1 419 1 is_stmt 0 view .LVU90
 311 0016 0020     		movs	r0, #0
 312 0018 10BD     		pop	{r4, pc}
 313              		.loc 1 419 1 view .LVU91
 314              		.cfi_endproc
 315              	.LFE160:
 317              		.section	.text.USBD_RunTestMode,"ax",%progbits
 318              		.align	1
 319              		.global	USBD_RunTestMode
 320              		.syntax unified
 321              		.thumb
 322              		.thumb_func
 324              	USBD_RunTestMode:
 325              	.LVL21:
 326              	.LFB161:
 420:Middlewares/ST/STM32_USB_Device_Library/Core/Src/usbd_core.c **** 
 421:Middlewares/ST/STM32_USB_Device_Library/Core/Src/usbd_core.c **** /**
 422:Middlewares/ST/STM32_USB_Device_Library/Core/Src/usbd_core.c ****   * @brief  USBD_RunTestMode
ARM GAS  /tmp/ccgGleel.s 			page 14


 423:Middlewares/ST/STM32_USB_Device_Library/Core/Src/usbd_core.c ****   *         Launch test mode process
 424:Middlewares/ST/STM32_USB_Device_Library/Core/Src/usbd_core.c ****   * @param  pdev: device instance
 425:Middlewares/ST/STM32_USB_Device_Library/Core/Src/usbd_core.c ****   * @retval status
 426:Middlewares/ST/STM32_USB_Device_Library/Core/Src/usbd_core.c ****   */
 427:Middlewares/ST/STM32_USB_Device_Library/Core/Src/usbd_core.c **** USBD_StatusTypeDef USBD_RunTestMode(USBD_HandleTypeDef *pdev)
 428:Middlewares/ST/STM32_USB_Device_Library/Core/Src/usbd_core.c **** {
 327              		.loc 1 428 1 is_stmt 1 view -0
 328              		.cfi_startproc
 329              		@ args = 0, pretend = 0, frame = 0
 330              		@ frame_needed = 0, uses_anonymous_args = 0
 331              		@ link register save eliminated.
 429:Middlewares/ST/STM32_USB_Device_Library/Core/Src/usbd_core.c **** #ifdef USBD_HS_TESTMODE_ENABLE
 430:Middlewares/ST/STM32_USB_Device_Library/Core/Src/usbd_core.c ****   USBD_StatusTypeDef ret;
 431:Middlewares/ST/STM32_USB_Device_Library/Core/Src/usbd_core.c **** 
 432:Middlewares/ST/STM32_USB_Device_Library/Core/Src/usbd_core.c ****   /* Run USB HS test mode */
 433:Middlewares/ST/STM32_USB_Device_Library/Core/Src/usbd_core.c ****   ret = USBD_LL_SetTestMode(pdev, pdev->dev_test_mode);
 434:Middlewares/ST/STM32_USB_Device_Library/Core/Src/usbd_core.c **** 
 435:Middlewares/ST/STM32_USB_Device_Library/Core/Src/usbd_core.c ****   return ret;
 436:Middlewares/ST/STM32_USB_Device_Library/Core/Src/usbd_core.c **** #else
 437:Middlewares/ST/STM32_USB_Device_Library/Core/Src/usbd_core.c ****   /* Prevent unused argument compilation warning */
 438:Middlewares/ST/STM32_USB_Device_Library/Core/Src/usbd_core.c ****   UNUSED(pdev);
 332              		.loc 1 438 3 view .LVU93
 439:Middlewares/ST/STM32_USB_Device_Library/Core/Src/usbd_core.c **** 
 440:Middlewares/ST/STM32_USB_Device_Library/Core/Src/usbd_core.c ****   return USBD_OK;
 333              		.loc 1 440 3 view .LVU94
 441:Middlewares/ST/STM32_USB_Device_Library/Core/Src/usbd_core.c **** #endif /* USBD_HS_TESTMODE_ENABLE */
 442:Middlewares/ST/STM32_USB_Device_Library/Core/Src/usbd_core.c **** }
 334              		.loc 1 442 1 is_stmt 0 view .LVU95
 335 0000 0020     		movs	r0, #0
 336              	.LVL22:
 337              		.loc 1 442 1 view .LVU96
 338 0002 7047     		bx	lr
 339              		.cfi_endproc
 340              	.LFE161:
 342              		.section	.text.USBD_SetClassConfig,"ax",%progbits
 343              		.align	1
 344              		.global	USBD_SetClassConfig
 345              		.syntax unified
 346              		.thumb
 347              		.thumb_func
 349              	USBD_SetClassConfig:
 350              	.LVL23:
 351              	.LFB162:
 443:Middlewares/ST/STM32_USB_Device_Library/Core/Src/usbd_core.c **** 
 444:Middlewares/ST/STM32_USB_Device_Library/Core/Src/usbd_core.c **** /**
 445:Middlewares/ST/STM32_USB_Device_Library/Core/Src/usbd_core.c ****   * @brief  USBD_SetClassConfig
 446:Middlewares/ST/STM32_USB_Device_Library/Core/Src/usbd_core.c ****   *        Configure device and start the interface
 447:Middlewares/ST/STM32_USB_Device_Library/Core/Src/usbd_core.c ****   * @param  pdev: device instance
 448:Middlewares/ST/STM32_USB_Device_Library/Core/Src/usbd_core.c ****   * @param  cfgidx: configuration index
 449:Middlewares/ST/STM32_USB_Device_Library/Core/Src/usbd_core.c ****   * @retval status
 450:Middlewares/ST/STM32_USB_Device_Library/Core/Src/usbd_core.c ****   */
 451:Middlewares/ST/STM32_USB_Device_Library/Core/Src/usbd_core.c **** 
 452:Middlewares/ST/STM32_USB_Device_Library/Core/Src/usbd_core.c **** USBD_StatusTypeDef USBD_SetClassConfig(USBD_HandleTypeDef *pdev, uint8_t cfgidx)
 453:Middlewares/ST/STM32_USB_Device_Library/Core/Src/usbd_core.c **** {
 352              		.loc 1 453 1 is_stmt 1 view -0
 353              		.cfi_startproc
 354              		@ args = 0, pretend = 0, frame = 0
ARM GAS  /tmp/ccgGleel.s 			page 15


 355              		@ frame_needed = 0, uses_anonymous_args = 0
 356              		.loc 1 453 1 is_stmt 0 view .LVU98
 357 0000 08B5     		push	{r3, lr}
 358              	.LCFI9:
 359              		.cfi_def_cfa_offset 8
 360              		.cfi_offset 3, -8
 361              		.cfi_offset 14, -4
 454:Middlewares/ST/STM32_USB_Device_Library/Core/Src/usbd_core.c ****   USBD_StatusTypeDef ret = USBD_OK;
 362              		.loc 1 454 3 is_stmt 1 view .LVU99
 363              	.LVL24:
 455:Middlewares/ST/STM32_USB_Device_Library/Core/Src/usbd_core.c **** 
 456:Middlewares/ST/STM32_USB_Device_Library/Core/Src/usbd_core.c **** #ifdef USE_USBD_COMPOSITE
 457:Middlewares/ST/STM32_USB_Device_Library/Core/Src/usbd_core.c ****   /* Parse the table of classes in use */
 458:Middlewares/ST/STM32_USB_Device_Library/Core/Src/usbd_core.c ****   for (uint32_t i = 0U; i < USBD_MAX_SUPPORTED_CLASS; i++)
 459:Middlewares/ST/STM32_USB_Device_Library/Core/Src/usbd_core.c ****   {
 460:Middlewares/ST/STM32_USB_Device_Library/Core/Src/usbd_core.c ****     /* Check if current class is in use */
 461:Middlewares/ST/STM32_USB_Device_Library/Core/Src/usbd_core.c ****     if ((pdev->tclasslist[i].Active) == 1U)
 462:Middlewares/ST/STM32_USB_Device_Library/Core/Src/usbd_core.c ****     {
 463:Middlewares/ST/STM32_USB_Device_Library/Core/Src/usbd_core.c ****       if (pdev->pClass[i] != NULL)
 464:Middlewares/ST/STM32_USB_Device_Library/Core/Src/usbd_core.c ****       {
 465:Middlewares/ST/STM32_USB_Device_Library/Core/Src/usbd_core.c ****         pdev->classId = i;
 466:Middlewares/ST/STM32_USB_Device_Library/Core/Src/usbd_core.c ****         /* Set configuration  and Start the Class*/
 467:Middlewares/ST/STM32_USB_Device_Library/Core/Src/usbd_core.c ****         if (pdev->pClass[i]->Init(pdev, cfgidx) != 0U)
 468:Middlewares/ST/STM32_USB_Device_Library/Core/Src/usbd_core.c ****         {
 469:Middlewares/ST/STM32_USB_Device_Library/Core/Src/usbd_core.c ****           ret = USBD_FAIL;
 470:Middlewares/ST/STM32_USB_Device_Library/Core/Src/usbd_core.c ****         }
 471:Middlewares/ST/STM32_USB_Device_Library/Core/Src/usbd_core.c ****       }
 472:Middlewares/ST/STM32_USB_Device_Library/Core/Src/usbd_core.c ****     }
 473:Middlewares/ST/STM32_USB_Device_Library/Core/Src/usbd_core.c ****   }
 474:Middlewares/ST/STM32_USB_Device_Library/Core/Src/usbd_core.c **** #else
 475:Middlewares/ST/STM32_USB_Device_Library/Core/Src/usbd_core.c ****   if (pdev->pClass[0] != NULL)
 364              		.loc 1 475 3 view .LVU100
 365              		.loc 1 475 19 is_stmt 0 view .LVU101
 366 0002 D0F8B832 		ldr	r3, [r0, #696]
 367              		.loc 1 475 6 view .LVU102
 368 0006 13B1     		cbz	r3, .L25
 476:Middlewares/ST/STM32_USB_Device_Library/Core/Src/usbd_core.c ****   {
 477:Middlewares/ST/STM32_USB_Device_Library/Core/Src/usbd_core.c ****     /* Set configuration and Start the Class */
 478:Middlewares/ST/STM32_USB_Device_Library/Core/Src/usbd_core.c ****     ret = (USBD_StatusTypeDef)pdev->pClass[0]->Init(pdev, cfgidx);
 369              		.loc 1 478 5 is_stmt 1 view .LVU103
 370              		.loc 1 478 46 is_stmt 0 view .LVU104
 371 0008 1B68     		ldr	r3, [r3]
 372              		.loc 1 478 31 view .LVU105
 373 000a 9847     		blx	r3
 374              	.LVL25:
 375              	.L24:
 479:Middlewares/ST/STM32_USB_Device_Library/Core/Src/usbd_core.c ****   }
 480:Middlewares/ST/STM32_USB_Device_Library/Core/Src/usbd_core.c **** #endif /* USE_USBD_COMPOSITE */
 481:Middlewares/ST/STM32_USB_Device_Library/Core/Src/usbd_core.c **** 
 482:Middlewares/ST/STM32_USB_Device_Library/Core/Src/usbd_core.c ****   return ret;
 376              		.loc 1 482 3 is_stmt 1 view .LVU106
 483:Middlewares/ST/STM32_USB_Device_Library/Core/Src/usbd_core.c **** }
 377              		.loc 1 483 1 is_stmt 0 view .LVU107
 378 000c 08BD     		pop	{r3, pc}
 379              	.LVL26:
 380              	.L25:
 454:Middlewares/ST/STM32_USB_Device_Library/Core/Src/usbd_core.c **** 
ARM GAS  /tmp/ccgGleel.s 			page 16


 381              		.loc 1 454 22 view .LVU108
 382 000e 0020     		movs	r0, #0
 383              	.LVL27:
 454:Middlewares/ST/STM32_USB_Device_Library/Core/Src/usbd_core.c **** 
 384              		.loc 1 454 22 view .LVU109
 385 0010 FCE7     		b	.L24
 386              		.cfi_endproc
 387              	.LFE162:
 389              		.section	.text.USBD_ClrClassConfig,"ax",%progbits
 390              		.align	1
 391              		.global	USBD_ClrClassConfig
 392              		.syntax unified
 393              		.thumb
 394              		.thumb_func
 396              	USBD_ClrClassConfig:
 397              	.LVL28:
 398              	.LFB163:
 484:Middlewares/ST/STM32_USB_Device_Library/Core/Src/usbd_core.c **** 
 485:Middlewares/ST/STM32_USB_Device_Library/Core/Src/usbd_core.c **** /**
 486:Middlewares/ST/STM32_USB_Device_Library/Core/Src/usbd_core.c ****   * @brief  USBD_ClrClassConfig
 487:Middlewares/ST/STM32_USB_Device_Library/Core/Src/usbd_core.c ****   *         Clear current configuration
 488:Middlewares/ST/STM32_USB_Device_Library/Core/Src/usbd_core.c ****   * @param  pdev: device instance
 489:Middlewares/ST/STM32_USB_Device_Library/Core/Src/usbd_core.c ****   * @param  cfgidx: configuration index
 490:Middlewares/ST/STM32_USB_Device_Library/Core/Src/usbd_core.c ****   * @retval status: USBD_StatusTypeDef
 491:Middlewares/ST/STM32_USB_Device_Library/Core/Src/usbd_core.c ****   */
 492:Middlewares/ST/STM32_USB_Device_Library/Core/Src/usbd_core.c **** USBD_StatusTypeDef USBD_ClrClassConfig(USBD_HandleTypeDef *pdev, uint8_t cfgidx)
 493:Middlewares/ST/STM32_USB_Device_Library/Core/Src/usbd_core.c **** {
 399              		.loc 1 493 1 is_stmt 1 view -0
 400              		.cfi_startproc
 401              		@ args = 0, pretend = 0, frame = 0
 402              		@ frame_needed = 0, uses_anonymous_args = 0
 403              		.loc 1 493 1 is_stmt 0 view .LVU111
 404 0000 08B5     		push	{r3, lr}
 405              	.LCFI10:
 406              		.cfi_def_cfa_offset 8
 407              		.cfi_offset 3, -8
 408              		.cfi_offset 14, -4
 494:Middlewares/ST/STM32_USB_Device_Library/Core/Src/usbd_core.c ****   USBD_StatusTypeDef ret = USBD_OK;
 409              		.loc 1 494 3 is_stmt 1 view .LVU112
 410              	.LVL29:
 495:Middlewares/ST/STM32_USB_Device_Library/Core/Src/usbd_core.c **** 
 496:Middlewares/ST/STM32_USB_Device_Library/Core/Src/usbd_core.c **** #ifdef USE_USBD_COMPOSITE
 497:Middlewares/ST/STM32_USB_Device_Library/Core/Src/usbd_core.c ****   /* Parse the table of classes in use */
 498:Middlewares/ST/STM32_USB_Device_Library/Core/Src/usbd_core.c ****   for (uint32_t i = 0U; i < USBD_MAX_SUPPORTED_CLASS; i++)
 499:Middlewares/ST/STM32_USB_Device_Library/Core/Src/usbd_core.c ****   {
 500:Middlewares/ST/STM32_USB_Device_Library/Core/Src/usbd_core.c ****     /* Check if current class is in use */
 501:Middlewares/ST/STM32_USB_Device_Library/Core/Src/usbd_core.c ****     if ((pdev->tclasslist[i].Active) == 1U)
 502:Middlewares/ST/STM32_USB_Device_Library/Core/Src/usbd_core.c ****     {
 503:Middlewares/ST/STM32_USB_Device_Library/Core/Src/usbd_core.c ****       if (pdev->pClass[i] != NULL)
 504:Middlewares/ST/STM32_USB_Device_Library/Core/Src/usbd_core.c ****       {
 505:Middlewares/ST/STM32_USB_Device_Library/Core/Src/usbd_core.c ****         pdev->classId = i;
 506:Middlewares/ST/STM32_USB_Device_Library/Core/Src/usbd_core.c ****         /* Clear configuration  and De-initialize the Class process */
 507:Middlewares/ST/STM32_USB_Device_Library/Core/Src/usbd_core.c ****         if (pdev->pClass[i]->DeInit(pdev, cfgidx) != 0U)
 508:Middlewares/ST/STM32_USB_Device_Library/Core/Src/usbd_core.c ****         {
 509:Middlewares/ST/STM32_USB_Device_Library/Core/Src/usbd_core.c ****           ret = USBD_FAIL;
 510:Middlewares/ST/STM32_USB_Device_Library/Core/Src/usbd_core.c ****         }
 511:Middlewares/ST/STM32_USB_Device_Library/Core/Src/usbd_core.c ****       }
ARM GAS  /tmp/ccgGleel.s 			page 17


 512:Middlewares/ST/STM32_USB_Device_Library/Core/Src/usbd_core.c ****     }
 513:Middlewares/ST/STM32_USB_Device_Library/Core/Src/usbd_core.c ****   }
 514:Middlewares/ST/STM32_USB_Device_Library/Core/Src/usbd_core.c **** #else
 515:Middlewares/ST/STM32_USB_Device_Library/Core/Src/usbd_core.c ****   /* Clear configuration  and De-initialize the Class process */
 516:Middlewares/ST/STM32_USB_Device_Library/Core/Src/usbd_core.c ****   if (pdev->pClass[0]->DeInit(pdev, cfgidx) != 0U)
 411              		.loc 1 516 3 view .LVU113
 412              		.loc 1 516 19 is_stmt 0 view .LVU114
 413 0002 D0F8B832 		ldr	r3, [r0, #696]
 414              		.loc 1 516 22 view .LVU115
 415 0006 5B68     		ldr	r3, [r3, #4]
 416              		.loc 1 516 7 view .LVU116
 417 0008 9847     		blx	r3
 418              	.LVL30:
 419              		.loc 1 516 6 view .LVU117
 420 000a 00B9     		cbnz	r0, .L31
 421              	.L28:
 422              	.LVL31:
 517:Middlewares/ST/STM32_USB_Device_Library/Core/Src/usbd_core.c ****   {
 518:Middlewares/ST/STM32_USB_Device_Library/Core/Src/usbd_core.c ****     ret = USBD_FAIL;
 519:Middlewares/ST/STM32_USB_Device_Library/Core/Src/usbd_core.c ****   }
 520:Middlewares/ST/STM32_USB_Device_Library/Core/Src/usbd_core.c **** #endif /* USE_USBD_COMPOSITE */
 521:Middlewares/ST/STM32_USB_Device_Library/Core/Src/usbd_core.c **** 
 522:Middlewares/ST/STM32_USB_Device_Library/Core/Src/usbd_core.c ****   return ret;
 423              		.loc 1 522 3 is_stmt 1 view .LVU118
 523:Middlewares/ST/STM32_USB_Device_Library/Core/Src/usbd_core.c **** }
 424              		.loc 1 523 1 is_stmt 0 view .LVU119
 425 000c 08BD     		pop	{r3, pc}
 426              	.LVL32:
 427              	.L31:
 518:Middlewares/ST/STM32_USB_Device_Library/Core/Src/usbd_core.c ****   }
 428              		.loc 1 518 9 view .LVU120
 429 000e 0320     		movs	r0, #3
 430 0010 FCE7     		b	.L28
 431              		.cfi_endproc
 432              	.LFE163:
 434              		.section	.text.USBD_LL_SetupStage,"ax",%progbits
 435              		.align	1
 436              		.global	USBD_LL_SetupStage
 437              		.syntax unified
 438              		.thumb
 439              		.thumb_func
 441              	USBD_LL_SetupStage:
 442              	.LVL33:
 443              	.LFB164:
 524:Middlewares/ST/STM32_USB_Device_Library/Core/Src/usbd_core.c **** 
 525:Middlewares/ST/STM32_USB_Device_Library/Core/Src/usbd_core.c **** 
 526:Middlewares/ST/STM32_USB_Device_Library/Core/Src/usbd_core.c **** /**
 527:Middlewares/ST/STM32_USB_Device_Library/Core/Src/usbd_core.c ****   * @brief  USBD_LL_SetupStage
 528:Middlewares/ST/STM32_USB_Device_Library/Core/Src/usbd_core.c ****   *         Handle the setup stage
 529:Middlewares/ST/STM32_USB_Device_Library/Core/Src/usbd_core.c ****   * @param  pdev: device instance
 530:Middlewares/ST/STM32_USB_Device_Library/Core/Src/usbd_core.c ****   * @retval status
 531:Middlewares/ST/STM32_USB_Device_Library/Core/Src/usbd_core.c ****   */
 532:Middlewares/ST/STM32_USB_Device_Library/Core/Src/usbd_core.c **** USBD_StatusTypeDef USBD_LL_SetupStage(USBD_HandleTypeDef *pdev, uint8_t *psetup)
 533:Middlewares/ST/STM32_USB_Device_Library/Core/Src/usbd_core.c **** {
 444              		.loc 1 533 1 is_stmt 1 view -0
 445              		.cfi_startproc
 446              		@ args = 0, pretend = 0, frame = 0
ARM GAS  /tmp/ccgGleel.s 			page 18


 447              		@ frame_needed = 0, uses_anonymous_args = 0
 448              		.loc 1 533 1 is_stmt 0 view .LVU122
 449 0000 38B5     		push	{r3, r4, r5, lr}
 450              	.LCFI11:
 451              		.cfi_def_cfa_offset 16
 452              		.cfi_offset 3, -16
 453              		.cfi_offset 4, -12
 454              		.cfi_offset 5, -8
 455              		.cfi_offset 14, -4
 456 0002 0446     		mov	r4, r0
 534:Middlewares/ST/STM32_USB_Device_Library/Core/Src/usbd_core.c ****   USBD_StatusTypeDef ret;
 457              		.loc 1 534 3 is_stmt 1 view .LVU123
 535:Middlewares/ST/STM32_USB_Device_Library/Core/Src/usbd_core.c **** 
 536:Middlewares/ST/STM32_USB_Device_Library/Core/Src/usbd_core.c ****   USBD_ParseSetupRequest(&pdev->request, psetup);
 458              		.loc 1 536 3 view .LVU124
 459 0004 00F2AA25 		addw	r5, r0, #682
 460 0008 2846     		mov	r0, r5
 461              	.LVL34:
 462              		.loc 1 536 3 is_stmt 0 view .LVU125
 463 000a FFF7FEFF 		bl	USBD_ParseSetupRequest
 464              	.LVL35:
 537:Middlewares/ST/STM32_USB_Device_Library/Core/Src/usbd_core.c **** 
 538:Middlewares/ST/STM32_USB_Device_Library/Core/Src/usbd_core.c ****   pdev->ep0_state = USBD_EP0_SETUP;
 465              		.loc 1 538 3 is_stmt 1 view .LVU126
 466              		.loc 1 538 19 is_stmt 0 view .LVU127
 467 000e 0123     		movs	r3, #1
 468 0010 C4F89432 		str	r3, [r4, #660]
 539:Middlewares/ST/STM32_USB_Device_Library/Core/Src/usbd_core.c **** 
 540:Middlewares/ST/STM32_USB_Device_Library/Core/Src/usbd_core.c ****   pdev->ep0_data_len = pdev->request.wLength;
 469              		.loc 1 540 3 is_stmt 1 view .LVU128
 470              		.loc 1 540 37 is_stmt 0 view .LVU129
 471 0014 B4F8B032 		ldrh	r3, [r4, #688]
 472              		.loc 1 540 22 view .LVU130
 473 0018 C4F89832 		str	r3, [r4, #664]
 541:Middlewares/ST/STM32_USB_Device_Library/Core/Src/usbd_core.c **** 
 542:Middlewares/ST/STM32_USB_Device_Library/Core/Src/usbd_core.c ****   switch (pdev->request.bmRequest & 0x1FU)
 474              		.loc 1 542 3 is_stmt 1 view .LVU131
 475              		.loc 1 542 24 is_stmt 0 view .LVU132
 476 001c 94F8AA12 		ldrb	r1, [r4, #682]	@ zero_extendqisi2
 477 0020 01F01F03 		and	r3, r1, #31
 478              		.loc 1 542 3 view .LVU133
 479 0024 012B     		cmp	r3, #1
 480 0026 0DD0     		beq	.L33
 481 0028 022B     		cmp	r3, #2
 482 002a 10D0     		beq	.L34
 483 002c 2BB1     		cbz	r3, .L38
 543:Middlewares/ST/STM32_USB_Device_Library/Core/Src/usbd_core.c ****   {
 544:Middlewares/ST/STM32_USB_Device_Library/Core/Src/usbd_core.c ****     case USB_REQ_RECIPIENT_DEVICE:
 545:Middlewares/ST/STM32_USB_Device_Library/Core/Src/usbd_core.c ****       ret = USBD_StdDevReq(pdev, &pdev->request);
 546:Middlewares/ST/STM32_USB_Device_Library/Core/Src/usbd_core.c ****       break;
 547:Middlewares/ST/STM32_USB_Device_Library/Core/Src/usbd_core.c **** 
 548:Middlewares/ST/STM32_USB_Device_Library/Core/Src/usbd_core.c ****     case USB_REQ_RECIPIENT_INTERFACE:
 549:Middlewares/ST/STM32_USB_Device_Library/Core/Src/usbd_core.c ****       ret = USBD_StdItfReq(pdev, &pdev->request);
 550:Middlewares/ST/STM32_USB_Device_Library/Core/Src/usbd_core.c ****       break;
 551:Middlewares/ST/STM32_USB_Device_Library/Core/Src/usbd_core.c **** 
 552:Middlewares/ST/STM32_USB_Device_Library/Core/Src/usbd_core.c ****     case USB_REQ_RECIPIENT_ENDPOINT:
 553:Middlewares/ST/STM32_USB_Device_Library/Core/Src/usbd_core.c ****       ret = USBD_StdEPReq(pdev, &pdev->request);
ARM GAS  /tmp/ccgGleel.s 			page 19


 554:Middlewares/ST/STM32_USB_Device_Library/Core/Src/usbd_core.c ****       break;
 555:Middlewares/ST/STM32_USB_Device_Library/Core/Src/usbd_core.c **** 
 556:Middlewares/ST/STM32_USB_Device_Library/Core/Src/usbd_core.c ****     default:
 557:Middlewares/ST/STM32_USB_Device_Library/Core/Src/usbd_core.c ****       ret = USBD_LL_StallEP(pdev, (pdev->request.bmRequest & 0x80U));
 484              		.loc 1 557 7 is_stmt 1 view .LVU134
 485              		.loc 1 557 13 is_stmt 0 view .LVU135
 486 002e 01F08001 		and	r1, r1, #128
 487 0032 2046     		mov	r0, r4
 488 0034 FFF7FEFF 		bl	USBD_LL_StallEP
 489              	.LVL36:
 558:Middlewares/ST/STM32_USB_Device_Library/Core/Src/usbd_core.c ****       break;
 490              		.loc 1 558 7 is_stmt 1 view .LVU136
 491 0038 03E0     		b	.L36
 492              	.LVL37:
 493              	.L38:
 545:Middlewares/ST/STM32_USB_Device_Library/Core/Src/usbd_core.c ****       break;
 494              		.loc 1 545 7 view .LVU137
 545:Middlewares/ST/STM32_USB_Device_Library/Core/Src/usbd_core.c ****       break;
 495              		.loc 1 545 13 is_stmt 0 view .LVU138
 496 003a 2946     		mov	r1, r5
 497 003c 2046     		mov	r0, r4
 498 003e FFF7FEFF 		bl	USBD_StdDevReq
 499              	.LVL38:
 546:Middlewares/ST/STM32_USB_Device_Library/Core/Src/usbd_core.c **** 
 500              		.loc 1 546 7 is_stmt 1 view .LVU139
 501              	.L36:
 559:Middlewares/ST/STM32_USB_Device_Library/Core/Src/usbd_core.c ****   }
 560:Middlewares/ST/STM32_USB_Device_Library/Core/Src/usbd_core.c **** 
 561:Middlewares/ST/STM32_USB_Device_Library/Core/Src/usbd_core.c ****   return ret;
 502              		.loc 1 561 3 view .LVU140
 562:Middlewares/ST/STM32_USB_Device_Library/Core/Src/usbd_core.c **** }
 503              		.loc 1 562 1 is_stmt 0 view .LVU141
 504 0042 38BD     		pop	{r3, r4, r5, pc}
 505              	.LVL39:
 506              	.L33:
 549:Middlewares/ST/STM32_USB_Device_Library/Core/Src/usbd_core.c ****       break;
 507              		.loc 1 549 7 is_stmt 1 view .LVU142
 549:Middlewares/ST/STM32_USB_Device_Library/Core/Src/usbd_core.c ****       break;
 508              		.loc 1 549 13 is_stmt 0 view .LVU143
 509 0044 2946     		mov	r1, r5
 510 0046 2046     		mov	r0, r4
 511 0048 FFF7FEFF 		bl	USBD_StdItfReq
 512              	.LVL40:
 550:Middlewares/ST/STM32_USB_Device_Library/Core/Src/usbd_core.c **** 
 513              		.loc 1 550 7 is_stmt 1 view .LVU144
 514 004c F9E7     		b	.L36
 515              	.LVL41:
 516              	.L34:
 553:Middlewares/ST/STM32_USB_Device_Library/Core/Src/usbd_core.c ****       break;
 517              		.loc 1 553 7 view .LVU145
 553:Middlewares/ST/STM32_USB_Device_Library/Core/Src/usbd_core.c ****       break;
 518              		.loc 1 553 13 is_stmt 0 view .LVU146
 519 004e 2946     		mov	r1, r5
 520 0050 2046     		mov	r0, r4
 521 0052 FFF7FEFF 		bl	USBD_StdEPReq
 522              	.LVL42:
 554:Middlewares/ST/STM32_USB_Device_Library/Core/Src/usbd_core.c **** 
ARM GAS  /tmp/ccgGleel.s 			page 20


 523              		.loc 1 554 7 is_stmt 1 view .LVU147
 524 0056 F4E7     		b	.L36
 525              		.cfi_endproc
 526              	.LFE164:
 528              		.section	.text.USBD_LL_Reset,"ax",%progbits
 529              		.align	1
 530              		.global	USBD_LL_Reset
 531              		.syntax unified
 532              		.thumb
 533              		.thumb_func
 535              	USBD_LL_Reset:
 536              	.LVL43:
 537              	.LFB167:
 563:Middlewares/ST/STM32_USB_Device_Library/Core/Src/usbd_core.c **** 
 564:Middlewares/ST/STM32_USB_Device_Library/Core/Src/usbd_core.c **** /**
 565:Middlewares/ST/STM32_USB_Device_Library/Core/Src/usbd_core.c ****   * @brief  USBD_LL_DataOutStage
 566:Middlewares/ST/STM32_USB_Device_Library/Core/Src/usbd_core.c ****   *         Handle data OUT stage
 567:Middlewares/ST/STM32_USB_Device_Library/Core/Src/usbd_core.c ****   * @param  pdev: device instance
 568:Middlewares/ST/STM32_USB_Device_Library/Core/Src/usbd_core.c ****   * @param  epnum: endpoint index
 569:Middlewares/ST/STM32_USB_Device_Library/Core/Src/usbd_core.c ****   * @param  pdata: data pointer
 570:Middlewares/ST/STM32_USB_Device_Library/Core/Src/usbd_core.c ****   * @retval status
 571:Middlewares/ST/STM32_USB_Device_Library/Core/Src/usbd_core.c ****   */
 572:Middlewares/ST/STM32_USB_Device_Library/Core/Src/usbd_core.c **** USBD_StatusTypeDef USBD_LL_DataOutStage(USBD_HandleTypeDef *pdev,
 573:Middlewares/ST/STM32_USB_Device_Library/Core/Src/usbd_core.c ****                                         uint8_t epnum, uint8_t *pdata)
 574:Middlewares/ST/STM32_USB_Device_Library/Core/Src/usbd_core.c **** {
 575:Middlewares/ST/STM32_USB_Device_Library/Core/Src/usbd_core.c ****   USBD_EndpointTypeDef *pep;
 576:Middlewares/ST/STM32_USB_Device_Library/Core/Src/usbd_core.c ****   USBD_StatusTypeDef ret = USBD_OK;
 577:Middlewares/ST/STM32_USB_Device_Library/Core/Src/usbd_core.c ****   uint8_t idx;
 578:Middlewares/ST/STM32_USB_Device_Library/Core/Src/usbd_core.c **** 
 579:Middlewares/ST/STM32_USB_Device_Library/Core/Src/usbd_core.c ****   if (epnum == 0U)
 580:Middlewares/ST/STM32_USB_Device_Library/Core/Src/usbd_core.c ****   {
 581:Middlewares/ST/STM32_USB_Device_Library/Core/Src/usbd_core.c ****     pep = &pdev->ep_out[0];
 582:Middlewares/ST/STM32_USB_Device_Library/Core/Src/usbd_core.c **** 
 583:Middlewares/ST/STM32_USB_Device_Library/Core/Src/usbd_core.c ****     if (pdev->ep0_state == USBD_EP0_DATA_OUT)
 584:Middlewares/ST/STM32_USB_Device_Library/Core/Src/usbd_core.c ****     {
 585:Middlewares/ST/STM32_USB_Device_Library/Core/Src/usbd_core.c ****       if (pep->rem_length > pep->maxpacket)
 586:Middlewares/ST/STM32_USB_Device_Library/Core/Src/usbd_core.c ****       {
 587:Middlewares/ST/STM32_USB_Device_Library/Core/Src/usbd_core.c ****         pep->rem_length -= pep->maxpacket;
 588:Middlewares/ST/STM32_USB_Device_Library/Core/Src/usbd_core.c **** 
 589:Middlewares/ST/STM32_USB_Device_Library/Core/Src/usbd_core.c ****         (void)USBD_CtlContinueRx(pdev, pdata, MIN(pep->rem_length, pep->maxpacket));
 590:Middlewares/ST/STM32_USB_Device_Library/Core/Src/usbd_core.c ****       }
 591:Middlewares/ST/STM32_USB_Device_Library/Core/Src/usbd_core.c ****       else
 592:Middlewares/ST/STM32_USB_Device_Library/Core/Src/usbd_core.c ****       {
 593:Middlewares/ST/STM32_USB_Device_Library/Core/Src/usbd_core.c ****         /* Find the class ID relative to the current request */
 594:Middlewares/ST/STM32_USB_Device_Library/Core/Src/usbd_core.c ****         switch (pdev->request.bmRequest & 0x1FU)
 595:Middlewares/ST/STM32_USB_Device_Library/Core/Src/usbd_core.c ****         {
 596:Middlewares/ST/STM32_USB_Device_Library/Core/Src/usbd_core.c ****           case USB_REQ_RECIPIENT_DEVICE:
 597:Middlewares/ST/STM32_USB_Device_Library/Core/Src/usbd_core.c ****             /* Device requests must be managed by the first instantiated class
 598:Middlewares/ST/STM32_USB_Device_Library/Core/Src/usbd_core.c ****                (or duplicated by all classes for simplicity) */
 599:Middlewares/ST/STM32_USB_Device_Library/Core/Src/usbd_core.c ****             idx = 0U;
 600:Middlewares/ST/STM32_USB_Device_Library/Core/Src/usbd_core.c ****             break;
 601:Middlewares/ST/STM32_USB_Device_Library/Core/Src/usbd_core.c **** 
 602:Middlewares/ST/STM32_USB_Device_Library/Core/Src/usbd_core.c ****           case USB_REQ_RECIPIENT_INTERFACE:
 603:Middlewares/ST/STM32_USB_Device_Library/Core/Src/usbd_core.c ****             idx = USBD_CoreFindIF(pdev, LOBYTE(pdev->request.wIndex));
 604:Middlewares/ST/STM32_USB_Device_Library/Core/Src/usbd_core.c ****             break;
 605:Middlewares/ST/STM32_USB_Device_Library/Core/Src/usbd_core.c **** 
 606:Middlewares/ST/STM32_USB_Device_Library/Core/Src/usbd_core.c ****           case USB_REQ_RECIPIENT_ENDPOINT:
ARM GAS  /tmp/ccgGleel.s 			page 21


 607:Middlewares/ST/STM32_USB_Device_Library/Core/Src/usbd_core.c ****             idx = USBD_CoreFindEP(pdev, LOBYTE(pdev->request.wIndex));
 608:Middlewares/ST/STM32_USB_Device_Library/Core/Src/usbd_core.c ****             break;
 609:Middlewares/ST/STM32_USB_Device_Library/Core/Src/usbd_core.c **** 
 610:Middlewares/ST/STM32_USB_Device_Library/Core/Src/usbd_core.c ****           default:
 611:Middlewares/ST/STM32_USB_Device_Library/Core/Src/usbd_core.c ****             /* Back to the first class in case of doubt */
 612:Middlewares/ST/STM32_USB_Device_Library/Core/Src/usbd_core.c ****             idx = 0U;
 613:Middlewares/ST/STM32_USB_Device_Library/Core/Src/usbd_core.c ****             break;
 614:Middlewares/ST/STM32_USB_Device_Library/Core/Src/usbd_core.c ****         }
 615:Middlewares/ST/STM32_USB_Device_Library/Core/Src/usbd_core.c **** 
 616:Middlewares/ST/STM32_USB_Device_Library/Core/Src/usbd_core.c ****         if (idx < USBD_MAX_SUPPORTED_CLASS)
 617:Middlewares/ST/STM32_USB_Device_Library/Core/Src/usbd_core.c ****         {
 618:Middlewares/ST/STM32_USB_Device_Library/Core/Src/usbd_core.c ****           /* Setup the class ID and route the request to the relative class function */
 619:Middlewares/ST/STM32_USB_Device_Library/Core/Src/usbd_core.c ****           if (pdev->dev_state == USBD_STATE_CONFIGURED)
 620:Middlewares/ST/STM32_USB_Device_Library/Core/Src/usbd_core.c ****           {
 621:Middlewares/ST/STM32_USB_Device_Library/Core/Src/usbd_core.c ****             if (pdev->pClass[idx]->EP0_RxReady != NULL)
 622:Middlewares/ST/STM32_USB_Device_Library/Core/Src/usbd_core.c ****             {
 623:Middlewares/ST/STM32_USB_Device_Library/Core/Src/usbd_core.c ****               pdev->classId = idx;
 624:Middlewares/ST/STM32_USB_Device_Library/Core/Src/usbd_core.c ****               pdev->pClass[idx]->EP0_RxReady(pdev);
 625:Middlewares/ST/STM32_USB_Device_Library/Core/Src/usbd_core.c ****             }
 626:Middlewares/ST/STM32_USB_Device_Library/Core/Src/usbd_core.c ****           }
 627:Middlewares/ST/STM32_USB_Device_Library/Core/Src/usbd_core.c ****         }
 628:Middlewares/ST/STM32_USB_Device_Library/Core/Src/usbd_core.c **** 
 629:Middlewares/ST/STM32_USB_Device_Library/Core/Src/usbd_core.c ****         (void)USBD_CtlSendStatus(pdev);
 630:Middlewares/ST/STM32_USB_Device_Library/Core/Src/usbd_core.c ****       }
 631:Middlewares/ST/STM32_USB_Device_Library/Core/Src/usbd_core.c ****     }
 632:Middlewares/ST/STM32_USB_Device_Library/Core/Src/usbd_core.c ****   }
 633:Middlewares/ST/STM32_USB_Device_Library/Core/Src/usbd_core.c ****   else
 634:Middlewares/ST/STM32_USB_Device_Library/Core/Src/usbd_core.c ****   {
 635:Middlewares/ST/STM32_USB_Device_Library/Core/Src/usbd_core.c ****     /* Get the class index relative to this interface */
 636:Middlewares/ST/STM32_USB_Device_Library/Core/Src/usbd_core.c ****     idx = USBD_CoreFindEP(pdev, (epnum & 0x7FU));
 637:Middlewares/ST/STM32_USB_Device_Library/Core/Src/usbd_core.c **** 
 638:Middlewares/ST/STM32_USB_Device_Library/Core/Src/usbd_core.c ****     if (((uint16_t)idx != 0xFFU) && (idx < USBD_MAX_SUPPORTED_CLASS))
 639:Middlewares/ST/STM32_USB_Device_Library/Core/Src/usbd_core.c ****     {
 640:Middlewares/ST/STM32_USB_Device_Library/Core/Src/usbd_core.c ****       /* Call the class data out function to manage the request */
 641:Middlewares/ST/STM32_USB_Device_Library/Core/Src/usbd_core.c ****       if (pdev->dev_state == USBD_STATE_CONFIGURED)
 642:Middlewares/ST/STM32_USB_Device_Library/Core/Src/usbd_core.c ****       {
 643:Middlewares/ST/STM32_USB_Device_Library/Core/Src/usbd_core.c ****         if (pdev->pClass[idx]->DataOut != NULL)
 644:Middlewares/ST/STM32_USB_Device_Library/Core/Src/usbd_core.c ****         {
 645:Middlewares/ST/STM32_USB_Device_Library/Core/Src/usbd_core.c ****           pdev->classId = idx;
 646:Middlewares/ST/STM32_USB_Device_Library/Core/Src/usbd_core.c ****           ret = (USBD_StatusTypeDef)pdev->pClass[idx]->DataOut(pdev, epnum);
 647:Middlewares/ST/STM32_USB_Device_Library/Core/Src/usbd_core.c ****         }
 648:Middlewares/ST/STM32_USB_Device_Library/Core/Src/usbd_core.c ****       }
 649:Middlewares/ST/STM32_USB_Device_Library/Core/Src/usbd_core.c ****       if (ret != USBD_OK)
 650:Middlewares/ST/STM32_USB_Device_Library/Core/Src/usbd_core.c ****       {
 651:Middlewares/ST/STM32_USB_Device_Library/Core/Src/usbd_core.c ****         return ret;
 652:Middlewares/ST/STM32_USB_Device_Library/Core/Src/usbd_core.c ****       }
 653:Middlewares/ST/STM32_USB_Device_Library/Core/Src/usbd_core.c ****     }
 654:Middlewares/ST/STM32_USB_Device_Library/Core/Src/usbd_core.c ****   }
 655:Middlewares/ST/STM32_USB_Device_Library/Core/Src/usbd_core.c **** 
 656:Middlewares/ST/STM32_USB_Device_Library/Core/Src/usbd_core.c ****   return USBD_OK;
 657:Middlewares/ST/STM32_USB_Device_Library/Core/Src/usbd_core.c **** }
 658:Middlewares/ST/STM32_USB_Device_Library/Core/Src/usbd_core.c **** 
 659:Middlewares/ST/STM32_USB_Device_Library/Core/Src/usbd_core.c **** /**
 660:Middlewares/ST/STM32_USB_Device_Library/Core/Src/usbd_core.c ****   * @brief  USBD_LL_DataInStage
 661:Middlewares/ST/STM32_USB_Device_Library/Core/Src/usbd_core.c ****   *         Handle data in stage
 662:Middlewares/ST/STM32_USB_Device_Library/Core/Src/usbd_core.c ****   * @param  pdev: device instance
 663:Middlewares/ST/STM32_USB_Device_Library/Core/Src/usbd_core.c ****   * @param  epnum: endpoint index
ARM GAS  /tmp/ccgGleel.s 			page 22


 664:Middlewares/ST/STM32_USB_Device_Library/Core/Src/usbd_core.c ****   * @retval status
 665:Middlewares/ST/STM32_USB_Device_Library/Core/Src/usbd_core.c ****   */
 666:Middlewares/ST/STM32_USB_Device_Library/Core/Src/usbd_core.c **** USBD_StatusTypeDef USBD_LL_DataInStage(USBD_HandleTypeDef *pdev,
 667:Middlewares/ST/STM32_USB_Device_Library/Core/Src/usbd_core.c ****                                        uint8_t epnum, uint8_t *pdata)
 668:Middlewares/ST/STM32_USB_Device_Library/Core/Src/usbd_core.c **** {
 669:Middlewares/ST/STM32_USB_Device_Library/Core/Src/usbd_core.c ****   USBD_EndpointTypeDef *pep;
 670:Middlewares/ST/STM32_USB_Device_Library/Core/Src/usbd_core.c ****   USBD_StatusTypeDef ret;
 671:Middlewares/ST/STM32_USB_Device_Library/Core/Src/usbd_core.c ****   uint8_t idx;
 672:Middlewares/ST/STM32_USB_Device_Library/Core/Src/usbd_core.c **** 
 673:Middlewares/ST/STM32_USB_Device_Library/Core/Src/usbd_core.c ****   if (epnum == 0U)
 674:Middlewares/ST/STM32_USB_Device_Library/Core/Src/usbd_core.c ****   {
 675:Middlewares/ST/STM32_USB_Device_Library/Core/Src/usbd_core.c ****     pep = &pdev->ep_in[0];
 676:Middlewares/ST/STM32_USB_Device_Library/Core/Src/usbd_core.c **** 
 677:Middlewares/ST/STM32_USB_Device_Library/Core/Src/usbd_core.c ****     if (pdev->ep0_state == USBD_EP0_DATA_IN)
 678:Middlewares/ST/STM32_USB_Device_Library/Core/Src/usbd_core.c ****     {
 679:Middlewares/ST/STM32_USB_Device_Library/Core/Src/usbd_core.c ****       if (pep->rem_length > pep->maxpacket)
 680:Middlewares/ST/STM32_USB_Device_Library/Core/Src/usbd_core.c ****       {
 681:Middlewares/ST/STM32_USB_Device_Library/Core/Src/usbd_core.c ****         pep->rem_length -= pep->maxpacket;
 682:Middlewares/ST/STM32_USB_Device_Library/Core/Src/usbd_core.c **** 
 683:Middlewares/ST/STM32_USB_Device_Library/Core/Src/usbd_core.c ****         (void)USBD_CtlContinueSendData(pdev, pdata, pep->rem_length);
 684:Middlewares/ST/STM32_USB_Device_Library/Core/Src/usbd_core.c **** 
 685:Middlewares/ST/STM32_USB_Device_Library/Core/Src/usbd_core.c ****         /* Prepare endpoint for premature end of transfer */
 686:Middlewares/ST/STM32_USB_Device_Library/Core/Src/usbd_core.c ****         (void)USBD_LL_PrepareReceive(pdev, 0U, NULL, 0U);
 687:Middlewares/ST/STM32_USB_Device_Library/Core/Src/usbd_core.c ****       }
 688:Middlewares/ST/STM32_USB_Device_Library/Core/Src/usbd_core.c ****       else
 689:Middlewares/ST/STM32_USB_Device_Library/Core/Src/usbd_core.c ****       {
 690:Middlewares/ST/STM32_USB_Device_Library/Core/Src/usbd_core.c ****         /* last packet is MPS multiple, so send ZLP packet */
 691:Middlewares/ST/STM32_USB_Device_Library/Core/Src/usbd_core.c ****         if ((pep->maxpacket == pep->rem_length) &&
 692:Middlewares/ST/STM32_USB_Device_Library/Core/Src/usbd_core.c ****             (pep->total_length >= pep->maxpacket) &&
 693:Middlewares/ST/STM32_USB_Device_Library/Core/Src/usbd_core.c ****             (pep->total_length < pdev->ep0_data_len))
 694:Middlewares/ST/STM32_USB_Device_Library/Core/Src/usbd_core.c ****         {
 695:Middlewares/ST/STM32_USB_Device_Library/Core/Src/usbd_core.c ****           (void)USBD_CtlContinueSendData(pdev, NULL, 0U);
 696:Middlewares/ST/STM32_USB_Device_Library/Core/Src/usbd_core.c ****           pdev->ep0_data_len = 0U;
 697:Middlewares/ST/STM32_USB_Device_Library/Core/Src/usbd_core.c **** 
 698:Middlewares/ST/STM32_USB_Device_Library/Core/Src/usbd_core.c ****           /* Prepare endpoint for premature end of transfer */
 699:Middlewares/ST/STM32_USB_Device_Library/Core/Src/usbd_core.c ****           (void)USBD_LL_PrepareReceive(pdev, 0U, NULL, 0U);
 700:Middlewares/ST/STM32_USB_Device_Library/Core/Src/usbd_core.c ****         }
 701:Middlewares/ST/STM32_USB_Device_Library/Core/Src/usbd_core.c ****         else
 702:Middlewares/ST/STM32_USB_Device_Library/Core/Src/usbd_core.c ****         {
 703:Middlewares/ST/STM32_USB_Device_Library/Core/Src/usbd_core.c ****           if (pdev->dev_state == USBD_STATE_CONFIGURED)
 704:Middlewares/ST/STM32_USB_Device_Library/Core/Src/usbd_core.c ****           {
 705:Middlewares/ST/STM32_USB_Device_Library/Core/Src/usbd_core.c ****             if (pdev->pClass[0]->EP0_TxSent != NULL)
 706:Middlewares/ST/STM32_USB_Device_Library/Core/Src/usbd_core.c ****             {
 707:Middlewares/ST/STM32_USB_Device_Library/Core/Src/usbd_core.c ****               pdev->classId = 0U;
 708:Middlewares/ST/STM32_USB_Device_Library/Core/Src/usbd_core.c ****               pdev->pClass[0]->EP0_TxSent(pdev);
 709:Middlewares/ST/STM32_USB_Device_Library/Core/Src/usbd_core.c ****             }
 710:Middlewares/ST/STM32_USB_Device_Library/Core/Src/usbd_core.c ****           }
 711:Middlewares/ST/STM32_USB_Device_Library/Core/Src/usbd_core.c ****           (void)USBD_LL_StallEP(pdev, 0x80U);
 712:Middlewares/ST/STM32_USB_Device_Library/Core/Src/usbd_core.c ****           (void)USBD_CtlReceiveStatus(pdev);
 713:Middlewares/ST/STM32_USB_Device_Library/Core/Src/usbd_core.c ****         }
 714:Middlewares/ST/STM32_USB_Device_Library/Core/Src/usbd_core.c ****       }
 715:Middlewares/ST/STM32_USB_Device_Library/Core/Src/usbd_core.c ****     }
 716:Middlewares/ST/STM32_USB_Device_Library/Core/Src/usbd_core.c **** 
 717:Middlewares/ST/STM32_USB_Device_Library/Core/Src/usbd_core.c ****     if (pdev->dev_test_mode != 0U)
 718:Middlewares/ST/STM32_USB_Device_Library/Core/Src/usbd_core.c ****     {
 719:Middlewares/ST/STM32_USB_Device_Library/Core/Src/usbd_core.c ****       (void)USBD_RunTestMode(pdev);
 720:Middlewares/ST/STM32_USB_Device_Library/Core/Src/usbd_core.c ****       pdev->dev_test_mode = 0U;
ARM GAS  /tmp/ccgGleel.s 			page 23


 721:Middlewares/ST/STM32_USB_Device_Library/Core/Src/usbd_core.c ****     }
 722:Middlewares/ST/STM32_USB_Device_Library/Core/Src/usbd_core.c ****   }
 723:Middlewares/ST/STM32_USB_Device_Library/Core/Src/usbd_core.c ****   else
 724:Middlewares/ST/STM32_USB_Device_Library/Core/Src/usbd_core.c ****   {
 725:Middlewares/ST/STM32_USB_Device_Library/Core/Src/usbd_core.c ****     /* Get the class index relative to this interface */
 726:Middlewares/ST/STM32_USB_Device_Library/Core/Src/usbd_core.c ****     idx = USBD_CoreFindEP(pdev, ((uint8_t)epnum | 0x80U));
 727:Middlewares/ST/STM32_USB_Device_Library/Core/Src/usbd_core.c **** 
 728:Middlewares/ST/STM32_USB_Device_Library/Core/Src/usbd_core.c ****     if (((uint16_t)idx != 0xFFU) && (idx < USBD_MAX_SUPPORTED_CLASS))
 729:Middlewares/ST/STM32_USB_Device_Library/Core/Src/usbd_core.c ****     {
 730:Middlewares/ST/STM32_USB_Device_Library/Core/Src/usbd_core.c ****       /* Call the class data out function to manage the request */
 731:Middlewares/ST/STM32_USB_Device_Library/Core/Src/usbd_core.c ****       if (pdev->dev_state == USBD_STATE_CONFIGURED)
 732:Middlewares/ST/STM32_USB_Device_Library/Core/Src/usbd_core.c ****       {
 733:Middlewares/ST/STM32_USB_Device_Library/Core/Src/usbd_core.c ****         if (pdev->pClass[idx]->DataIn != NULL)
 734:Middlewares/ST/STM32_USB_Device_Library/Core/Src/usbd_core.c ****         {
 735:Middlewares/ST/STM32_USB_Device_Library/Core/Src/usbd_core.c ****           pdev->classId = idx;
 736:Middlewares/ST/STM32_USB_Device_Library/Core/Src/usbd_core.c ****           ret = (USBD_StatusTypeDef)pdev->pClass[idx]->DataIn(pdev, epnum);
 737:Middlewares/ST/STM32_USB_Device_Library/Core/Src/usbd_core.c **** 
 738:Middlewares/ST/STM32_USB_Device_Library/Core/Src/usbd_core.c ****           if (ret != USBD_OK)
 739:Middlewares/ST/STM32_USB_Device_Library/Core/Src/usbd_core.c ****           {
 740:Middlewares/ST/STM32_USB_Device_Library/Core/Src/usbd_core.c ****             return ret;
 741:Middlewares/ST/STM32_USB_Device_Library/Core/Src/usbd_core.c ****           }
 742:Middlewares/ST/STM32_USB_Device_Library/Core/Src/usbd_core.c ****         }
 743:Middlewares/ST/STM32_USB_Device_Library/Core/Src/usbd_core.c ****       }
 744:Middlewares/ST/STM32_USB_Device_Library/Core/Src/usbd_core.c ****     }
 745:Middlewares/ST/STM32_USB_Device_Library/Core/Src/usbd_core.c ****   }
 746:Middlewares/ST/STM32_USB_Device_Library/Core/Src/usbd_core.c **** 
 747:Middlewares/ST/STM32_USB_Device_Library/Core/Src/usbd_core.c ****   return USBD_OK;
 748:Middlewares/ST/STM32_USB_Device_Library/Core/Src/usbd_core.c **** }
 749:Middlewares/ST/STM32_USB_Device_Library/Core/Src/usbd_core.c **** 
 750:Middlewares/ST/STM32_USB_Device_Library/Core/Src/usbd_core.c **** /**
 751:Middlewares/ST/STM32_USB_Device_Library/Core/Src/usbd_core.c ****   * @brief  USBD_LL_Reset
 752:Middlewares/ST/STM32_USB_Device_Library/Core/Src/usbd_core.c ****   *         Handle Reset event
 753:Middlewares/ST/STM32_USB_Device_Library/Core/Src/usbd_core.c ****   * @param  pdev: device instance
 754:Middlewares/ST/STM32_USB_Device_Library/Core/Src/usbd_core.c ****   * @retval status
 755:Middlewares/ST/STM32_USB_Device_Library/Core/Src/usbd_core.c ****   */
 756:Middlewares/ST/STM32_USB_Device_Library/Core/Src/usbd_core.c **** 
 757:Middlewares/ST/STM32_USB_Device_Library/Core/Src/usbd_core.c **** USBD_StatusTypeDef USBD_LL_Reset(USBD_HandleTypeDef *pdev)
 758:Middlewares/ST/STM32_USB_Device_Library/Core/Src/usbd_core.c **** {
 538              		.loc 1 758 1 view -0
 539              		.cfi_startproc
 540              		@ args = 0, pretend = 0, frame = 0
 541              		@ frame_needed = 0, uses_anonymous_args = 0
 542              		.loc 1 758 1 is_stmt 0 view .LVU149
 543 0000 F8B5     		push	{r3, r4, r5, r6, r7, lr}
 544              	.LCFI12:
 545              		.cfi_def_cfa_offset 24
 546              		.cfi_offset 3, -24
 547              		.cfi_offset 4, -20
 548              		.cfi_offset 5, -16
 549              		.cfi_offset 6, -12
 550              		.cfi_offset 7, -8
 551              		.cfi_offset 14, -4
 552 0002 0446     		mov	r4, r0
 759:Middlewares/ST/STM32_USB_Device_Library/Core/Src/usbd_core.c ****   USBD_StatusTypeDef ret = USBD_OK;
 553              		.loc 1 759 3 is_stmt 1 view .LVU150
 554              	.LVL44:
 760:Middlewares/ST/STM32_USB_Device_Library/Core/Src/usbd_core.c **** 
ARM GAS  /tmp/ccgGleel.s 			page 24


 761:Middlewares/ST/STM32_USB_Device_Library/Core/Src/usbd_core.c ****   /* Upon Reset call user call back */
 762:Middlewares/ST/STM32_USB_Device_Library/Core/Src/usbd_core.c ****   pdev->dev_state = USBD_STATE_DEFAULT;
 555              		.loc 1 762 3 view .LVU151
 556              		.loc 1 762 19 is_stmt 0 view .LVU152
 557 0004 0123     		movs	r3, #1
 558 0006 80F89C32 		strb	r3, [r0, #668]
 763:Middlewares/ST/STM32_USB_Device_Library/Core/Src/usbd_core.c ****   pdev->ep0_state = USBD_EP0_IDLE;
 559              		.loc 1 763 3 is_stmt 1 view .LVU153
 560              		.loc 1 763 19 is_stmt 0 view .LVU154
 561 000a 0023     		movs	r3, #0
 562 000c C0F89432 		str	r3, [r0, #660]
 764:Middlewares/ST/STM32_USB_Device_Library/Core/Src/usbd_core.c ****   pdev->dev_config = 0U;
 563              		.loc 1 764 3 is_stmt 1 view .LVU155
 564              		.loc 1 764 20 is_stmt 0 view .LVU156
 565 0010 4360     		str	r3, [r0, #4]
 765:Middlewares/ST/STM32_USB_Device_Library/Core/Src/usbd_core.c ****   pdev->dev_remote_wakeup = 0U;
 566              		.loc 1 765 3 is_stmt 1 view .LVU157
 567              		.loc 1 765 27 is_stmt 0 view .LVU158
 568 0012 C0F8A432 		str	r3, [r0, #676]
 766:Middlewares/ST/STM32_USB_Device_Library/Core/Src/usbd_core.c ****   pdev->dev_test_mode = 0U;
 569              		.loc 1 766 3 is_stmt 1 view .LVU159
 570              		.loc 1 766 23 is_stmt 0 view .LVU160
 571 0016 80F8A032 		strb	r3, [r0, #672]
 767:Middlewares/ST/STM32_USB_Device_Library/Core/Src/usbd_core.c **** 
 768:Middlewares/ST/STM32_USB_Device_Library/Core/Src/usbd_core.c **** #ifdef USE_USBD_COMPOSITE
 769:Middlewares/ST/STM32_USB_Device_Library/Core/Src/usbd_core.c ****   /* Parse the table of classes in use */
 770:Middlewares/ST/STM32_USB_Device_Library/Core/Src/usbd_core.c ****   for (uint32_t i = 0U; i < USBD_MAX_SUPPORTED_CLASS; i++)
 771:Middlewares/ST/STM32_USB_Device_Library/Core/Src/usbd_core.c ****   {
 772:Middlewares/ST/STM32_USB_Device_Library/Core/Src/usbd_core.c ****     /* Check if current class is in use */
 773:Middlewares/ST/STM32_USB_Device_Library/Core/Src/usbd_core.c ****     if ((pdev->tclasslist[i].Active) == 1U)
 774:Middlewares/ST/STM32_USB_Device_Library/Core/Src/usbd_core.c ****     {
 775:Middlewares/ST/STM32_USB_Device_Library/Core/Src/usbd_core.c ****       if (pdev->pClass[i] != NULL)
 776:Middlewares/ST/STM32_USB_Device_Library/Core/Src/usbd_core.c ****       {
 777:Middlewares/ST/STM32_USB_Device_Library/Core/Src/usbd_core.c ****         pdev->classId = i;
 778:Middlewares/ST/STM32_USB_Device_Library/Core/Src/usbd_core.c ****         /* Clear configuration  and De-initialize the Class process*/
 779:Middlewares/ST/STM32_USB_Device_Library/Core/Src/usbd_core.c **** 
 780:Middlewares/ST/STM32_USB_Device_Library/Core/Src/usbd_core.c ****         if (pdev->pClass[i]->DeInit != NULL)
 781:Middlewares/ST/STM32_USB_Device_Library/Core/Src/usbd_core.c ****         {
 782:Middlewares/ST/STM32_USB_Device_Library/Core/Src/usbd_core.c ****           if (pdev->pClass[i]->DeInit(pdev, (uint8_t)pdev->dev_config) != USBD_OK)
 783:Middlewares/ST/STM32_USB_Device_Library/Core/Src/usbd_core.c ****           {
 784:Middlewares/ST/STM32_USB_Device_Library/Core/Src/usbd_core.c ****             ret = USBD_FAIL;
 785:Middlewares/ST/STM32_USB_Device_Library/Core/Src/usbd_core.c ****           }
 786:Middlewares/ST/STM32_USB_Device_Library/Core/Src/usbd_core.c ****         }
 787:Middlewares/ST/STM32_USB_Device_Library/Core/Src/usbd_core.c ****       }
 788:Middlewares/ST/STM32_USB_Device_Library/Core/Src/usbd_core.c ****     }
 789:Middlewares/ST/STM32_USB_Device_Library/Core/Src/usbd_core.c ****   }
 790:Middlewares/ST/STM32_USB_Device_Library/Core/Src/usbd_core.c **** #else
 791:Middlewares/ST/STM32_USB_Device_Library/Core/Src/usbd_core.c **** 
 792:Middlewares/ST/STM32_USB_Device_Library/Core/Src/usbd_core.c ****   if (pdev->pClass[0] != NULL)
 572              		.loc 1 792 3 is_stmt 1 view .LVU161
 573              		.loc 1 792 19 is_stmt 0 view .LVU162
 574 001a D0F8B832 		ldr	r3, [r0, #696]
 575              		.loc 1 792 6 view .LVU163
 576 001e DBB1     		cbz	r3, .L41
 793:Middlewares/ST/STM32_USB_Device_Library/Core/Src/usbd_core.c ****   {
 794:Middlewares/ST/STM32_USB_Device_Library/Core/Src/usbd_core.c ****     if (pdev->pClass[0]->DeInit != NULL)
 577              		.loc 1 794 5 is_stmt 1 view .LVU164
ARM GAS  /tmp/ccgGleel.s 			page 25


 578              		.loc 1 794 24 is_stmt 0 view .LVU165
 579 0020 5B68     		ldr	r3, [r3, #4]
 580              		.loc 1 794 8 view .LVU166
 581 0022 DBB1     		cbz	r3, .L42
 795:Middlewares/ST/STM32_USB_Device_Library/Core/Src/usbd_core.c ****     {
 796:Middlewares/ST/STM32_USB_Device_Library/Core/Src/usbd_core.c ****       if (pdev->pClass[0]->DeInit(pdev, (uint8_t)pdev->dev_config) != USBD_OK)
 582              		.loc 1 796 7 is_stmt 1 view .LVU167
 583              		.loc 1 796 11 is_stmt 0 view .LVU168
 584 0024 0021     		movs	r1, #0
 585 0026 9847     		blx	r3
 586              	.LVL45:
 587              		.loc 1 796 10 view .LVU169
 588 0028 0746     		mov	r7, r0
 589 002a C8B9     		cbnz	r0, .L45
 590              	.L40:
 591              	.LVL46:
 797:Middlewares/ST/STM32_USB_Device_Library/Core/Src/usbd_core.c ****       {
 798:Middlewares/ST/STM32_USB_Device_Library/Core/Src/usbd_core.c ****         ret = USBD_FAIL;
 799:Middlewares/ST/STM32_USB_Device_Library/Core/Src/usbd_core.c ****       }
 800:Middlewares/ST/STM32_USB_Device_Library/Core/Src/usbd_core.c ****     }
 801:Middlewares/ST/STM32_USB_Device_Library/Core/Src/usbd_core.c ****   }
 802:Middlewares/ST/STM32_USB_Device_Library/Core/Src/usbd_core.c **** #endif /* USE_USBD_COMPOSITE */
 803:Middlewares/ST/STM32_USB_Device_Library/Core/Src/usbd_core.c **** 
 804:Middlewares/ST/STM32_USB_Device_Library/Core/Src/usbd_core.c ****   /* Open EP0 OUT */
 805:Middlewares/ST/STM32_USB_Device_Library/Core/Src/usbd_core.c ****   (void)USBD_LL_OpenEP(pdev, 0x00U, USBD_EP_TYPE_CTRL, USB_MAX_EP0_SIZE);
 592              		.loc 1 805 3 is_stmt 1 view .LVU170
 593              		.loc 1 805 9 is_stmt 0 view .LVU171
 594 002c 4023     		movs	r3, #64
 595 002e 0022     		movs	r2, #0
 596 0030 1146     		mov	r1, r2
 597 0032 2046     		mov	r0, r4
 598 0034 FFF7FEFF 		bl	USBD_LL_OpenEP
 599              	.LVL47:
 806:Middlewares/ST/STM32_USB_Device_Library/Core/Src/usbd_core.c ****   pdev->ep_out[0x00U & 0xFU].is_used = 1U;
 600              		.loc 1 806 3 is_stmt 1 view .LVU172
 601              		.loc 1 806 38 is_stmt 0 view .LVU173
 602 0038 0126     		movs	r6, #1
 603 003a A4F86461 		strh	r6, [r4, #356]	@ movhi
 807:Middlewares/ST/STM32_USB_Device_Library/Core/Src/usbd_core.c **** 
 808:Middlewares/ST/STM32_USB_Device_Library/Core/Src/usbd_core.c ****   pdev->ep_out[0].maxpacket = USB_MAX_EP0_SIZE;
 604              		.loc 1 808 3 is_stmt 1 view .LVU174
 605              		.loc 1 808 29 is_stmt 0 view .LVU175
 606 003e 4025     		movs	r5, #64
 607 0040 C4F86051 		str	r5, [r4, #352]
 809:Middlewares/ST/STM32_USB_Device_Library/Core/Src/usbd_core.c **** 
 810:Middlewares/ST/STM32_USB_Device_Library/Core/Src/usbd_core.c ****   /* Open EP0 IN */
 811:Middlewares/ST/STM32_USB_Device_Library/Core/Src/usbd_core.c ****   (void)USBD_LL_OpenEP(pdev, 0x80U, USBD_EP_TYPE_CTRL, USB_MAX_EP0_SIZE);
 608              		.loc 1 811 3 is_stmt 1 view .LVU176
 609              		.loc 1 811 9 is_stmt 0 view .LVU177
 610 0044 2B46     		mov	r3, r5
 611 0046 0022     		movs	r2, #0
 612 0048 8021     		movs	r1, #128
 613 004a 2046     		mov	r0, r4
 614 004c FFF7FEFF 		bl	USBD_LL_OpenEP
 615              	.LVL48:
 812:Middlewares/ST/STM32_USB_Device_Library/Core/Src/usbd_core.c ****   pdev->ep_in[0x80U & 0xFU].is_used = 1U;
 616              		.loc 1 812 3 is_stmt 1 view .LVU178
ARM GAS  /tmp/ccgGleel.s 			page 26


 617              		.loc 1 812 37 is_stmt 0 view .LVU179
 618 0050 A684     		strh	r6, [r4, #36]	@ movhi
 813:Middlewares/ST/STM32_USB_Device_Library/Core/Src/usbd_core.c **** 
 814:Middlewares/ST/STM32_USB_Device_Library/Core/Src/usbd_core.c ****   pdev->ep_in[0].maxpacket = USB_MAX_EP0_SIZE;
 619              		.loc 1 814 3 is_stmt 1 view .LVU180
 620              		.loc 1 814 28 is_stmt 0 view .LVU181
 621 0052 2562     		str	r5, [r4, #32]
 815:Middlewares/ST/STM32_USB_Device_Library/Core/Src/usbd_core.c **** 
 816:Middlewares/ST/STM32_USB_Device_Library/Core/Src/usbd_core.c ****   return ret;
 622              		.loc 1 816 3 is_stmt 1 view .LVU182
 817:Middlewares/ST/STM32_USB_Device_Library/Core/Src/usbd_core.c **** }
 623              		.loc 1 817 1 is_stmt 0 view .LVU183
 624 0054 3846     		mov	r0, r7
 625 0056 F8BD     		pop	{r3, r4, r5, r6, r7, pc}
 626              	.LVL49:
 627              	.L41:
 759:Middlewares/ST/STM32_USB_Device_Library/Core/Src/usbd_core.c **** 
 628              		.loc 1 759 22 view .LVU184
 629 0058 0027     		movs	r7, #0
 630 005a E7E7     		b	.L40
 631              	.L42:
 632 005c 0027     		movs	r7, #0
 633 005e E5E7     		b	.L40
 634              	.LVL50:
 635              	.L45:
 798:Middlewares/ST/STM32_USB_Device_Library/Core/Src/usbd_core.c ****       }
 636              		.loc 1 798 13 view .LVU185
 637 0060 0327     		movs	r7, #3
 638 0062 E3E7     		b	.L40
 639              		.cfi_endproc
 640              	.LFE167:
 642              		.section	.text.USBD_LL_SetSpeed,"ax",%progbits
 643              		.align	1
 644              		.global	USBD_LL_SetSpeed
 645              		.syntax unified
 646              		.thumb
 647              		.thumb_func
 649              	USBD_LL_SetSpeed:
 650              	.LVL51:
 651              	.LFB168:
 818:Middlewares/ST/STM32_USB_Device_Library/Core/Src/usbd_core.c **** 
 819:Middlewares/ST/STM32_USB_Device_Library/Core/Src/usbd_core.c **** /**
 820:Middlewares/ST/STM32_USB_Device_Library/Core/Src/usbd_core.c ****   * @brief  USBD_LL_SetSpeed
 821:Middlewares/ST/STM32_USB_Device_Library/Core/Src/usbd_core.c ****   *         Handle Reset event
 822:Middlewares/ST/STM32_USB_Device_Library/Core/Src/usbd_core.c ****   * @param  pdev: device instance
 823:Middlewares/ST/STM32_USB_Device_Library/Core/Src/usbd_core.c ****   * @retval status
 824:Middlewares/ST/STM32_USB_Device_Library/Core/Src/usbd_core.c ****   */
 825:Middlewares/ST/STM32_USB_Device_Library/Core/Src/usbd_core.c **** USBD_StatusTypeDef USBD_LL_SetSpeed(USBD_HandleTypeDef *pdev,
 826:Middlewares/ST/STM32_USB_Device_Library/Core/Src/usbd_core.c ****                                     USBD_SpeedTypeDef speed)
 827:Middlewares/ST/STM32_USB_Device_Library/Core/Src/usbd_core.c **** {
 652              		.loc 1 827 1 is_stmt 1 view -0
 653              		.cfi_startproc
 654              		@ args = 0, pretend = 0, frame = 0
 655              		@ frame_needed = 0, uses_anonymous_args = 0
 656              		@ link register save eliminated.
 828:Middlewares/ST/STM32_USB_Device_Library/Core/Src/usbd_core.c ****   pdev->dev_speed = speed;
 657              		.loc 1 828 3 view .LVU187
ARM GAS  /tmp/ccgGleel.s 			page 27


 658              		.loc 1 828 19 is_stmt 0 view .LVU188
 659 0000 0174     		strb	r1, [r0, #16]
 829:Middlewares/ST/STM32_USB_Device_Library/Core/Src/usbd_core.c **** 
 830:Middlewares/ST/STM32_USB_Device_Library/Core/Src/usbd_core.c ****   return USBD_OK;
 660              		.loc 1 830 3 is_stmt 1 view .LVU189
 831:Middlewares/ST/STM32_USB_Device_Library/Core/Src/usbd_core.c **** }
 661              		.loc 1 831 1 is_stmt 0 view .LVU190
 662 0002 0020     		movs	r0, #0
 663              	.LVL52:
 664              		.loc 1 831 1 view .LVU191
 665 0004 7047     		bx	lr
 666              		.cfi_endproc
 667              	.LFE168:
 669              		.section	.text.USBD_LL_Suspend,"ax",%progbits
 670              		.align	1
 671              		.global	USBD_LL_Suspend
 672              		.syntax unified
 673              		.thumb
 674              		.thumb_func
 676              	USBD_LL_Suspend:
 677              	.LVL53:
 678              	.LFB169:
 832:Middlewares/ST/STM32_USB_Device_Library/Core/Src/usbd_core.c **** 
 833:Middlewares/ST/STM32_USB_Device_Library/Core/Src/usbd_core.c **** /**
 834:Middlewares/ST/STM32_USB_Device_Library/Core/Src/usbd_core.c ****   * @brief  USBD_LL_Suspend
 835:Middlewares/ST/STM32_USB_Device_Library/Core/Src/usbd_core.c ****   *         Handle Suspend event
 836:Middlewares/ST/STM32_USB_Device_Library/Core/Src/usbd_core.c ****   * @param  pdev: device instance
 837:Middlewares/ST/STM32_USB_Device_Library/Core/Src/usbd_core.c ****   * @retval status
 838:Middlewares/ST/STM32_USB_Device_Library/Core/Src/usbd_core.c ****   */
 839:Middlewares/ST/STM32_USB_Device_Library/Core/Src/usbd_core.c **** 
 840:Middlewares/ST/STM32_USB_Device_Library/Core/Src/usbd_core.c **** USBD_StatusTypeDef USBD_LL_Suspend(USBD_HandleTypeDef *pdev)
 841:Middlewares/ST/STM32_USB_Device_Library/Core/Src/usbd_core.c **** {
 679              		.loc 1 841 1 is_stmt 1 view -0
 680              		.cfi_startproc
 681              		@ args = 0, pretend = 0, frame = 0
 682              		@ frame_needed = 0, uses_anonymous_args = 0
 683              		@ link register save eliminated.
 842:Middlewares/ST/STM32_USB_Device_Library/Core/Src/usbd_core.c ****   if (pdev->dev_state != USBD_STATE_SUSPENDED)
 684              		.loc 1 842 3 view .LVU193
 685              		.loc 1 842 11 is_stmt 0 view .LVU194
 686 0000 90F89C32 		ldrb	r3, [r0, #668]	@ zero_extendqisi2
 687 0004 DBB2     		uxtb	r3, r3
 688              		.loc 1 842 6 view .LVU195
 689 0006 042B     		cmp	r3, #4
 690 0008 04D0     		beq	.L48
 843:Middlewares/ST/STM32_USB_Device_Library/Core/Src/usbd_core.c ****   {
 844:Middlewares/ST/STM32_USB_Device_Library/Core/Src/usbd_core.c ****     pdev->dev_old_state = pdev->dev_state;
 691              		.loc 1 844 5 is_stmt 1 view .LVU196
 692              		.loc 1 844 31 is_stmt 0 view .LVU197
 693 000a 90F89C32 		ldrb	r3, [r0, #668]	@ zero_extendqisi2
 694 000e DBB2     		uxtb	r3, r3
 695              		.loc 1 844 25 view .LVU198
 696 0010 80F89D32 		strb	r3, [r0, #669]
 697              	.L48:
 845:Middlewares/ST/STM32_USB_Device_Library/Core/Src/usbd_core.c ****   }
 846:Middlewares/ST/STM32_USB_Device_Library/Core/Src/usbd_core.c **** 
 847:Middlewares/ST/STM32_USB_Device_Library/Core/Src/usbd_core.c ****   pdev->dev_state = USBD_STATE_SUSPENDED;
ARM GAS  /tmp/ccgGleel.s 			page 28


 698              		.loc 1 847 3 is_stmt 1 view .LVU199
 699              		.loc 1 847 19 is_stmt 0 view .LVU200
 700 0014 0423     		movs	r3, #4
 701 0016 80F89C32 		strb	r3, [r0, #668]
 848:Middlewares/ST/STM32_USB_Device_Library/Core/Src/usbd_core.c **** 
 849:Middlewares/ST/STM32_USB_Device_Library/Core/Src/usbd_core.c ****   return USBD_OK;
 702              		.loc 1 849 3 is_stmt 1 view .LVU201
 850:Middlewares/ST/STM32_USB_Device_Library/Core/Src/usbd_core.c **** }
 703              		.loc 1 850 1 is_stmt 0 view .LVU202
 704 001a 0020     		movs	r0, #0
 705              	.LVL54:
 706              		.loc 1 850 1 view .LVU203
 707 001c 7047     		bx	lr
 708              		.cfi_endproc
 709              	.LFE169:
 711              		.section	.text.USBD_LL_Resume,"ax",%progbits
 712              		.align	1
 713              		.global	USBD_LL_Resume
 714              		.syntax unified
 715              		.thumb
 716              		.thumb_func
 718              	USBD_LL_Resume:
 719              	.LVL55:
 720              	.LFB170:
 851:Middlewares/ST/STM32_USB_Device_Library/Core/Src/usbd_core.c **** 
 852:Middlewares/ST/STM32_USB_Device_Library/Core/Src/usbd_core.c **** /**
 853:Middlewares/ST/STM32_USB_Device_Library/Core/Src/usbd_core.c ****   * @brief  USBD_LL_Resume
 854:Middlewares/ST/STM32_USB_Device_Library/Core/Src/usbd_core.c ****   *         Handle Resume event
 855:Middlewares/ST/STM32_USB_Device_Library/Core/Src/usbd_core.c ****   * @param  pdev: device instance
 856:Middlewares/ST/STM32_USB_Device_Library/Core/Src/usbd_core.c ****   * @retval status
 857:Middlewares/ST/STM32_USB_Device_Library/Core/Src/usbd_core.c ****   */
 858:Middlewares/ST/STM32_USB_Device_Library/Core/Src/usbd_core.c **** 
 859:Middlewares/ST/STM32_USB_Device_Library/Core/Src/usbd_core.c **** USBD_StatusTypeDef USBD_LL_Resume(USBD_HandleTypeDef *pdev)
 860:Middlewares/ST/STM32_USB_Device_Library/Core/Src/usbd_core.c **** {
 721              		.loc 1 860 1 is_stmt 1 view -0
 722              		.cfi_startproc
 723              		@ args = 0, pretend = 0, frame = 0
 724              		@ frame_needed = 0, uses_anonymous_args = 0
 725              		@ link register save eliminated.
 861:Middlewares/ST/STM32_USB_Device_Library/Core/Src/usbd_core.c ****   if (pdev->dev_state == USBD_STATE_SUSPENDED)
 726              		.loc 1 861 3 view .LVU205
 727              		.loc 1 861 11 is_stmt 0 view .LVU206
 728 0000 90F89C32 		ldrb	r3, [r0, #668]	@ zero_extendqisi2
 729 0004 DBB2     		uxtb	r3, r3
 730              		.loc 1 861 6 view .LVU207
 731 0006 042B     		cmp	r3, #4
 732 0008 01D0     		beq	.L51
 733              	.L50:
 862:Middlewares/ST/STM32_USB_Device_Library/Core/Src/usbd_core.c ****   {
 863:Middlewares/ST/STM32_USB_Device_Library/Core/Src/usbd_core.c ****     pdev->dev_state = pdev->dev_old_state;
 864:Middlewares/ST/STM32_USB_Device_Library/Core/Src/usbd_core.c ****   }
 865:Middlewares/ST/STM32_USB_Device_Library/Core/Src/usbd_core.c **** 
 866:Middlewares/ST/STM32_USB_Device_Library/Core/Src/usbd_core.c ****   return USBD_OK;
 734              		.loc 1 866 3 is_stmt 1 view .LVU208
 867:Middlewares/ST/STM32_USB_Device_Library/Core/Src/usbd_core.c **** }
 735              		.loc 1 867 1 is_stmt 0 view .LVU209
 736 000a 0020     		movs	r0, #0
ARM GAS  /tmp/ccgGleel.s 			page 29


 737              	.LVL56:
 738              		.loc 1 867 1 view .LVU210
 739 000c 7047     		bx	lr
 740              	.LVL57:
 741              	.L51:
 863:Middlewares/ST/STM32_USB_Device_Library/Core/Src/usbd_core.c ****   }
 742              		.loc 1 863 5 is_stmt 1 view .LVU211
 863:Middlewares/ST/STM32_USB_Device_Library/Core/Src/usbd_core.c ****   }
 743              		.loc 1 863 27 is_stmt 0 view .LVU212
 744 000e 90F89D32 		ldrb	r3, [r0, #669]	@ zero_extendqisi2
 745 0012 DBB2     		uxtb	r3, r3
 863:Middlewares/ST/STM32_USB_Device_Library/Core/Src/usbd_core.c ****   }
 746              		.loc 1 863 21 view .LVU213
 747 0014 80F89C32 		strb	r3, [r0, #668]
 748 0018 F7E7     		b	.L50
 749              		.cfi_endproc
 750              	.LFE170:
 752              		.section	.text.USBD_LL_SOF,"ax",%progbits
 753              		.align	1
 754              		.global	USBD_LL_SOF
 755              		.syntax unified
 756              		.thumb
 757              		.thumb_func
 759              	USBD_LL_SOF:
 760              	.LVL58:
 761              	.LFB171:
 868:Middlewares/ST/STM32_USB_Device_Library/Core/Src/usbd_core.c **** 
 869:Middlewares/ST/STM32_USB_Device_Library/Core/Src/usbd_core.c **** /**
 870:Middlewares/ST/STM32_USB_Device_Library/Core/Src/usbd_core.c ****   * @brief  USBD_LL_SOF
 871:Middlewares/ST/STM32_USB_Device_Library/Core/Src/usbd_core.c ****   *         Handle SOF event
 872:Middlewares/ST/STM32_USB_Device_Library/Core/Src/usbd_core.c ****   * @param  pdev: device instance
 873:Middlewares/ST/STM32_USB_Device_Library/Core/Src/usbd_core.c ****   * @retval status
 874:Middlewares/ST/STM32_USB_Device_Library/Core/Src/usbd_core.c ****   */
 875:Middlewares/ST/STM32_USB_Device_Library/Core/Src/usbd_core.c **** 
 876:Middlewares/ST/STM32_USB_Device_Library/Core/Src/usbd_core.c **** USBD_StatusTypeDef USBD_LL_SOF(USBD_HandleTypeDef *pdev)
 877:Middlewares/ST/STM32_USB_Device_Library/Core/Src/usbd_core.c **** {
 762              		.loc 1 877 1 is_stmt 1 view -0
 763              		.cfi_startproc
 764              		@ args = 0, pretend = 0, frame = 0
 765              		@ frame_needed = 0, uses_anonymous_args = 0
 766              		.loc 1 877 1 is_stmt 0 view .LVU215
 767 0000 08B5     		push	{r3, lr}
 768              	.LCFI13:
 769              		.cfi_def_cfa_offset 8
 770              		.cfi_offset 3, -8
 771              		.cfi_offset 14, -4
 878:Middlewares/ST/STM32_USB_Device_Library/Core/Src/usbd_core.c ****   /* The SOF event can be distributed for all classes that support it */
 879:Middlewares/ST/STM32_USB_Device_Library/Core/Src/usbd_core.c ****   if (pdev->dev_state == USBD_STATE_CONFIGURED)
 772              		.loc 1 879 3 is_stmt 1 view .LVU216
 773              		.loc 1 879 11 is_stmt 0 view .LVU217
 774 0002 90F89C32 		ldrb	r3, [r0, #668]	@ zero_extendqisi2
 775 0006 DBB2     		uxtb	r3, r3
 776              		.loc 1 879 6 view .LVU218
 777 0008 032B     		cmp	r3, #3
 778 000a 01D0     		beq	.L55
 779              	.LVL59:
 780              	.L53:
ARM GAS  /tmp/ccgGleel.s 			page 30


 880:Middlewares/ST/STM32_USB_Device_Library/Core/Src/usbd_core.c ****   {
 881:Middlewares/ST/STM32_USB_Device_Library/Core/Src/usbd_core.c **** #ifdef USE_USBD_COMPOSITE
 882:Middlewares/ST/STM32_USB_Device_Library/Core/Src/usbd_core.c ****     /* Parse the table of classes in use */
 883:Middlewares/ST/STM32_USB_Device_Library/Core/Src/usbd_core.c ****     for (uint32_t i = 0; i < USBD_MAX_SUPPORTED_CLASS; i++)
 884:Middlewares/ST/STM32_USB_Device_Library/Core/Src/usbd_core.c ****     {
 885:Middlewares/ST/STM32_USB_Device_Library/Core/Src/usbd_core.c ****       /* Check if current class is in use */
 886:Middlewares/ST/STM32_USB_Device_Library/Core/Src/usbd_core.c ****       if ((pdev->tclasslist[i].Active) == 1U)
 887:Middlewares/ST/STM32_USB_Device_Library/Core/Src/usbd_core.c ****       {
 888:Middlewares/ST/STM32_USB_Device_Library/Core/Src/usbd_core.c ****         if (pdev->pClass[i] != NULL)
 889:Middlewares/ST/STM32_USB_Device_Library/Core/Src/usbd_core.c ****         {
 890:Middlewares/ST/STM32_USB_Device_Library/Core/Src/usbd_core.c ****           if (pdev->pClass[i]->SOF != NULL)
 891:Middlewares/ST/STM32_USB_Device_Library/Core/Src/usbd_core.c ****           {
 892:Middlewares/ST/STM32_USB_Device_Library/Core/Src/usbd_core.c ****             pdev->classId = i;
 893:Middlewares/ST/STM32_USB_Device_Library/Core/Src/usbd_core.c ****             (void)pdev->pClass[i]->SOF(pdev);
 894:Middlewares/ST/STM32_USB_Device_Library/Core/Src/usbd_core.c ****           }
 895:Middlewares/ST/STM32_USB_Device_Library/Core/Src/usbd_core.c ****         }
 896:Middlewares/ST/STM32_USB_Device_Library/Core/Src/usbd_core.c ****       }
 897:Middlewares/ST/STM32_USB_Device_Library/Core/Src/usbd_core.c ****     }
 898:Middlewares/ST/STM32_USB_Device_Library/Core/Src/usbd_core.c **** #else
 899:Middlewares/ST/STM32_USB_Device_Library/Core/Src/usbd_core.c ****     if (pdev->pClass[0] != NULL)
 900:Middlewares/ST/STM32_USB_Device_Library/Core/Src/usbd_core.c ****     {
 901:Middlewares/ST/STM32_USB_Device_Library/Core/Src/usbd_core.c ****       if (pdev->pClass[0]->SOF != NULL)
 902:Middlewares/ST/STM32_USB_Device_Library/Core/Src/usbd_core.c ****       {
 903:Middlewares/ST/STM32_USB_Device_Library/Core/Src/usbd_core.c ****         (void)pdev->pClass[0]->SOF(pdev);
 904:Middlewares/ST/STM32_USB_Device_Library/Core/Src/usbd_core.c ****       }
 905:Middlewares/ST/STM32_USB_Device_Library/Core/Src/usbd_core.c ****     }
 906:Middlewares/ST/STM32_USB_Device_Library/Core/Src/usbd_core.c **** #endif /* USE_USBD_COMPOSITE */
 907:Middlewares/ST/STM32_USB_Device_Library/Core/Src/usbd_core.c ****   }
 908:Middlewares/ST/STM32_USB_Device_Library/Core/Src/usbd_core.c **** 
 909:Middlewares/ST/STM32_USB_Device_Library/Core/Src/usbd_core.c ****   return USBD_OK;
 781              		.loc 1 909 3 is_stmt 1 view .LVU219
 910:Middlewares/ST/STM32_USB_Device_Library/Core/Src/usbd_core.c **** }
 782              		.loc 1 910 1 is_stmt 0 view .LVU220
 783 000c 0020     		movs	r0, #0
 784 000e 08BD     		pop	{r3, pc}
 785              	.LVL60:
 786              	.L55:
 899:Middlewares/ST/STM32_USB_Device_Library/Core/Src/usbd_core.c ****     {
 787              		.loc 1 899 5 is_stmt 1 view .LVU221
 899:Middlewares/ST/STM32_USB_Device_Library/Core/Src/usbd_core.c ****     {
 788              		.loc 1 899 21 is_stmt 0 view .LVU222
 789 0010 D0F8B832 		ldr	r3, [r0, #696]
 899:Middlewares/ST/STM32_USB_Device_Library/Core/Src/usbd_core.c ****     {
 790              		.loc 1 899 8 view .LVU223
 791 0014 002B     		cmp	r3, #0
 792 0016 F9D0     		beq	.L53
 901:Middlewares/ST/STM32_USB_Device_Library/Core/Src/usbd_core.c ****       {
 793              		.loc 1 901 7 is_stmt 1 view .LVU224
 901:Middlewares/ST/STM32_USB_Device_Library/Core/Src/usbd_core.c ****       {
 794              		.loc 1 901 26 is_stmt 0 view .LVU225
 795 0018 DB69     		ldr	r3, [r3, #28]
 901:Middlewares/ST/STM32_USB_Device_Library/Core/Src/usbd_core.c ****       {
 796              		.loc 1 901 10 view .LVU226
 797 001a 002B     		cmp	r3, #0
 798 001c F6D0     		beq	.L53
 903:Middlewares/ST/STM32_USB_Device_Library/Core/Src/usbd_core.c ****       }
 799              		.loc 1 903 9 is_stmt 1 view .LVU227
ARM GAS  /tmp/ccgGleel.s 			page 31


 903:Middlewares/ST/STM32_USB_Device_Library/Core/Src/usbd_core.c ****       }
 800              		.loc 1 903 15 is_stmt 0 view .LVU228
 801 001e 9847     		blx	r3
 802              	.LVL61:
 903:Middlewares/ST/STM32_USB_Device_Library/Core/Src/usbd_core.c ****       }
 803              		.loc 1 903 15 view .LVU229
 804 0020 F4E7     		b	.L53
 805              		.cfi_endproc
 806              	.LFE171:
 808              		.section	.text.USBD_LL_IsoINIncomplete,"ax",%progbits
 809              		.align	1
 810              		.global	USBD_LL_IsoINIncomplete
 811              		.syntax unified
 812              		.thumb
 813              		.thumb_func
 815              	USBD_LL_IsoINIncomplete:
 816              	.LVL62:
 817              	.LFB172:
 911:Middlewares/ST/STM32_USB_Device_Library/Core/Src/usbd_core.c **** 
 912:Middlewares/ST/STM32_USB_Device_Library/Core/Src/usbd_core.c **** /**
 913:Middlewares/ST/STM32_USB_Device_Library/Core/Src/usbd_core.c ****   * @brief  USBD_LL_IsoINIncomplete
 914:Middlewares/ST/STM32_USB_Device_Library/Core/Src/usbd_core.c ****   *         Handle iso in incomplete event
 915:Middlewares/ST/STM32_USB_Device_Library/Core/Src/usbd_core.c ****   * @param  pdev: device instance
 916:Middlewares/ST/STM32_USB_Device_Library/Core/Src/usbd_core.c ****   * @retval status
 917:Middlewares/ST/STM32_USB_Device_Library/Core/Src/usbd_core.c ****   */
 918:Middlewares/ST/STM32_USB_Device_Library/Core/Src/usbd_core.c **** USBD_StatusTypeDef USBD_LL_IsoINIncomplete(USBD_HandleTypeDef *pdev,
 919:Middlewares/ST/STM32_USB_Device_Library/Core/Src/usbd_core.c ****                                            uint8_t epnum)
 920:Middlewares/ST/STM32_USB_Device_Library/Core/Src/usbd_core.c **** {
 818              		.loc 1 920 1 is_stmt 1 view -0
 819              		.cfi_startproc
 820              		@ args = 0, pretend = 0, frame = 0
 821              		@ frame_needed = 0, uses_anonymous_args = 0
 822              		.loc 1 920 1 is_stmt 0 view .LVU231
 823 0000 08B5     		push	{r3, lr}
 824              	.LCFI14:
 825              		.cfi_def_cfa_offset 8
 826              		.cfi_offset 3, -8
 827              		.cfi_offset 14, -4
 921:Middlewares/ST/STM32_USB_Device_Library/Core/Src/usbd_core.c ****   if (pdev->pClass[pdev->classId] == NULL)
 828              		.loc 1 921 3 is_stmt 1 view .LVU232
 829              		.loc 1 921 24 is_stmt 0 view .LVU233
 830 0002 D0F8D432 		ldr	r3, [r0, #724]
 831              		.loc 1 921 19 view .LVU234
 832 0006 AE33     		adds	r3, r3, #174
 833 0008 50F82320 		ldr	r2, [r0, r3, lsl #2]
 834              		.loc 1 921 6 view .LVU235
 835 000c 5AB1     		cbz	r2, .L58
 922:Middlewares/ST/STM32_USB_Device_Library/Core/Src/usbd_core.c ****   {
 923:Middlewares/ST/STM32_USB_Device_Library/Core/Src/usbd_core.c ****     return USBD_FAIL;
 924:Middlewares/ST/STM32_USB_Device_Library/Core/Src/usbd_core.c ****   }
 925:Middlewares/ST/STM32_USB_Device_Library/Core/Src/usbd_core.c **** 
 926:Middlewares/ST/STM32_USB_Device_Library/Core/Src/usbd_core.c ****   if (pdev->dev_state == USBD_STATE_CONFIGURED)
 836              		.loc 1 926 3 is_stmt 1 view .LVU236
 837              		.loc 1 926 11 is_stmt 0 view .LVU237
 838 000e 90F89C32 		ldrb	r3, [r0, #668]	@ zero_extendqisi2
 839 0012 DBB2     		uxtb	r3, r3
 840              		.loc 1 926 6 view .LVU238
ARM GAS  /tmp/ccgGleel.s 			page 32


 841 0014 032B     		cmp	r3, #3
 842 0016 01D0     		beq	.L62
 927:Middlewares/ST/STM32_USB_Device_Library/Core/Src/usbd_core.c ****   {
 928:Middlewares/ST/STM32_USB_Device_Library/Core/Src/usbd_core.c ****     if (pdev->pClass[pdev->classId]->IsoINIncomplete != NULL)
 929:Middlewares/ST/STM32_USB_Device_Library/Core/Src/usbd_core.c ****     {
 930:Middlewares/ST/STM32_USB_Device_Library/Core/Src/usbd_core.c ****       (void)pdev->pClass[pdev->classId]->IsoINIncomplete(pdev, epnum);
 931:Middlewares/ST/STM32_USB_Device_Library/Core/Src/usbd_core.c ****     }
 932:Middlewares/ST/STM32_USB_Device_Library/Core/Src/usbd_core.c ****   }
 933:Middlewares/ST/STM32_USB_Device_Library/Core/Src/usbd_core.c **** 
 934:Middlewares/ST/STM32_USB_Device_Library/Core/Src/usbd_core.c ****   return USBD_OK;
 843              		.loc 1 934 10 view .LVU239
 844 0018 0020     		movs	r0, #0
 845              	.LVL63:
 846              	.L57:
 935:Middlewares/ST/STM32_USB_Device_Library/Core/Src/usbd_core.c **** }
 847              		.loc 1 935 1 view .LVU240
 848 001a 08BD     		pop	{r3, pc}
 849              	.LVL64:
 850              	.L62:
 928:Middlewares/ST/STM32_USB_Device_Library/Core/Src/usbd_core.c ****     {
 851              		.loc 1 928 5 is_stmt 1 view .LVU241
 928:Middlewares/ST/STM32_USB_Device_Library/Core/Src/usbd_core.c ****     {
 852              		.loc 1 928 36 is_stmt 0 view .LVU242
 853 001c 136A     		ldr	r3, [r2, #32]
 928:Middlewares/ST/STM32_USB_Device_Library/Core/Src/usbd_core.c ****     {
 854              		.loc 1 928 8 view .LVU243
 855 001e 23B1     		cbz	r3, .L60
 930:Middlewares/ST/STM32_USB_Device_Library/Core/Src/usbd_core.c ****     }
 856              		.loc 1 930 7 is_stmt 1 view .LVU244
 930:Middlewares/ST/STM32_USB_Device_Library/Core/Src/usbd_core.c ****     }
 857              		.loc 1 930 13 is_stmt 0 view .LVU245
 858 0020 9847     		blx	r3
 859              	.LVL65:
 934:Middlewares/ST/STM32_USB_Device_Library/Core/Src/usbd_core.c **** }
 860              		.loc 1 934 10 view .LVU246
 861 0022 0020     		movs	r0, #0
 862 0024 F9E7     		b	.L57
 863              	.LVL66:
 864              	.L58:
 923:Middlewares/ST/STM32_USB_Device_Library/Core/Src/usbd_core.c ****   }
 865              		.loc 1 923 12 view .LVU247
 866 0026 0320     		movs	r0, #3
 867              	.LVL67:
 923:Middlewares/ST/STM32_USB_Device_Library/Core/Src/usbd_core.c ****   }
 868              		.loc 1 923 12 view .LVU248
 869 0028 F7E7     		b	.L57
 870              	.LVL68:
 871              	.L60:
 934:Middlewares/ST/STM32_USB_Device_Library/Core/Src/usbd_core.c **** }
 872              		.loc 1 934 10 view .LVU249
 873 002a 0020     		movs	r0, #0
 874              	.LVL69:
 934:Middlewares/ST/STM32_USB_Device_Library/Core/Src/usbd_core.c **** }
 875              		.loc 1 934 10 view .LVU250
 876 002c F5E7     		b	.L57
 877              		.cfi_endproc
 878              	.LFE172:
ARM GAS  /tmp/ccgGleel.s 			page 33


 880              		.section	.text.USBD_LL_IsoOUTIncomplete,"ax",%progbits
 881              		.align	1
 882              		.global	USBD_LL_IsoOUTIncomplete
 883              		.syntax unified
 884              		.thumb
 885              		.thumb_func
 887              	USBD_LL_IsoOUTIncomplete:
 888              	.LVL70:
 889              	.LFB173:
 936:Middlewares/ST/STM32_USB_Device_Library/Core/Src/usbd_core.c **** 
 937:Middlewares/ST/STM32_USB_Device_Library/Core/Src/usbd_core.c **** /**
 938:Middlewares/ST/STM32_USB_Device_Library/Core/Src/usbd_core.c ****   * @brief  USBD_LL_IsoOUTIncomplete
 939:Middlewares/ST/STM32_USB_Device_Library/Core/Src/usbd_core.c ****   *         Handle iso out incomplete event
 940:Middlewares/ST/STM32_USB_Device_Library/Core/Src/usbd_core.c ****   * @param  pdev: device instance
 941:Middlewares/ST/STM32_USB_Device_Library/Core/Src/usbd_core.c ****   * @retval status
 942:Middlewares/ST/STM32_USB_Device_Library/Core/Src/usbd_core.c ****   */
 943:Middlewares/ST/STM32_USB_Device_Library/Core/Src/usbd_core.c **** USBD_StatusTypeDef USBD_LL_IsoOUTIncomplete(USBD_HandleTypeDef *pdev,
 944:Middlewares/ST/STM32_USB_Device_Library/Core/Src/usbd_core.c ****                                             uint8_t epnum)
 945:Middlewares/ST/STM32_USB_Device_Library/Core/Src/usbd_core.c **** {
 890              		.loc 1 945 1 is_stmt 1 view -0
 891              		.cfi_startproc
 892              		@ args = 0, pretend = 0, frame = 0
 893              		@ frame_needed = 0, uses_anonymous_args = 0
 894              		.loc 1 945 1 is_stmt 0 view .LVU252
 895 0000 08B5     		push	{r3, lr}
 896              	.LCFI15:
 897              		.cfi_def_cfa_offset 8
 898              		.cfi_offset 3, -8
 899              		.cfi_offset 14, -4
 946:Middlewares/ST/STM32_USB_Device_Library/Core/Src/usbd_core.c ****   if (pdev->pClass[pdev->classId] == NULL)
 900              		.loc 1 946 3 is_stmt 1 view .LVU253
 901              		.loc 1 946 24 is_stmt 0 view .LVU254
 902 0002 D0F8D432 		ldr	r3, [r0, #724]
 903              		.loc 1 946 19 view .LVU255
 904 0006 AE33     		adds	r3, r3, #174
 905 0008 50F82320 		ldr	r2, [r0, r3, lsl #2]
 906              		.loc 1 946 6 view .LVU256
 907 000c 5AB1     		cbz	r2, .L65
 947:Middlewares/ST/STM32_USB_Device_Library/Core/Src/usbd_core.c ****   {
 948:Middlewares/ST/STM32_USB_Device_Library/Core/Src/usbd_core.c ****     return USBD_FAIL;
 949:Middlewares/ST/STM32_USB_Device_Library/Core/Src/usbd_core.c ****   }
 950:Middlewares/ST/STM32_USB_Device_Library/Core/Src/usbd_core.c **** 
 951:Middlewares/ST/STM32_USB_Device_Library/Core/Src/usbd_core.c ****   if (pdev->dev_state == USBD_STATE_CONFIGURED)
 908              		.loc 1 951 3 is_stmt 1 view .LVU257
 909              		.loc 1 951 11 is_stmt 0 view .LVU258
 910 000e 90F89C32 		ldrb	r3, [r0, #668]	@ zero_extendqisi2
 911 0012 DBB2     		uxtb	r3, r3
 912              		.loc 1 951 6 view .LVU259
 913 0014 032B     		cmp	r3, #3
 914 0016 01D0     		beq	.L69
 952:Middlewares/ST/STM32_USB_Device_Library/Core/Src/usbd_core.c ****   {
 953:Middlewares/ST/STM32_USB_Device_Library/Core/Src/usbd_core.c ****     if (pdev->pClass[pdev->classId]->IsoOUTIncomplete != NULL)
 954:Middlewares/ST/STM32_USB_Device_Library/Core/Src/usbd_core.c ****     {
 955:Middlewares/ST/STM32_USB_Device_Library/Core/Src/usbd_core.c ****       (void)pdev->pClass[pdev->classId]->IsoOUTIncomplete(pdev, epnum);
 956:Middlewares/ST/STM32_USB_Device_Library/Core/Src/usbd_core.c ****     }
 957:Middlewares/ST/STM32_USB_Device_Library/Core/Src/usbd_core.c ****   }
 958:Middlewares/ST/STM32_USB_Device_Library/Core/Src/usbd_core.c **** 
ARM GAS  /tmp/ccgGleel.s 			page 34


 959:Middlewares/ST/STM32_USB_Device_Library/Core/Src/usbd_core.c ****   return USBD_OK;
 915              		.loc 1 959 10 view .LVU260
 916 0018 0020     		movs	r0, #0
 917              	.LVL71:
 918              	.L64:
 960:Middlewares/ST/STM32_USB_Device_Library/Core/Src/usbd_core.c **** }
 919              		.loc 1 960 1 view .LVU261
 920 001a 08BD     		pop	{r3, pc}
 921              	.LVL72:
 922              	.L69:
 953:Middlewares/ST/STM32_USB_Device_Library/Core/Src/usbd_core.c ****     {
 923              		.loc 1 953 5 is_stmt 1 view .LVU262
 953:Middlewares/ST/STM32_USB_Device_Library/Core/Src/usbd_core.c ****     {
 924              		.loc 1 953 36 is_stmt 0 view .LVU263
 925 001c 536A     		ldr	r3, [r2, #36]
 953:Middlewares/ST/STM32_USB_Device_Library/Core/Src/usbd_core.c ****     {
 926              		.loc 1 953 8 view .LVU264
 927 001e 23B1     		cbz	r3, .L67
 955:Middlewares/ST/STM32_USB_Device_Library/Core/Src/usbd_core.c ****     }
 928              		.loc 1 955 7 is_stmt 1 view .LVU265
 955:Middlewares/ST/STM32_USB_Device_Library/Core/Src/usbd_core.c ****     }
 929              		.loc 1 955 13 is_stmt 0 view .LVU266
 930 0020 9847     		blx	r3
 931              	.LVL73:
 959:Middlewares/ST/STM32_USB_Device_Library/Core/Src/usbd_core.c **** }
 932              		.loc 1 959 10 view .LVU267
 933 0022 0020     		movs	r0, #0
 934 0024 F9E7     		b	.L64
 935              	.LVL74:
 936              	.L65:
 948:Middlewares/ST/STM32_USB_Device_Library/Core/Src/usbd_core.c ****   }
 937              		.loc 1 948 12 view .LVU268
 938 0026 0320     		movs	r0, #3
 939              	.LVL75:
 948:Middlewares/ST/STM32_USB_Device_Library/Core/Src/usbd_core.c ****   }
 940              		.loc 1 948 12 view .LVU269
 941 0028 F7E7     		b	.L64
 942              	.LVL76:
 943              	.L67:
 959:Middlewares/ST/STM32_USB_Device_Library/Core/Src/usbd_core.c **** }
 944              		.loc 1 959 10 view .LVU270
 945 002a 0020     		movs	r0, #0
 946              	.LVL77:
 959:Middlewares/ST/STM32_USB_Device_Library/Core/Src/usbd_core.c **** }
 947              		.loc 1 959 10 view .LVU271
 948 002c F5E7     		b	.L64
 949              		.cfi_endproc
 950              	.LFE173:
 952              		.section	.text.USBD_LL_DevConnected,"ax",%progbits
 953              		.align	1
 954              		.global	USBD_LL_DevConnected
 955              		.syntax unified
 956              		.thumb
 957              		.thumb_func
 959              	USBD_LL_DevConnected:
 960              	.LVL78:
 961              	.LFB174:
ARM GAS  /tmp/ccgGleel.s 			page 35


 961:Middlewares/ST/STM32_USB_Device_Library/Core/Src/usbd_core.c **** 
 962:Middlewares/ST/STM32_USB_Device_Library/Core/Src/usbd_core.c **** /**
 963:Middlewares/ST/STM32_USB_Device_Library/Core/Src/usbd_core.c ****   * @brief  USBD_LL_DevConnected
 964:Middlewares/ST/STM32_USB_Device_Library/Core/Src/usbd_core.c ****   *         Handle device connection event
 965:Middlewares/ST/STM32_USB_Device_Library/Core/Src/usbd_core.c ****   * @param  pdev: device instance
 966:Middlewares/ST/STM32_USB_Device_Library/Core/Src/usbd_core.c ****   * @retval status
 967:Middlewares/ST/STM32_USB_Device_Library/Core/Src/usbd_core.c ****   */
 968:Middlewares/ST/STM32_USB_Device_Library/Core/Src/usbd_core.c **** USBD_StatusTypeDef USBD_LL_DevConnected(USBD_HandleTypeDef *pdev)
 969:Middlewares/ST/STM32_USB_Device_Library/Core/Src/usbd_core.c **** {
 962              		.loc 1 969 1 is_stmt 1 view -0
 963              		.cfi_startproc
 964              		@ args = 0, pretend = 0, frame = 0
 965              		@ frame_needed = 0, uses_anonymous_args = 0
 966              		@ link register save eliminated.
 970:Middlewares/ST/STM32_USB_Device_Library/Core/Src/usbd_core.c ****   /* Prevent unused argument compilation warning */
 971:Middlewares/ST/STM32_USB_Device_Library/Core/Src/usbd_core.c ****   UNUSED(pdev);
 967              		.loc 1 971 3 view .LVU273
 972:Middlewares/ST/STM32_USB_Device_Library/Core/Src/usbd_core.c **** 
 973:Middlewares/ST/STM32_USB_Device_Library/Core/Src/usbd_core.c ****   return USBD_OK;
 968              		.loc 1 973 3 view .LVU274
 974:Middlewares/ST/STM32_USB_Device_Library/Core/Src/usbd_core.c **** }
 969              		.loc 1 974 1 is_stmt 0 view .LVU275
 970 0000 0020     		movs	r0, #0
 971              	.LVL79:
 972              		.loc 1 974 1 view .LVU276
 973 0002 7047     		bx	lr
 974              		.cfi_endproc
 975              	.LFE174:
 977              		.section	.text.USBD_LL_DevDisconnected,"ax",%progbits
 978              		.align	1
 979              		.global	USBD_LL_DevDisconnected
 980              		.syntax unified
 981              		.thumb
 982              		.thumb_func
 984              	USBD_LL_DevDisconnected:
 985              	.LVL80:
 986              	.LFB175:
 975:Middlewares/ST/STM32_USB_Device_Library/Core/Src/usbd_core.c **** 
 976:Middlewares/ST/STM32_USB_Device_Library/Core/Src/usbd_core.c **** /**
 977:Middlewares/ST/STM32_USB_Device_Library/Core/Src/usbd_core.c ****   * @brief  USBD_LL_DevDisconnected
 978:Middlewares/ST/STM32_USB_Device_Library/Core/Src/usbd_core.c ****   *         Handle device disconnection event
 979:Middlewares/ST/STM32_USB_Device_Library/Core/Src/usbd_core.c ****   * @param  pdev: device instance
 980:Middlewares/ST/STM32_USB_Device_Library/Core/Src/usbd_core.c ****   * @retval status
 981:Middlewares/ST/STM32_USB_Device_Library/Core/Src/usbd_core.c ****   */
 982:Middlewares/ST/STM32_USB_Device_Library/Core/Src/usbd_core.c **** USBD_StatusTypeDef USBD_LL_DevDisconnected(USBD_HandleTypeDef *pdev)
 983:Middlewares/ST/STM32_USB_Device_Library/Core/Src/usbd_core.c **** {
 987              		.loc 1 983 1 is_stmt 1 view -0
 988              		.cfi_startproc
 989              		@ args = 0, pretend = 0, frame = 0
 990              		@ frame_needed = 0, uses_anonymous_args = 0
 991              		.loc 1 983 1 is_stmt 0 view .LVU278
 992 0000 08B5     		push	{r3, lr}
 993              	.LCFI16:
 994              		.cfi_def_cfa_offset 8
 995              		.cfi_offset 3, -8
 996              		.cfi_offset 14, -4
 984:Middlewares/ST/STM32_USB_Device_Library/Core/Src/usbd_core.c ****   USBD_StatusTypeDef   ret = USBD_OK;
ARM GAS  /tmp/ccgGleel.s 			page 36


 997              		.loc 1 984 3 is_stmt 1 view .LVU279
 998              	.LVL81:
 985:Middlewares/ST/STM32_USB_Device_Library/Core/Src/usbd_core.c **** 
 986:Middlewares/ST/STM32_USB_Device_Library/Core/Src/usbd_core.c ****   /* Free Class Resources */
 987:Middlewares/ST/STM32_USB_Device_Library/Core/Src/usbd_core.c ****   pdev->dev_state = USBD_STATE_DEFAULT;
 999              		.loc 1 987 3 view .LVU280
 1000              		.loc 1 987 19 is_stmt 0 view .LVU281
 1001 0002 0123     		movs	r3, #1
 1002 0004 80F89C32 		strb	r3, [r0, #668]
 988:Middlewares/ST/STM32_USB_Device_Library/Core/Src/usbd_core.c **** 
 989:Middlewares/ST/STM32_USB_Device_Library/Core/Src/usbd_core.c **** #ifdef USE_USBD_COMPOSITE
 990:Middlewares/ST/STM32_USB_Device_Library/Core/Src/usbd_core.c ****   /* Parse the table of classes in use */
 991:Middlewares/ST/STM32_USB_Device_Library/Core/Src/usbd_core.c ****   for (uint32_t i = 0; i < USBD_MAX_SUPPORTED_CLASS; i++)
 992:Middlewares/ST/STM32_USB_Device_Library/Core/Src/usbd_core.c ****   {
 993:Middlewares/ST/STM32_USB_Device_Library/Core/Src/usbd_core.c ****     /* Check if current class is in use */
 994:Middlewares/ST/STM32_USB_Device_Library/Core/Src/usbd_core.c ****     if ((pdev->tclasslist[i].Active) == 1U)
 995:Middlewares/ST/STM32_USB_Device_Library/Core/Src/usbd_core.c ****     {
 996:Middlewares/ST/STM32_USB_Device_Library/Core/Src/usbd_core.c ****       if (pdev->pClass[i] != NULL)
 997:Middlewares/ST/STM32_USB_Device_Library/Core/Src/usbd_core.c ****       {
 998:Middlewares/ST/STM32_USB_Device_Library/Core/Src/usbd_core.c ****         pdev->classId = i;
 999:Middlewares/ST/STM32_USB_Device_Library/Core/Src/usbd_core.c ****         /* Clear configuration  and De-initialize the Class process*/
1000:Middlewares/ST/STM32_USB_Device_Library/Core/Src/usbd_core.c ****         if (pdev->pClass[i]->DeInit(pdev, (uint8_t)pdev->dev_config) != 0U)
1001:Middlewares/ST/STM32_USB_Device_Library/Core/Src/usbd_core.c ****         {
1002:Middlewares/ST/STM32_USB_Device_Library/Core/Src/usbd_core.c ****           ret = USBD_FAIL;
1003:Middlewares/ST/STM32_USB_Device_Library/Core/Src/usbd_core.c ****         }
1004:Middlewares/ST/STM32_USB_Device_Library/Core/Src/usbd_core.c ****       }
1005:Middlewares/ST/STM32_USB_Device_Library/Core/Src/usbd_core.c ****     }
1006:Middlewares/ST/STM32_USB_Device_Library/Core/Src/usbd_core.c ****   }
1007:Middlewares/ST/STM32_USB_Device_Library/Core/Src/usbd_core.c **** #else
1008:Middlewares/ST/STM32_USB_Device_Library/Core/Src/usbd_core.c ****   if (pdev->pClass[0] != NULL)
 1003              		.loc 1 1008 3 is_stmt 1 view .LVU282
 1004              		.loc 1 1008 19 is_stmt 0 view .LVU283
 1005 0008 D0F8B832 		ldr	r3, [r0, #696]
 1006              		.loc 1 1008 6 view .LVU284
 1007 000c 23B1     		cbz	r3, .L73
1009:Middlewares/ST/STM32_USB_Device_Library/Core/Src/usbd_core.c ****   {
1010:Middlewares/ST/STM32_USB_Device_Library/Core/Src/usbd_core.c ****     if (pdev->pClass[0]->DeInit(pdev, (uint8_t)pdev->dev_config) != 0U)
 1008              		.loc 1 1010 5 is_stmt 1 view .LVU285
 1009              		.loc 1 1010 24 is_stmt 0 view .LVU286
 1010 000e 5B68     		ldr	r3, [r3, #4]
 1011              		.loc 1 1010 9 view .LVU287
 1012 0010 0179     		ldrb	r1, [r0, #4]	@ zero_extendqisi2
 1013 0012 9847     		blx	r3
 1014              	.LVL82:
 1015              		.loc 1 1010 8 view .LVU288
 1016 0014 10B9     		cbnz	r0, .L76
 1017              	.L72:
 1018              	.LVL83:
1011:Middlewares/ST/STM32_USB_Device_Library/Core/Src/usbd_core.c ****     {
1012:Middlewares/ST/STM32_USB_Device_Library/Core/Src/usbd_core.c ****       ret = USBD_FAIL;
1013:Middlewares/ST/STM32_USB_Device_Library/Core/Src/usbd_core.c ****     }
1014:Middlewares/ST/STM32_USB_Device_Library/Core/Src/usbd_core.c ****   }
1015:Middlewares/ST/STM32_USB_Device_Library/Core/Src/usbd_core.c **** #endif /* USE_USBD_COMPOSITE */
1016:Middlewares/ST/STM32_USB_Device_Library/Core/Src/usbd_core.c **** 
1017:Middlewares/ST/STM32_USB_Device_Library/Core/Src/usbd_core.c ****   return ret;
 1019              		.loc 1 1017 3 is_stmt 1 view .LVU289
1018:Middlewares/ST/STM32_USB_Device_Library/Core/Src/usbd_core.c **** }
ARM GAS  /tmp/ccgGleel.s 			page 37


 1020              		.loc 1 1018 1 is_stmt 0 view .LVU290
 1021 0016 08BD     		pop	{r3, pc}
 1022              	.LVL84:
 1023              	.L73:
 984:Middlewares/ST/STM32_USB_Device_Library/Core/Src/usbd_core.c **** 
 1024              		.loc 1 984 24 view .LVU291
 1025 0018 0020     		movs	r0, #0
 1026              	.LVL85:
 984:Middlewares/ST/STM32_USB_Device_Library/Core/Src/usbd_core.c **** 
 1027              		.loc 1 984 24 view .LVU292
 1028 001a FCE7     		b	.L72
 1029              	.L76:
1012:Middlewares/ST/STM32_USB_Device_Library/Core/Src/usbd_core.c ****     }
 1030              		.loc 1 1012 11 view .LVU293
 1031 001c 0320     		movs	r0, #3
 1032 001e FAE7     		b	.L72
 1033              		.cfi_endproc
 1034              	.LFE175:
 1036              		.section	.text.USBD_CoreFindIF,"ax",%progbits
 1037              		.align	1
 1038              		.global	USBD_CoreFindIF
 1039              		.syntax unified
 1040              		.thumb
 1041              		.thumb_func
 1043              	USBD_CoreFindIF:
 1044              	.LVL86:
 1045              	.LFB176:
1019:Middlewares/ST/STM32_USB_Device_Library/Core/Src/usbd_core.c **** 
1020:Middlewares/ST/STM32_USB_Device_Library/Core/Src/usbd_core.c **** /**
1021:Middlewares/ST/STM32_USB_Device_Library/Core/Src/usbd_core.c ****   * @brief  USBD_CoreFindIF
1022:Middlewares/ST/STM32_USB_Device_Library/Core/Src/usbd_core.c ****   *         return the class index relative to the selected interface
1023:Middlewares/ST/STM32_USB_Device_Library/Core/Src/usbd_core.c ****   * @param  pdev: device instance
1024:Middlewares/ST/STM32_USB_Device_Library/Core/Src/usbd_core.c ****   * @param  index : selected interface number
1025:Middlewares/ST/STM32_USB_Device_Library/Core/Src/usbd_core.c ****   * @retval index of the class using the selected interface number. OxFF if no class found.
1026:Middlewares/ST/STM32_USB_Device_Library/Core/Src/usbd_core.c ****   */
1027:Middlewares/ST/STM32_USB_Device_Library/Core/Src/usbd_core.c **** uint8_t USBD_CoreFindIF(USBD_HandleTypeDef *pdev, uint8_t index)
1028:Middlewares/ST/STM32_USB_Device_Library/Core/Src/usbd_core.c **** {
 1046              		.loc 1 1028 1 is_stmt 1 view -0
 1047              		.cfi_startproc
 1048              		@ args = 0, pretend = 0, frame = 0
 1049              		@ frame_needed = 0, uses_anonymous_args = 0
 1050              		@ link register save eliminated.
1029:Middlewares/ST/STM32_USB_Device_Library/Core/Src/usbd_core.c **** #ifdef USE_USBD_COMPOSITE
1030:Middlewares/ST/STM32_USB_Device_Library/Core/Src/usbd_core.c ****   /* Parse the table of classes in use */
1031:Middlewares/ST/STM32_USB_Device_Library/Core/Src/usbd_core.c ****   for (uint32_t i = 0U; i < USBD_MAX_SUPPORTED_CLASS; i++)
1032:Middlewares/ST/STM32_USB_Device_Library/Core/Src/usbd_core.c ****   {
1033:Middlewares/ST/STM32_USB_Device_Library/Core/Src/usbd_core.c ****     /* Check if current class is in use */
1034:Middlewares/ST/STM32_USB_Device_Library/Core/Src/usbd_core.c ****     if ((pdev->tclasslist[i].Active) == 1U)
1035:Middlewares/ST/STM32_USB_Device_Library/Core/Src/usbd_core.c ****     {
1036:Middlewares/ST/STM32_USB_Device_Library/Core/Src/usbd_core.c ****       /* Parse all interfaces listed in the current class */
1037:Middlewares/ST/STM32_USB_Device_Library/Core/Src/usbd_core.c ****       for (uint32_t j = 0U; j < pdev->tclasslist[i].NumIf; j++)
1038:Middlewares/ST/STM32_USB_Device_Library/Core/Src/usbd_core.c ****       {
1039:Middlewares/ST/STM32_USB_Device_Library/Core/Src/usbd_core.c ****         /* Check if requested Interface matches the current class interface */
1040:Middlewares/ST/STM32_USB_Device_Library/Core/Src/usbd_core.c ****         if (pdev->tclasslist[i].Ifs[j] == index)
1041:Middlewares/ST/STM32_USB_Device_Library/Core/Src/usbd_core.c ****         {
1042:Middlewares/ST/STM32_USB_Device_Library/Core/Src/usbd_core.c ****           if (pdev->pClass[i]->Setup != NULL)
1043:Middlewares/ST/STM32_USB_Device_Library/Core/Src/usbd_core.c ****           {
ARM GAS  /tmp/ccgGleel.s 			page 38


1044:Middlewares/ST/STM32_USB_Device_Library/Core/Src/usbd_core.c ****             return (uint8_t)i;
1045:Middlewares/ST/STM32_USB_Device_Library/Core/Src/usbd_core.c ****           }
1046:Middlewares/ST/STM32_USB_Device_Library/Core/Src/usbd_core.c ****         }
1047:Middlewares/ST/STM32_USB_Device_Library/Core/Src/usbd_core.c ****       }
1048:Middlewares/ST/STM32_USB_Device_Library/Core/Src/usbd_core.c ****     }
1049:Middlewares/ST/STM32_USB_Device_Library/Core/Src/usbd_core.c ****   }
1050:Middlewares/ST/STM32_USB_Device_Library/Core/Src/usbd_core.c **** 
1051:Middlewares/ST/STM32_USB_Device_Library/Core/Src/usbd_core.c ****   return 0xFFU;
1052:Middlewares/ST/STM32_USB_Device_Library/Core/Src/usbd_core.c **** #else
1053:Middlewares/ST/STM32_USB_Device_Library/Core/Src/usbd_core.c ****   UNUSED(pdev);
 1051              		.loc 1 1053 3 view .LVU295
1054:Middlewares/ST/STM32_USB_Device_Library/Core/Src/usbd_core.c ****   UNUSED(index);
 1052              		.loc 1 1054 3 view .LVU296
1055:Middlewares/ST/STM32_USB_Device_Library/Core/Src/usbd_core.c **** 
1056:Middlewares/ST/STM32_USB_Device_Library/Core/Src/usbd_core.c ****   return 0x00U;
 1053              		.loc 1 1056 3 view .LVU297
1057:Middlewares/ST/STM32_USB_Device_Library/Core/Src/usbd_core.c **** #endif /* USE_USBD_COMPOSITE */
1058:Middlewares/ST/STM32_USB_Device_Library/Core/Src/usbd_core.c **** }
 1054              		.loc 1 1058 1 is_stmt 0 view .LVU298
 1055 0000 0020     		movs	r0, #0
 1056              	.LVL87:
 1057              		.loc 1 1058 1 view .LVU299
 1058 0002 7047     		bx	lr
 1059              		.cfi_endproc
 1060              	.LFE176:
 1062              		.section	.text.USBD_CoreFindEP,"ax",%progbits
 1063              		.align	1
 1064              		.global	USBD_CoreFindEP
 1065              		.syntax unified
 1066              		.thumb
 1067              		.thumb_func
 1069              	USBD_CoreFindEP:
 1070              	.LVL88:
 1071              	.LFB177:
1059:Middlewares/ST/STM32_USB_Device_Library/Core/Src/usbd_core.c **** 
1060:Middlewares/ST/STM32_USB_Device_Library/Core/Src/usbd_core.c **** /**
1061:Middlewares/ST/STM32_USB_Device_Library/Core/Src/usbd_core.c ****   * @brief  USBD_CoreFindEP
1062:Middlewares/ST/STM32_USB_Device_Library/Core/Src/usbd_core.c ****   *         return the class index relative to the selected endpoint
1063:Middlewares/ST/STM32_USB_Device_Library/Core/Src/usbd_core.c ****   * @param  pdev: device instance
1064:Middlewares/ST/STM32_USB_Device_Library/Core/Src/usbd_core.c ****   * @param  index : selected endpoint number
1065:Middlewares/ST/STM32_USB_Device_Library/Core/Src/usbd_core.c ****   * @retval index of the class using the selected endpoint number. 0xFF if no class found.
1066:Middlewares/ST/STM32_USB_Device_Library/Core/Src/usbd_core.c ****   */
1067:Middlewares/ST/STM32_USB_Device_Library/Core/Src/usbd_core.c **** uint8_t USBD_CoreFindEP(USBD_HandleTypeDef *pdev, uint8_t index)
1068:Middlewares/ST/STM32_USB_Device_Library/Core/Src/usbd_core.c **** {
 1072              		.loc 1 1068 1 is_stmt 1 view -0
 1073              		.cfi_startproc
 1074              		@ args = 0, pretend = 0, frame = 0
 1075              		@ frame_needed = 0, uses_anonymous_args = 0
 1076              		@ link register save eliminated.
1069:Middlewares/ST/STM32_USB_Device_Library/Core/Src/usbd_core.c **** #ifdef USE_USBD_COMPOSITE
1070:Middlewares/ST/STM32_USB_Device_Library/Core/Src/usbd_core.c ****   /* Parse the table of classes in use */
1071:Middlewares/ST/STM32_USB_Device_Library/Core/Src/usbd_core.c ****   for (uint32_t i = 0U; i < USBD_MAX_SUPPORTED_CLASS; i++)
1072:Middlewares/ST/STM32_USB_Device_Library/Core/Src/usbd_core.c ****   {
1073:Middlewares/ST/STM32_USB_Device_Library/Core/Src/usbd_core.c ****     /* Check if current class is in use */
1074:Middlewares/ST/STM32_USB_Device_Library/Core/Src/usbd_core.c ****     if ((pdev->tclasslist[i].Active) == 1U)
1075:Middlewares/ST/STM32_USB_Device_Library/Core/Src/usbd_core.c ****     {
1076:Middlewares/ST/STM32_USB_Device_Library/Core/Src/usbd_core.c ****       /* Parse all endpoints listed in the current class */
ARM GAS  /tmp/ccgGleel.s 			page 39


1077:Middlewares/ST/STM32_USB_Device_Library/Core/Src/usbd_core.c ****       for (uint32_t j = 0U; j < pdev->tclasslist[i].NumEps; j++)
1078:Middlewares/ST/STM32_USB_Device_Library/Core/Src/usbd_core.c ****       {
1079:Middlewares/ST/STM32_USB_Device_Library/Core/Src/usbd_core.c ****         /* Check if requested endpoint matches the current class endpoint */
1080:Middlewares/ST/STM32_USB_Device_Library/Core/Src/usbd_core.c ****         if (pdev->tclasslist[i].Eps[j].add == index)
1081:Middlewares/ST/STM32_USB_Device_Library/Core/Src/usbd_core.c ****         {
1082:Middlewares/ST/STM32_USB_Device_Library/Core/Src/usbd_core.c ****           if (pdev->pClass[i]->Setup != NULL)
1083:Middlewares/ST/STM32_USB_Device_Library/Core/Src/usbd_core.c ****           {
1084:Middlewares/ST/STM32_USB_Device_Library/Core/Src/usbd_core.c ****             return (uint8_t)i;
1085:Middlewares/ST/STM32_USB_Device_Library/Core/Src/usbd_core.c ****           }
1086:Middlewares/ST/STM32_USB_Device_Library/Core/Src/usbd_core.c ****         }
1087:Middlewares/ST/STM32_USB_Device_Library/Core/Src/usbd_core.c ****       }
1088:Middlewares/ST/STM32_USB_Device_Library/Core/Src/usbd_core.c ****     }
1089:Middlewares/ST/STM32_USB_Device_Library/Core/Src/usbd_core.c ****   }
1090:Middlewares/ST/STM32_USB_Device_Library/Core/Src/usbd_core.c **** 
1091:Middlewares/ST/STM32_USB_Device_Library/Core/Src/usbd_core.c ****   return 0xFFU;
1092:Middlewares/ST/STM32_USB_Device_Library/Core/Src/usbd_core.c **** #else
1093:Middlewares/ST/STM32_USB_Device_Library/Core/Src/usbd_core.c ****   UNUSED(pdev);
 1077              		.loc 1 1093 3 view .LVU301
1094:Middlewares/ST/STM32_USB_Device_Library/Core/Src/usbd_core.c ****   UNUSED(index);
 1078              		.loc 1 1094 3 view .LVU302
1095:Middlewares/ST/STM32_USB_Device_Library/Core/Src/usbd_core.c **** 
1096:Middlewares/ST/STM32_USB_Device_Library/Core/Src/usbd_core.c ****   return 0x00U;
 1079              		.loc 1 1096 3 view .LVU303
1097:Middlewares/ST/STM32_USB_Device_Library/Core/Src/usbd_core.c **** #endif /* USE_USBD_COMPOSITE */
1098:Middlewares/ST/STM32_USB_Device_Library/Core/Src/usbd_core.c **** }
 1080              		.loc 1 1098 1 is_stmt 0 view .LVU304
 1081 0000 0020     		movs	r0, #0
 1082              	.LVL89:
 1083              		.loc 1 1098 1 view .LVU305
 1084 0002 7047     		bx	lr
 1085              		.cfi_endproc
 1086              	.LFE177:
 1088              		.section	.text.USBD_LL_DataOutStage,"ax",%progbits
 1089              		.align	1
 1090              		.global	USBD_LL_DataOutStage
 1091              		.syntax unified
 1092              		.thumb
 1093              		.thumb_func
 1095              	USBD_LL_DataOutStage:
 1096              	.LVL90:
 1097              	.LFB165:
 574:Middlewares/ST/STM32_USB_Device_Library/Core/Src/usbd_core.c ****   USBD_EndpointTypeDef *pep;
 1098              		.loc 1 574 1 is_stmt 1 view -0
 1099              		.cfi_startproc
 1100              		@ args = 0, pretend = 0, frame = 0
 1101              		@ frame_needed = 0, uses_anonymous_args = 0
 574:Middlewares/ST/STM32_USB_Device_Library/Core/Src/usbd_core.c ****   USBD_EndpointTypeDef *pep;
 1102              		.loc 1 574 1 is_stmt 0 view .LVU307
 1103 0000 38B5     		push	{r3, r4, r5, lr}
 1104              	.LCFI17:
 1105              		.cfi_def_cfa_offset 16
 1106              		.cfi_offset 3, -16
 1107              		.cfi_offset 4, -12
 1108              		.cfi_offset 5, -8
 1109              		.cfi_offset 14, -4
 1110 0002 0446     		mov	r4, r0
 575:Middlewares/ST/STM32_USB_Device_Library/Core/Src/usbd_core.c ****   USBD_StatusTypeDef ret = USBD_OK;
ARM GAS  /tmp/ccgGleel.s 			page 40


 1111              		.loc 1 575 3 is_stmt 1 view .LVU308
 576:Middlewares/ST/STM32_USB_Device_Library/Core/Src/usbd_core.c ****   uint8_t idx;
 1112              		.loc 1 576 3 view .LVU309
 1113              	.LVL91:
 577:Middlewares/ST/STM32_USB_Device_Library/Core/Src/usbd_core.c **** 
 1114              		.loc 1 577 3 view .LVU310
 579:Middlewares/ST/STM32_USB_Device_Library/Core/Src/usbd_core.c ****   {
 1115              		.loc 1 579 3 view .LVU311
 579:Middlewares/ST/STM32_USB_Device_Library/Core/Src/usbd_core.c ****   {
 1116              		.loc 1 579 6 is_stmt 0 view .LVU312
 1117 0004 0D46     		mov	r5, r1
 1118 0006 0029     		cmp	r1, #0
 1119 0008 43D1     		bne	.L80
 1120 000a 1346     		mov	r3, r2
 581:Middlewares/ST/STM32_USB_Device_Library/Core/Src/usbd_core.c **** 
 1121              		.loc 1 581 5 is_stmt 1 view .LVU313
 1122              	.LVL92:
 583:Middlewares/ST/STM32_USB_Device_Library/Core/Src/usbd_core.c ****     {
 1123              		.loc 1 583 5 view .LVU314
 583:Middlewares/ST/STM32_USB_Device_Library/Core/Src/usbd_core.c ****     {
 1124              		.loc 1 583 13 is_stmt 0 view .LVU315
 1125 000c D0F89422 		ldr	r2, [r0, #660]
 1126              	.LVL93:
 583:Middlewares/ST/STM32_USB_Device_Library/Core/Src/usbd_core.c ****     {
 1127              		.loc 1 583 8 view .LVU316
 1128 0010 032A     		cmp	r2, #3
 1129 0012 01D0     		beq	.L91
 656:Middlewares/ST/STM32_USB_Device_Library/Core/Src/usbd_core.c **** }
 1130              		.loc 1 656 10 view .LVU317
 1131 0014 0846     		mov	r0, r1
 1132              	.LVL94:
 1133              	.L81:
 657:Middlewares/ST/STM32_USB_Device_Library/Core/Src/usbd_core.c **** 
 1134              		.loc 1 657 1 view .LVU318
 1135 0016 38BD     		pop	{r3, r4, r5, pc}
 1136              	.LVL95:
 1137              	.L91:
 585:Middlewares/ST/STM32_USB_Device_Library/Core/Src/usbd_core.c ****       {
 1138              		.loc 1 585 7 is_stmt 1 view .LVU319
 585:Middlewares/ST/STM32_USB_Device_Library/Core/Src/usbd_core.c ****       {
 1139              		.loc 1 585 14 is_stmt 0 view .LVU320
 1140 0018 D0F85C11 		ldr	r1, [r0, #348]
 1141              	.LVL96:
 585:Middlewares/ST/STM32_USB_Device_Library/Core/Src/usbd_core.c ****       {
 1142              		.loc 1 585 32 view .LVU321
 1143 001c D0F86021 		ldr	r2, [r0, #352]
 585:Middlewares/ST/STM32_USB_Device_Library/Core/Src/usbd_core.c ****       {
 1144              		.loc 1 585 10 view .LVU322
 1145 0020 9142     		cmp	r1, r2
 1146 0022 12D8     		bhi	.L92
 594:Middlewares/ST/STM32_USB_Device_Library/Core/Src/usbd_core.c ****         {
 1147              		.loc 1 594 9 is_stmt 1 view .LVU323
 594:Middlewares/ST/STM32_USB_Device_Library/Core/Src/usbd_core.c ****         {
 1148              		.loc 1 594 30 is_stmt 0 view .LVU324
 1149 0024 90F8AA32 		ldrb	r3, [r0, #682]	@ zero_extendqisi2
 1150              	.LVL97:
 594:Middlewares/ST/STM32_USB_Device_Library/Core/Src/usbd_core.c ****         {
ARM GAS  /tmp/ccgGleel.s 			page 41


 1151              		.loc 1 594 30 view .LVU325
 1152 0028 03F01F03 		and	r3, r3, #31
 594:Middlewares/ST/STM32_USB_Device_Library/Core/Src/usbd_core.c ****         {
 1153              		.loc 1 594 9 view .LVU326
 1154 002c 012B     		cmp	r3, #1
 1155 002e 17D0     		beq	.L83
 1156 0030 022B     		cmp	r3, #2
 1157 0032 1CD0     		beq	.L84
 1158 0034 2846     		mov	r0, r5
 1159              	.LVL98:
 1160              	.L85:
 619:Middlewares/ST/STM32_USB_Device_Library/Core/Src/usbd_core.c ****           {
 1161              		.loc 1 619 11 is_stmt 1 view .LVU327
 619:Middlewares/ST/STM32_USB_Device_Library/Core/Src/usbd_core.c ****           {
 1162              		.loc 1 619 19 is_stmt 0 view .LVU328
 1163 0036 94F89C32 		ldrb	r3, [r4, #668]	@ zero_extendqisi2
 1164 003a DBB2     		uxtb	r3, r3
 619:Middlewares/ST/STM32_USB_Device_Library/Core/Src/usbd_core.c ****           {
 1165              		.loc 1 619 14 view .LVU329
 1166 003c 032B     		cmp	r3, #3
 1167 003e 1BD0     		beq	.L93
 1168              	.L87:
 629:Middlewares/ST/STM32_USB_Device_Library/Core/Src/usbd_core.c ****       }
 1169              		.loc 1 629 9 is_stmt 1 view .LVU330
 629:Middlewares/ST/STM32_USB_Device_Library/Core/Src/usbd_core.c ****       }
 1170              		.loc 1 629 15 is_stmt 0 view .LVU331
 1171 0040 2046     		mov	r0, r4
 1172 0042 FFF7FEFF 		bl	USBD_CtlSendStatus
 1173              	.LVL99:
 656:Middlewares/ST/STM32_USB_Device_Library/Core/Src/usbd_core.c **** }
 1174              		.loc 1 656 10 view .LVU332
 1175 0046 2846     		mov	r0, r5
 1176 0048 E5E7     		b	.L81
 1177              	.LVL100:
 1178              	.L92:
 587:Middlewares/ST/STM32_USB_Device_Library/Core/Src/usbd_core.c **** 
 1179              		.loc 1 587 9 is_stmt 1 view .LVU333
 587:Middlewares/ST/STM32_USB_Device_Library/Core/Src/usbd_core.c **** 
 1180              		.loc 1 587 25 is_stmt 0 view .LVU334
 1181 004a 891A     		subs	r1, r1, r2
 1182 004c C0F85C11 		str	r1, [r0, #348]
 589:Middlewares/ST/STM32_USB_Device_Library/Core/Src/usbd_core.c ****       }
 1183              		.loc 1 589 9 is_stmt 1 view .LVU335
 589:Middlewares/ST/STM32_USB_Device_Library/Core/Src/usbd_core.c ****       }
 1184              		.loc 1 589 15 is_stmt 0 view .LVU336
 1185 0050 8A42     		cmp	r2, r1
 1186 0052 28BF     		it	cs
 1187 0054 0A46     		movcs	r2, r1
 1188 0056 1946     		mov	r1, r3
 1189 0058 FFF7FEFF 		bl	USBD_CtlContinueRx
 1190              	.LVL101:
 656:Middlewares/ST/STM32_USB_Device_Library/Core/Src/usbd_core.c **** }
 1191              		.loc 1 656 10 view .LVU337
 1192 005c 2846     		mov	r0, r5
 1193 005e DAE7     		b	.L81
 1194              	.LVL102:
 1195              	.L83:
ARM GAS  /tmp/ccgGleel.s 			page 42


 603:Middlewares/ST/STM32_USB_Device_Library/Core/Src/usbd_core.c ****             break;
 1196              		.loc 1 603 13 is_stmt 1 view .LVU338
 603:Middlewares/ST/STM32_USB_Device_Library/Core/Src/usbd_core.c ****             break;
 1197              		.loc 1 603 19 is_stmt 0 view .LVU339
 1198 0060 90F8AE12 		ldrb	r1, [r0, #686]	@ zero_extendqisi2
 1199 0064 FFF7FEFF 		bl	USBD_CoreFindIF
 1200              	.LVL103:
 604:Middlewares/ST/STM32_USB_Device_Library/Core/Src/usbd_core.c **** 
 1201              		.loc 1 604 13 is_stmt 1 view .LVU340
 1202              	.L86:
 616:Middlewares/ST/STM32_USB_Device_Library/Core/Src/usbd_core.c ****         {
 1203              		.loc 1 616 9 view .LVU341
 616:Middlewares/ST/STM32_USB_Device_Library/Core/Src/usbd_core.c ****         {
 1204              		.loc 1 616 12 is_stmt 0 view .LVU342
 1205 0068 0028     		cmp	r0, #0
 1206 006a E9D1     		bne	.L87
 616:Middlewares/ST/STM32_USB_Device_Library/Core/Src/usbd_core.c ****         {
 1207              		.loc 1 616 12 view .LVU343
 1208 006c E3E7     		b	.L85
 1209              	.LVL104:
 1210              	.L84:
 607:Middlewares/ST/STM32_USB_Device_Library/Core/Src/usbd_core.c ****             break;
 1211              		.loc 1 607 13 is_stmt 1 view .LVU344
 607:Middlewares/ST/STM32_USB_Device_Library/Core/Src/usbd_core.c ****             break;
 1212              		.loc 1 607 19 is_stmt 0 view .LVU345
 1213 006e 90F8AE12 		ldrb	r1, [r0, #686]	@ zero_extendqisi2
 1214 0072 FFF7FEFF 		bl	USBD_CoreFindEP
 1215              	.LVL105:
 608:Middlewares/ST/STM32_USB_Device_Library/Core/Src/usbd_core.c **** 
 1216              		.loc 1 608 13 is_stmt 1 view .LVU346
 1217 0076 F7E7     		b	.L86
 1218              	.LVL106:
 1219              	.L93:
 621:Middlewares/ST/STM32_USB_Device_Library/Core/Src/usbd_core.c ****             {
 1220              		.loc 1 621 13 view .LVU347
 621:Middlewares/ST/STM32_USB_Device_Library/Core/Src/usbd_core.c ****             {
 1221              		.loc 1 621 29 is_stmt 0 view .LVU348
 1222 0078 00F1AE03 		add	r3, r0, #174
 1223 007c 54F82330 		ldr	r3, [r4, r3, lsl #2]
 621:Middlewares/ST/STM32_USB_Device_Library/Core/Src/usbd_core.c ****             {
 1224              		.loc 1 621 34 view .LVU349
 1225 0080 1A69     		ldr	r2, [r3, #16]
 621:Middlewares/ST/STM32_USB_Device_Library/Core/Src/usbd_core.c ****             {
 1226              		.loc 1 621 16 view .LVU350
 1227 0082 002A     		cmp	r2, #0
 1228 0084 DCD0     		beq	.L87
 623:Middlewares/ST/STM32_USB_Device_Library/Core/Src/usbd_core.c ****               pdev->pClass[idx]->EP0_RxReady(pdev);
 1229              		.loc 1 623 15 is_stmt 1 view .LVU351
 623:Middlewares/ST/STM32_USB_Device_Library/Core/Src/usbd_core.c ****               pdev->pClass[idx]->EP0_RxReady(pdev);
 1230              		.loc 1 623 29 is_stmt 0 view .LVU352
 1231 0086 C4F8D402 		str	r0, [r4, #724]
 624:Middlewares/ST/STM32_USB_Device_Library/Core/Src/usbd_core.c ****             }
 1232              		.loc 1 624 15 is_stmt 1 view .LVU353
 624:Middlewares/ST/STM32_USB_Device_Library/Core/Src/usbd_core.c ****             }
 1233              		.loc 1 624 32 is_stmt 0 view .LVU354
 1234 008a 1B69     		ldr	r3, [r3, #16]
 624:Middlewares/ST/STM32_USB_Device_Library/Core/Src/usbd_core.c ****             }
ARM GAS  /tmp/ccgGleel.s 			page 43


 1235              		.loc 1 624 15 view .LVU355
 1236 008c 2046     		mov	r0, r4
 1237 008e 9847     		blx	r3
 1238              	.LVL107:
 1239 0090 D6E7     		b	.L87
 1240              	.LVL108:
 1241              	.L80:
 636:Middlewares/ST/STM32_USB_Device_Library/Core/Src/usbd_core.c **** 
 1242              		.loc 1 636 5 is_stmt 1 view .LVU356
 636:Middlewares/ST/STM32_USB_Device_Library/Core/Src/usbd_core.c **** 
 1243              		.loc 1 636 11 is_stmt 0 view .LVU357
 1244 0092 01F07F01 		and	r1, r1, #127
 1245              	.LVL109:
 636:Middlewares/ST/STM32_USB_Device_Library/Core/Src/usbd_core.c **** 
 1246              		.loc 1 636 11 view .LVU358
 1247 0096 FFF7FEFF 		bl	USBD_CoreFindEP
 1248              	.LVL110:
 638:Middlewares/ST/STM32_USB_Device_Library/Core/Src/usbd_core.c ****     {
 1249              		.loc 1 638 5 is_stmt 1 view .LVU359
 638:Middlewares/ST/STM32_USB_Device_Library/Core/Src/usbd_core.c ****     {
 1250              		.loc 1 638 8 is_stmt 0 view .LVU360
 1251 009a 90B9     		cbnz	r0, .L89
 641:Middlewares/ST/STM32_USB_Device_Library/Core/Src/usbd_core.c ****       {
 1252              		.loc 1 641 7 is_stmt 1 view .LVU361
 641:Middlewares/ST/STM32_USB_Device_Library/Core/Src/usbd_core.c ****       {
 1253              		.loc 1 641 15 is_stmt 0 view .LVU362
 1254 009c 94F89C32 		ldrb	r3, [r4, #668]	@ zero_extendqisi2
 1255 00a0 DBB2     		uxtb	r3, r3
 641:Middlewares/ST/STM32_USB_Device_Library/Core/Src/usbd_core.c ****       {
 1256              		.loc 1 641 10 view .LVU363
 1257 00a2 032B     		cmp	r3, #3
 1258 00a4 B7D1     		bne	.L81
 643:Middlewares/ST/STM32_USB_Device_Library/Core/Src/usbd_core.c ****         {
 1259              		.loc 1 643 9 is_stmt 1 view .LVU364
 643:Middlewares/ST/STM32_USB_Device_Library/Core/Src/usbd_core.c ****         {
 1260              		.loc 1 643 25 is_stmt 0 view .LVU365
 1261 00a6 00F1AE03 		add	r3, r0, #174
 1262 00aa 54F82330 		ldr	r3, [r4, r3, lsl #2]
 643:Middlewares/ST/STM32_USB_Device_Library/Core/Src/usbd_core.c ****         {
 1263              		.loc 1 643 30 view .LVU366
 1264 00ae 9A69     		ldr	r2, [r3, #24]
 643:Middlewares/ST/STM32_USB_Device_Library/Core/Src/usbd_core.c ****         {
 1265              		.loc 1 643 12 view .LVU367
 1266 00b0 002A     		cmp	r2, #0
 1267 00b2 B0D0     		beq	.L81
 645:Middlewares/ST/STM32_USB_Device_Library/Core/Src/usbd_core.c ****           ret = (USBD_StatusTypeDef)pdev->pClass[idx]->DataOut(pdev, epnum);
 1268              		.loc 1 645 11 is_stmt 1 view .LVU368
 645:Middlewares/ST/STM32_USB_Device_Library/Core/Src/usbd_core.c ****           ret = (USBD_StatusTypeDef)pdev->pClass[idx]->DataOut(pdev, epnum);
 1269              		.loc 1 645 25 is_stmt 0 view .LVU369
 1270 00b4 C4F8D402 		str	r0, [r4, #724]
 646:Middlewares/ST/STM32_USB_Device_Library/Core/Src/usbd_core.c ****         }
 1271              		.loc 1 646 11 is_stmt 1 view .LVU370
 646:Middlewares/ST/STM32_USB_Device_Library/Core/Src/usbd_core.c ****         }
 1272              		.loc 1 646 54 is_stmt 0 view .LVU371
 1273 00b8 9B69     		ldr	r3, [r3, #24]
 646:Middlewares/ST/STM32_USB_Device_Library/Core/Src/usbd_core.c ****         }
 1274              		.loc 1 646 37 view .LVU372
ARM GAS  /tmp/ccgGleel.s 			page 44


 1275 00ba 2946     		mov	r1, r5
 1276 00bc 2046     		mov	r0, r4
 1277              	.LVL111:
 646:Middlewares/ST/STM32_USB_Device_Library/Core/Src/usbd_core.c ****         }
 1278              		.loc 1 646 37 view .LVU373
 1279 00be 9847     		blx	r3
 1280              	.LVL112:
 649:Middlewares/ST/STM32_USB_Device_Library/Core/Src/usbd_core.c ****       {
 1281              		.loc 1 649 7 is_stmt 1 view .LVU374
 1282 00c0 A9E7     		b	.L81
 1283              	.LVL113:
 1284              	.L89:
 656:Middlewares/ST/STM32_USB_Device_Library/Core/Src/usbd_core.c **** }
 1285              		.loc 1 656 10 is_stmt 0 view .LVU375
 1286 00c2 0020     		movs	r0, #0
 1287              	.LVL114:
 656:Middlewares/ST/STM32_USB_Device_Library/Core/Src/usbd_core.c **** }
 1288              		.loc 1 656 10 view .LVU376
 1289 00c4 A7E7     		b	.L81
 1290              		.cfi_endproc
 1291              	.LFE165:
 1293              		.section	.text.USBD_LL_DataInStage,"ax",%progbits
 1294              		.align	1
 1295              		.global	USBD_LL_DataInStage
 1296              		.syntax unified
 1297              		.thumb
 1298              		.thumb_func
 1300              	USBD_LL_DataInStage:
 1301              	.LVL115:
 1302              	.LFB166:
 668:Middlewares/ST/STM32_USB_Device_Library/Core/Src/usbd_core.c ****   USBD_EndpointTypeDef *pep;
 1303              		.loc 1 668 1 is_stmt 1 view -0
 1304              		.cfi_startproc
 1305              		@ args = 0, pretend = 0, frame = 0
 1306              		@ frame_needed = 0, uses_anonymous_args = 0
 668:Middlewares/ST/STM32_USB_Device_Library/Core/Src/usbd_core.c ****   USBD_EndpointTypeDef *pep;
 1307              		.loc 1 668 1 is_stmt 0 view .LVU378
 1308 0000 38B5     		push	{r3, r4, r5, lr}
 1309              	.LCFI18:
 1310              		.cfi_def_cfa_offset 16
 1311              		.cfi_offset 3, -16
 1312              		.cfi_offset 4, -12
 1313              		.cfi_offset 5, -8
 1314              		.cfi_offset 14, -4
 1315 0002 0446     		mov	r4, r0
 669:Middlewares/ST/STM32_USB_Device_Library/Core/Src/usbd_core.c ****   USBD_StatusTypeDef ret;
 1316              		.loc 1 669 3 is_stmt 1 view .LVU379
 670:Middlewares/ST/STM32_USB_Device_Library/Core/Src/usbd_core.c ****   uint8_t idx;
 1317              		.loc 1 670 3 view .LVU380
 671:Middlewares/ST/STM32_USB_Device_Library/Core/Src/usbd_core.c **** 
 1318              		.loc 1 671 3 view .LVU381
 673:Middlewares/ST/STM32_USB_Device_Library/Core/Src/usbd_core.c ****   {
 1319              		.loc 1 673 3 view .LVU382
 673:Middlewares/ST/STM32_USB_Device_Library/Core/Src/usbd_core.c ****   {
 1320              		.loc 1 673 6 is_stmt 0 view .LVU383
 1321 0004 0D46     		mov	r5, r1
 1322 0006 0029     		cmp	r1, #0
ARM GAS  /tmp/ccgGleel.s 			page 45


 1323 0008 4BD1     		bne	.L95
 1324 000a 1346     		mov	r3, r2
 675:Middlewares/ST/STM32_USB_Device_Library/Core/Src/usbd_core.c **** 
 1325              		.loc 1 675 5 is_stmt 1 view .LVU384
 1326              	.LVL116:
 677:Middlewares/ST/STM32_USB_Device_Library/Core/Src/usbd_core.c ****     {
 1327              		.loc 1 677 5 view .LVU385
 677:Middlewares/ST/STM32_USB_Device_Library/Core/Src/usbd_core.c ****     {
 1328              		.loc 1 677 13 is_stmt 0 view .LVU386
 1329 000c D0F89422 		ldr	r2, [r0, #660]
 1330              	.LVL117:
 677:Middlewares/ST/STM32_USB_Device_Library/Core/Src/usbd_core.c ****     {
 1331              		.loc 1 677 8 view .LVU387
 1332 0010 022A     		cmp	r2, #2
 1333 0012 07D0     		beq	.L103
 1334              	.LVL118:
 1335              	.L96:
 717:Middlewares/ST/STM32_USB_Device_Library/Core/Src/usbd_core.c ****     {
 1336              		.loc 1 717 5 is_stmt 1 view .LVU388
 717:Middlewares/ST/STM32_USB_Device_Library/Core/Src/usbd_core.c ****     {
 1337              		.loc 1 717 13 is_stmt 0 view .LVU389
 1338 0014 94F8A002 		ldrb	r0, [r4, #672]	@ zero_extendqisi2
 717:Middlewares/ST/STM32_USB_Device_Library/Core/Src/usbd_core.c ****     {
 1339              		.loc 1 717 8 view .LVU390
 1340 0018 18B1     		cbz	r0, .L100
 719:Middlewares/ST/STM32_USB_Device_Library/Core/Src/usbd_core.c ****       pdev->dev_test_mode = 0U;
 1341              		.loc 1 719 7 is_stmt 1 view .LVU391
 720:Middlewares/ST/STM32_USB_Device_Library/Core/Src/usbd_core.c ****     }
 1342              		.loc 1 720 7 view .LVU392
 720:Middlewares/ST/STM32_USB_Device_Library/Core/Src/usbd_core.c ****     }
 1343              		.loc 1 720 27 is_stmt 0 view .LVU393
 1344 001a 0023     		movs	r3, #0
 1345 001c 84F8A032 		strb	r3, [r4, #672]
 747:Middlewares/ST/STM32_USB_Device_Library/Core/Src/usbd_core.c **** }
 1346              		.loc 1 747 10 view .LVU394
 1347 0020 2846     		mov	r0, r5
 1348              	.LVL119:
 1349              	.L100:
 748:Middlewares/ST/STM32_USB_Device_Library/Core/Src/usbd_core.c **** 
 1350              		.loc 1 748 1 view .LVU395
 1351 0022 38BD     		pop	{r3, r4, r5, pc}
 1352              	.LVL120:
 1353              	.L103:
 679:Middlewares/ST/STM32_USB_Device_Library/Core/Src/usbd_core.c ****       {
 1354              		.loc 1 679 7 is_stmt 1 view .LVU396
 679:Middlewares/ST/STM32_USB_Device_Library/Core/Src/usbd_core.c ****       {
 1355              		.loc 1 679 14 is_stmt 0 view .LVU397
 1356 0024 C269     		ldr	r2, [r0, #28]
 679:Middlewares/ST/STM32_USB_Device_Library/Core/Src/usbd_core.c ****       {
 1357              		.loc 1 679 32 view .LVU398
 1358 0026 016A     		ldr	r1, [r0, #32]
 1359              	.LVL121:
 679:Middlewares/ST/STM32_USB_Device_Library/Core/Src/usbd_core.c ****       {
 1360              		.loc 1 679 10 view .LVU399
 1361 0028 8A42     		cmp	r2, r1
 1362 002a 0ED8     		bhi	.L104
 691:Middlewares/ST/STM32_USB_Device_Library/Core/Src/usbd_core.c ****             (pep->total_length >= pep->maxpacket) &&
ARM GAS  /tmp/ccgGleel.s 			page 46


 1363              		.loc 1 691 9 is_stmt 1 view .LVU400
 691:Middlewares/ST/STM32_USB_Device_Library/Core/Src/usbd_core.c ****             (pep->total_length >= pep->maxpacket) &&
 1364              		.loc 1 691 12 is_stmt 0 view .LVU401
 1365 002c 8A42     		cmp	r2, r1
 1366 002e 18D0     		beq	.L105
 1367              	.LVL122:
 1368              	.L98:
 703:Middlewares/ST/STM32_USB_Device_Library/Core/Src/usbd_core.c ****           {
 1369              		.loc 1 703 11 is_stmt 1 view .LVU402
 703:Middlewares/ST/STM32_USB_Device_Library/Core/Src/usbd_core.c ****           {
 1370              		.loc 1 703 19 is_stmt 0 view .LVU403
 1371 0030 94F89C32 		ldrb	r3, [r4, #668]	@ zero_extendqisi2
 1372 0034 DBB2     		uxtb	r3, r3
 703:Middlewares/ST/STM32_USB_Device_Library/Core/Src/usbd_core.c ****           {
 1373              		.loc 1 703 14 view .LVU404
 1374 0036 032B     		cmp	r3, #3
 1375 0038 27D0     		beq	.L106
 1376              	.LVL123:
 1377              	.L99:
 711:Middlewares/ST/STM32_USB_Device_Library/Core/Src/usbd_core.c ****           (void)USBD_CtlReceiveStatus(pdev);
 1378              		.loc 1 711 11 is_stmt 1 view .LVU405
 711:Middlewares/ST/STM32_USB_Device_Library/Core/Src/usbd_core.c ****           (void)USBD_CtlReceiveStatus(pdev);
 1379              		.loc 1 711 17 is_stmt 0 view .LVU406
 1380 003a 8021     		movs	r1, #128
 1381 003c 2046     		mov	r0, r4
 1382 003e FFF7FEFF 		bl	USBD_LL_StallEP
 1383              	.LVL124:
 712:Middlewares/ST/STM32_USB_Device_Library/Core/Src/usbd_core.c ****         }
 1384              		.loc 1 712 11 is_stmt 1 view .LVU407
 712:Middlewares/ST/STM32_USB_Device_Library/Core/Src/usbd_core.c ****         }
 1385              		.loc 1 712 17 is_stmt 0 view .LVU408
 1386 0042 2046     		mov	r0, r4
 1387 0044 FFF7FEFF 		bl	USBD_CtlReceiveStatus
 1388              	.LVL125:
 1389 0048 E4E7     		b	.L96
 1390              	.LVL126:
 1391              	.L104:
 681:Middlewares/ST/STM32_USB_Device_Library/Core/Src/usbd_core.c **** 
 1392              		.loc 1 681 9 is_stmt 1 view .LVU409
 681:Middlewares/ST/STM32_USB_Device_Library/Core/Src/usbd_core.c **** 
 1393              		.loc 1 681 25 is_stmt 0 view .LVU410
 1394 004a 521A     		subs	r2, r2, r1
 1395 004c C261     		str	r2, [r0, #28]
 683:Middlewares/ST/STM32_USB_Device_Library/Core/Src/usbd_core.c **** 
 1396              		.loc 1 683 9 is_stmt 1 view .LVU411
 683:Middlewares/ST/STM32_USB_Device_Library/Core/Src/usbd_core.c **** 
 1397              		.loc 1 683 15 is_stmt 0 view .LVU412
 1398 004e 1946     		mov	r1, r3
 1399 0050 FFF7FEFF 		bl	USBD_CtlContinueSendData
 1400              	.LVL127:
 686:Middlewares/ST/STM32_USB_Device_Library/Core/Src/usbd_core.c ****       }
 1401              		.loc 1 686 9 is_stmt 1 view .LVU413
 686:Middlewares/ST/STM32_USB_Device_Library/Core/Src/usbd_core.c ****       }
 1402              		.loc 1 686 15 is_stmt 0 view .LVU414
 1403 0054 0023     		movs	r3, #0
 1404 0056 1A46     		mov	r2, r3
 1405 0058 1946     		mov	r1, r3
ARM GAS  /tmp/ccgGleel.s 			page 47


 1406 005a 2046     		mov	r0, r4
 1407 005c FFF7FEFF 		bl	USBD_LL_PrepareReceive
 1408              	.LVL128:
 1409 0060 D8E7     		b	.L96
 1410              	.LVL129:
 1411              	.L105:
 692:Middlewares/ST/STM32_USB_Device_Library/Core/Src/usbd_core.c ****             (pep->total_length < pdev->ep0_data_len))
 1412              		.loc 1 692 17 discriminator 1 view .LVU415
 1413 0062 8369     		ldr	r3, [r0, #24]
 1414              	.LVL130:
 691:Middlewares/ST/STM32_USB_Device_Library/Core/Src/usbd_core.c ****             (pep->total_length >= pep->maxpacket) &&
 1415              		.loc 1 691 49 discriminator 1 view .LVU416
 1416 0064 9942     		cmp	r1, r3
 1417 0066 E3D8     		bhi	.L98
 693:Middlewares/ST/STM32_USB_Device_Library/Core/Src/usbd_core.c ****         {
 1418              		.loc 1 693 38 view .LVU417
 1419 0068 D0F89822 		ldr	r2, [r0, #664]
 692:Middlewares/ST/STM32_USB_Device_Library/Core/Src/usbd_core.c ****             (pep->total_length < pdev->ep0_data_len))
 1420              		.loc 1 692 51 view .LVU418
 1421 006c 9342     		cmp	r3, r2
 1422 006e DFD2     		bcs	.L98
 695:Middlewares/ST/STM32_USB_Device_Library/Core/Src/usbd_core.c ****           pdev->ep0_data_len = 0U;
 1423              		.loc 1 695 11 is_stmt 1 view .LVU419
 695:Middlewares/ST/STM32_USB_Device_Library/Core/Src/usbd_core.c ****           pdev->ep0_data_len = 0U;
 1424              		.loc 1 695 17 is_stmt 0 view .LVU420
 1425 0070 0022     		movs	r2, #0
 1426 0072 1146     		mov	r1, r2
 1427 0074 FFF7FEFF 		bl	USBD_CtlContinueSendData
 1428              	.LVL131:
 696:Middlewares/ST/STM32_USB_Device_Library/Core/Src/usbd_core.c **** 
 1429              		.loc 1 696 11 is_stmt 1 view .LVU421
 696:Middlewares/ST/STM32_USB_Device_Library/Core/Src/usbd_core.c **** 
 1430              		.loc 1 696 30 is_stmt 0 view .LVU422
 1431 0078 0021     		movs	r1, #0
 1432 007a C4F89812 		str	r1, [r4, #664]
 699:Middlewares/ST/STM32_USB_Device_Library/Core/Src/usbd_core.c ****         }
 1433              		.loc 1 699 11 is_stmt 1 view .LVU423
 699:Middlewares/ST/STM32_USB_Device_Library/Core/Src/usbd_core.c ****         }
 1434              		.loc 1 699 17 is_stmt 0 view .LVU424
 1435 007e 0B46     		mov	r3, r1
 1436 0080 0A46     		mov	r2, r1
 1437 0082 2046     		mov	r0, r4
 1438 0084 FFF7FEFF 		bl	USBD_LL_PrepareReceive
 1439              	.LVL132:
 699:Middlewares/ST/STM32_USB_Device_Library/Core/Src/usbd_core.c ****         }
 1440              		.loc 1 699 11 view .LVU425
 1441 0088 C4E7     		b	.L96
 1442              	.LVL133:
 1443              	.L106:
 705:Middlewares/ST/STM32_USB_Device_Library/Core/Src/usbd_core.c ****             {
 1444              		.loc 1 705 13 is_stmt 1 view .LVU426
 705:Middlewares/ST/STM32_USB_Device_Library/Core/Src/usbd_core.c ****             {
 1445              		.loc 1 705 29 is_stmt 0 view .LVU427
 1446 008a D4F8B832 		ldr	r3, [r4, #696]
 705:Middlewares/ST/STM32_USB_Device_Library/Core/Src/usbd_core.c ****             {
 1447              		.loc 1 705 32 view .LVU428
 1448 008e DA68     		ldr	r2, [r3, #12]
ARM GAS  /tmp/ccgGleel.s 			page 48


 705:Middlewares/ST/STM32_USB_Device_Library/Core/Src/usbd_core.c ****             {
 1449              		.loc 1 705 16 view .LVU429
 1450 0090 002A     		cmp	r2, #0
 1451 0092 D2D0     		beq	.L99
 707:Middlewares/ST/STM32_USB_Device_Library/Core/Src/usbd_core.c ****               pdev->pClass[0]->EP0_TxSent(pdev);
 1452              		.loc 1 707 15 is_stmt 1 view .LVU430
 707:Middlewares/ST/STM32_USB_Device_Library/Core/Src/usbd_core.c ****               pdev->pClass[0]->EP0_TxSent(pdev);
 1453              		.loc 1 707 29 is_stmt 0 view .LVU431
 1454 0094 0022     		movs	r2, #0
 1455 0096 C4F8D422 		str	r2, [r4, #724]
 708:Middlewares/ST/STM32_USB_Device_Library/Core/Src/usbd_core.c ****             }
 1456              		.loc 1 708 15 is_stmt 1 view .LVU432
 708:Middlewares/ST/STM32_USB_Device_Library/Core/Src/usbd_core.c ****             }
 1457              		.loc 1 708 30 is_stmt 0 view .LVU433
 1458 009a DB68     		ldr	r3, [r3, #12]
 708:Middlewares/ST/STM32_USB_Device_Library/Core/Src/usbd_core.c ****             }
 1459              		.loc 1 708 15 view .LVU434
 1460 009c 2046     		mov	r0, r4
 1461              	.LVL134:
 708:Middlewares/ST/STM32_USB_Device_Library/Core/Src/usbd_core.c ****             }
 1462              		.loc 1 708 15 view .LVU435
 1463 009e 9847     		blx	r3
 1464              	.LVL135:
 1465 00a0 CBE7     		b	.L99
 1466              	.LVL136:
 1467              	.L95:
 726:Middlewares/ST/STM32_USB_Device_Library/Core/Src/usbd_core.c **** 
 1468              		.loc 1 726 5 is_stmt 1 view .LVU436
 726:Middlewares/ST/STM32_USB_Device_Library/Core/Src/usbd_core.c **** 
 1469              		.loc 1 726 11 is_stmt 0 view .LVU437
 1470 00a2 41F08001 		orr	r1, r1, #128
 1471              	.LVL137:
 726:Middlewares/ST/STM32_USB_Device_Library/Core/Src/usbd_core.c **** 
 1472              		.loc 1 726 11 view .LVU438
 1473 00a6 FFF7FEFF 		bl	USBD_CoreFindEP
 1474              	.LVL138:
 728:Middlewares/ST/STM32_USB_Device_Library/Core/Src/usbd_core.c ****     {
 1475              		.loc 1 728 5 is_stmt 1 view .LVU439
 728:Middlewares/ST/STM32_USB_Device_Library/Core/Src/usbd_core.c ****     {
 1476              		.loc 1 728 8 is_stmt 0 view .LVU440
 1477 00aa 90B9     		cbnz	r0, .L101
 731:Middlewares/ST/STM32_USB_Device_Library/Core/Src/usbd_core.c ****       {
 1478              		.loc 1 731 7 is_stmt 1 view .LVU441
 731:Middlewares/ST/STM32_USB_Device_Library/Core/Src/usbd_core.c ****       {
 1479              		.loc 1 731 15 is_stmt 0 view .LVU442
 1480 00ac 94F89C32 		ldrb	r3, [r4, #668]	@ zero_extendqisi2
 1481 00b0 DBB2     		uxtb	r3, r3
 731:Middlewares/ST/STM32_USB_Device_Library/Core/Src/usbd_core.c ****       {
 1482              		.loc 1 731 10 view .LVU443
 1483 00b2 032B     		cmp	r3, #3
 1484 00b4 B5D1     		bne	.L100
 733:Middlewares/ST/STM32_USB_Device_Library/Core/Src/usbd_core.c ****         {
 1485              		.loc 1 733 9 is_stmt 1 view .LVU444
 733:Middlewares/ST/STM32_USB_Device_Library/Core/Src/usbd_core.c ****         {
 1486              		.loc 1 733 25 is_stmt 0 view .LVU445
 1487 00b6 00F1AE03 		add	r3, r0, #174
 1488 00ba 54F82330 		ldr	r3, [r4, r3, lsl #2]
ARM GAS  /tmp/ccgGleel.s 			page 49


 733:Middlewares/ST/STM32_USB_Device_Library/Core/Src/usbd_core.c ****         {
 1489              		.loc 1 733 30 view .LVU446
 1490 00be 5A69     		ldr	r2, [r3, #20]
 733:Middlewares/ST/STM32_USB_Device_Library/Core/Src/usbd_core.c ****         {
 1491              		.loc 1 733 12 view .LVU447
 1492 00c0 002A     		cmp	r2, #0
 1493 00c2 AED0     		beq	.L100
 735:Middlewares/ST/STM32_USB_Device_Library/Core/Src/usbd_core.c ****           ret = (USBD_StatusTypeDef)pdev->pClass[idx]->DataIn(pdev, epnum);
 1494              		.loc 1 735 11 is_stmt 1 view .LVU448
 735:Middlewares/ST/STM32_USB_Device_Library/Core/Src/usbd_core.c ****           ret = (USBD_StatusTypeDef)pdev->pClass[idx]->DataIn(pdev, epnum);
 1495              		.loc 1 735 25 is_stmt 0 view .LVU449
 1496 00c4 C4F8D402 		str	r0, [r4, #724]
 736:Middlewares/ST/STM32_USB_Device_Library/Core/Src/usbd_core.c **** 
 1497              		.loc 1 736 11 is_stmt 1 view .LVU450
 736:Middlewares/ST/STM32_USB_Device_Library/Core/Src/usbd_core.c **** 
 1498              		.loc 1 736 54 is_stmt 0 view .LVU451
 1499 00c8 5B69     		ldr	r3, [r3, #20]
 736:Middlewares/ST/STM32_USB_Device_Library/Core/Src/usbd_core.c **** 
 1500              		.loc 1 736 37 view .LVU452
 1501 00ca 2946     		mov	r1, r5
 1502 00cc 2046     		mov	r0, r4
 1503              	.LVL139:
 736:Middlewares/ST/STM32_USB_Device_Library/Core/Src/usbd_core.c **** 
 1504              		.loc 1 736 37 view .LVU453
 1505 00ce 9847     		blx	r3
 1506              	.LVL140:
 738:Middlewares/ST/STM32_USB_Device_Library/Core/Src/usbd_core.c ****           {
 1507              		.loc 1 738 11 is_stmt 1 view .LVU454
 1508 00d0 A7E7     		b	.L100
 1509              	.LVL141:
 1510              	.L101:
 747:Middlewares/ST/STM32_USB_Device_Library/Core/Src/usbd_core.c **** }
 1511              		.loc 1 747 10 is_stmt 0 view .LVU455
 1512 00d2 0020     		movs	r0, #0
 1513              	.LVL142:
 747:Middlewares/ST/STM32_USB_Device_Library/Core/Src/usbd_core.c **** }
 1514              		.loc 1 747 10 view .LVU456
 1515 00d4 A5E7     		b	.L100
 1516              		.cfi_endproc
 1517              	.LFE166:
 1519              		.section	.text.USBD_GetNextDesc,"ax",%progbits
 1520              		.align	1
 1521              		.global	USBD_GetNextDesc
 1522              		.syntax unified
 1523              		.thumb
 1524              		.thumb_func
 1526              	USBD_GetNextDesc:
 1527              	.LVL143:
 1528              	.LFB179:
1099:Middlewares/ST/STM32_USB_Device_Library/Core/Src/usbd_core.c **** 
1100:Middlewares/ST/STM32_USB_Device_Library/Core/Src/usbd_core.c **** #ifdef USE_USBD_COMPOSITE
1101:Middlewares/ST/STM32_USB_Device_Library/Core/Src/usbd_core.c **** /**
1102:Middlewares/ST/STM32_USB_Device_Library/Core/Src/usbd_core.c ****   * @brief  USBD_CoreGetEPAdd
1103:Middlewares/ST/STM32_USB_Device_Library/Core/Src/usbd_core.c ****   *         Get the endpoint address relative to a selected class
1104:Middlewares/ST/STM32_USB_Device_Library/Core/Src/usbd_core.c ****   * @param  pdev: device instance
1105:Middlewares/ST/STM32_USB_Device_Library/Core/Src/usbd_core.c ****   * @param  ep_dir: USBD_EP_IN or USBD_EP_OUT
1106:Middlewares/ST/STM32_USB_Device_Library/Core/Src/usbd_core.c ****   * @param  ep_type: USBD_EP_TYPE_CTRL, USBD_EP_TYPE_ISOC, USBD_EP_TYPE_BULK or USBD_EP_TYPE_INTR
ARM GAS  /tmp/ccgGleel.s 			page 50


1107:Middlewares/ST/STM32_USB_Device_Library/Core/Src/usbd_core.c ****   * @param  ClassId: The Class ID
1108:Middlewares/ST/STM32_USB_Device_Library/Core/Src/usbd_core.c ****   * @retval Address of the selected endpoint or 0xFFU if no endpoint found.
1109:Middlewares/ST/STM32_USB_Device_Library/Core/Src/usbd_core.c ****   */
1110:Middlewares/ST/STM32_USB_Device_Library/Core/Src/usbd_core.c **** uint8_t USBD_CoreGetEPAdd(USBD_HandleTypeDef *pdev, uint8_t ep_dir, uint8_t ep_type, uint8_t ClassI
1111:Middlewares/ST/STM32_USB_Device_Library/Core/Src/usbd_core.c **** {
1112:Middlewares/ST/STM32_USB_Device_Library/Core/Src/usbd_core.c ****   uint8_t idx;
1113:Middlewares/ST/STM32_USB_Device_Library/Core/Src/usbd_core.c **** 
1114:Middlewares/ST/STM32_USB_Device_Library/Core/Src/usbd_core.c ****   /* Find the EP address in the selected class table */
1115:Middlewares/ST/STM32_USB_Device_Library/Core/Src/usbd_core.c ****   for (idx = 0; idx < pdev->tclasslist[ClassId].NumEps; idx++)
1116:Middlewares/ST/STM32_USB_Device_Library/Core/Src/usbd_core.c ****   {
1117:Middlewares/ST/STM32_USB_Device_Library/Core/Src/usbd_core.c ****     if (((pdev->tclasslist[ClassId].Eps[idx].add & USBD_EP_IN) == ep_dir) && \
1118:Middlewares/ST/STM32_USB_Device_Library/Core/Src/usbd_core.c ****         (pdev->tclasslist[ClassId].Eps[idx].type == ep_type) && \
1119:Middlewares/ST/STM32_USB_Device_Library/Core/Src/usbd_core.c ****         (pdev->tclasslist[ClassId].Eps[idx].is_used != 0U))
1120:Middlewares/ST/STM32_USB_Device_Library/Core/Src/usbd_core.c ****     {
1121:Middlewares/ST/STM32_USB_Device_Library/Core/Src/usbd_core.c ****       return (pdev->tclasslist[ClassId].Eps[idx].add);
1122:Middlewares/ST/STM32_USB_Device_Library/Core/Src/usbd_core.c ****     }
1123:Middlewares/ST/STM32_USB_Device_Library/Core/Src/usbd_core.c ****   }
1124:Middlewares/ST/STM32_USB_Device_Library/Core/Src/usbd_core.c **** 
1125:Middlewares/ST/STM32_USB_Device_Library/Core/Src/usbd_core.c ****   /* If reaching this point, then no endpoint was found */
1126:Middlewares/ST/STM32_USB_Device_Library/Core/Src/usbd_core.c ****   return 0xFFU;
1127:Middlewares/ST/STM32_USB_Device_Library/Core/Src/usbd_core.c **** }
1128:Middlewares/ST/STM32_USB_Device_Library/Core/Src/usbd_core.c **** #endif /* USE_USBD_COMPOSITE */
1129:Middlewares/ST/STM32_USB_Device_Library/Core/Src/usbd_core.c **** 
1130:Middlewares/ST/STM32_USB_Device_Library/Core/Src/usbd_core.c **** /**
1131:Middlewares/ST/STM32_USB_Device_Library/Core/Src/usbd_core.c ****   * @brief  USBD_GetEpDesc
1132:Middlewares/ST/STM32_USB_Device_Library/Core/Src/usbd_core.c ****   *         This function return the Endpoint descriptor
1133:Middlewares/ST/STM32_USB_Device_Library/Core/Src/usbd_core.c ****   * @param  pdev: device instance
1134:Middlewares/ST/STM32_USB_Device_Library/Core/Src/usbd_core.c ****   * @param  pConfDesc:  pointer to Bos descriptor
1135:Middlewares/ST/STM32_USB_Device_Library/Core/Src/usbd_core.c ****   * @param  EpAddr:  endpoint address
1136:Middlewares/ST/STM32_USB_Device_Library/Core/Src/usbd_core.c ****   * @retval pointer to video endpoint descriptor
1137:Middlewares/ST/STM32_USB_Device_Library/Core/Src/usbd_core.c ****   */
1138:Middlewares/ST/STM32_USB_Device_Library/Core/Src/usbd_core.c **** void *USBD_GetEpDesc(uint8_t *pConfDesc, uint8_t EpAddr)
1139:Middlewares/ST/STM32_USB_Device_Library/Core/Src/usbd_core.c **** {
1140:Middlewares/ST/STM32_USB_Device_Library/Core/Src/usbd_core.c ****   USBD_DescHeaderTypeDef *pdesc = (USBD_DescHeaderTypeDef *)(void *)pConfDesc;
1141:Middlewares/ST/STM32_USB_Device_Library/Core/Src/usbd_core.c ****   USBD_ConfigDescTypeDef *desc = (USBD_ConfigDescTypeDef *)(void *)pConfDesc;
1142:Middlewares/ST/STM32_USB_Device_Library/Core/Src/usbd_core.c ****   USBD_EpDescTypeDef *pEpDesc = NULL;
1143:Middlewares/ST/STM32_USB_Device_Library/Core/Src/usbd_core.c ****   uint16_t ptr;
1144:Middlewares/ST/STM32_USB_Device_Library/Core/Src/usbd_core.c **** 
1145:Middlewares/ST/STM32_USB_Device_Library/Core/Src/usbd_core.c ****   if (desc->wTotalLength > desc->bLength)
1146:Middlewares/ST/STM32_USB_Device_Library/Core/Src/usbd_core.c ****   {
1147:Middlewares/ST/STM32_USB_Device_Library/Core/Src/usbd_core.c ****     ptr = desc->bLength;
1148:Middlewares/ST/STM32_USB_Device_Library/Core/Src/usbd_core.c **** 
1149:Middlewares/ST/STM32_USB_Device_Library/Core/Src/usbd_core.c ****     while (ptr < desc->wTotalLength)
1150:Middlewares/ST/STM32_USB_Device_Library/Core/Src/usbd_core.c ****     {
1151:Middlewares/ST/STM32_USB_Device_Library/Core/Src/usbd_core.c ****       pdesc = USBD_GetNextDesc((uint8_t *)pdesc, &ptr);
1152:Middlewares/ST/STM32_USB_Device_Library/Core/Src/usbd_core.c **** 
1153:Middlewares/ST/STM32_USB_Device_Library/Core/Src/usbd_core.c ****       if (pdesc->bDescriptorType == USB_DESC_TYPE_ENDPOINT)
1154:Middlewares/ST/STM32_USB_Device_Library/Core/Src/usbd_core.c ****       {
1155:Middlewares/ST/STM32_USB_Device_Library/Core/Src/usbd_core.c ****         pEpDesc = (USBD_EpDescTypeDef *)(void *)pdesc;
1156:Middlewares/ST/STM32_USB_Device_Library/Core/Src/usbd_core.c **** 
1157:Middlewares/ST/STM32_USB_Device_Library/Core/Src/usbd_core.c ****         if (pEpDesc->bEndpointAddress == EpAddr)
1158:Middlewares/ST/STM32_USB_Device_Library/Core/Src/usbd_core.c ****         {
1159:Middlewares/ST/STM32_USB_Device_Library/Core/Src/usbd_core.c ****           break;
1160:Middlewares/ST/STM32_USB_Device_Library/Core/Src/usbd_core.c ****         }
1161:Middlewares/ST/STM32_USB_Device_Library/Core/Src/usbd_core.c ****         else
1162:Middlewares/ST/STM32_USB_Device_Library/Core/Src/usbd_core.c ****         {
1163:Middlewares/ST/STM32_USB_Device_Library/Core/Src/usbd_core.c ****           pEpDesc = NULL;
ARM GAS  /tmp/ccgGleel.s 			page 51


1164:Middlewares/ST/STM32_USB_Device_Library/Core/Src/usbd_core.c ****         }
1165:Middlewares/ST/STM32_USB_Device_Library/Core/Src/usbd_core.c ****       }
1166:Middlewares/ST/STM32_USB_Device_Library/Core/Src/usbd_core.c ****     }
1167:Middlewares/ST/STM32_USB_Device_Library/Core/Src/usbd_core.c ****   }
1168:Middlewares/ST/STM32_USB_Device_Library/Core/Src/usbd_core.c **** 
1169:Middlewares/ST/STM32_USB_Device_Library/Core/Src/usbd_core.c ****   return (void *)pEpDesc;
1170:Middlewares/ST/STM32_USB_Device_Library/Core/Src/usbd_core.c **** }
1171:Middlewares/ST/STM32_USB_Device_Library/Core/Src/usbd_core.c **** 
1172:Middlewares/ST/STM32_USB_Device_Library/Core/Src/usbd_core.c **** /**
1173:Middlewares/ST/STM32_USB_Device_Library/Core/Src/usbd_core.c ****   * @brief  USBD_GetNextDesc
1174:Middlewares/ST/STM32_USB_Device_Library/Core/Src/usbd_core.c ****   *         This function return the next descriptor header
1175:Middlewares/ST/STM32_USB_Device_Library/Core/Src/usbd_core.c ****   * @param  buf: Buffer where the descriptor is available
1176:Middlewares/ST/STM32_USB_Device_Library/Core/Src/usbd_core.c ****   * @param  ptr: data pointer inside the descriptor
1177:Middlewares/ST/STM32_USB_Device_Library/Core/Src/usbd_core.c ****   * @retval next header
1178:Middlewares/ST/STM32_USB_Device_Library/Core/Src/usbd_core.c ****   */
1179:Middlewares/ST/STM32_USB_Device_Library/Core/Src/usbd_core.c **** USBD_DescHeaderTypeDef *USBD_GetNextDesc(uint8_t *pbuf, uint16_t *ptr)
1180:Middlewares/ST/STM32_USB_Device_Library/Core/Src/usbd_core.c **** {
 1529              		.loc 1 1180 1 is_stmt 1 view -0
 1530              		.cfi_startproc
 1531              		@ args = 0, pretend = 0, frame = 0
 1532              		@ frame_needed = 0, uses_anonymous_args = 0
 1533              		@ link register save eliminated.
1181:Middlewares/ST/STM32_USB_Device_Library/Core/Src/usbd_core.c ****   USBD_DescHeaderTypeDef *pnext = (USBD_DescHeaderTypeDef *)(void *)pbuf;
 1534              		.loc 1 1181 3 view .LVU458
1182:Middlewares/ST/STM32_USB_Device_Library/Core/Src/usbd_core.c **** 
1183:Middlewares/ST/STM32_USB_Device_Library/Core/Src/usbd_core.c ****   *ptr += pnext->bLength;
 1535              		.loc 1 1183 3 view .LVU459
 1536 0000 0B88     		ldrh	r3, [r1]
 1537              		.loc 1 1183 16 is_stmt 0 view .LVU460
 1538 0002 0278     		ldrb	r2, [r0]	@ zero_extendqisi2
 1539              		.loc 1 1183 8 view .LVU461
 1540 0004 1344     		add	r3, r3, r2
 1541 0006 0B80     		strh	r3, [r1]	@ movhi
1184:Middlewares/ST/STM32_USB_Device_Library/Core/Src/usbd_core.c ****   pnext = (USBD_DescHeaderTypeDef *)(void *)(pbuf + pnext->bLength);
 1542              		.loc 1 1184 3 is_stmt 1 view .LVU462
 1543              		.loc 1 1184 58 is_stmt 0 view .LVU463
 1544 0008 0378     		ldrb	r3, [r0]	@ zero_extendqisi2
 1545              	.LVL144:
1185:Middlewares/ST/STM32_USB_Device_Library/Core/Src/usbd_core.c **** 
1186:Middlewares/ST/STM32_USB_Device_Library/Core/Src/usbd_core.c ****   return (pnext);
 1546              		.loc 1 1186 3 is_stmt 1 view .LVU464
1187:Middlewares/ST/STM32_USB_Device_Library/Core/Src/usbd_core.c **** }
 1547              		.loc 1 1187 1 is_stmt 0 view .LVU465
 1548 000a 1844     		add	r0, r0, r3
 1549              	.LVL145:
 1550              		.loc 1 1187 1 view .LVU466
 1551 000c 7047     		bx	lr
 1552              		.cfi_endproc
 1553              	.LFE179:
 1555              		.section	.text.USBD_GetEpDesc,"ax",%progbits
 1556              		.align	1
 1557              		.global	USBD_GetEpDesc
 1558              		.syntax unified
 1559              		.thumb
 1560              		.thumb_func
 1562              	USBD_GetEpDesc:
 1563              	.LVL146:
ARM GAS  /tmp/ccgGleel.s 			page 52


 1564              	.LFB178:
1139:Middlewares/ST/STM32_USB_Device_Library/Core/Src/usbd_core.c ****   USBD_DescHeaderTypeDef *pdesc = (USBD_DescHeaderTypeDef *)(void *)pConfDesc;
 1565              		.loc 1 1139 1 is_stmt 1 view -0
 1566              		.cfi_startproc
 1567              		@ args = 0, pretend = 0, frame = 8
 1568              		@ frame_needed = 0, uses_anonymous_args = 0
1140:Middlewares/ST/STM32_USB_Device_Library/Core/Src/usbd_core.c ****   USBD_ConfigDescTypeDef *desc = (USBD_ConfigDescTypeDef *)(void *)pConfDesc;
 1569              		.loc 1 1140 3 view .LVU468
1141:Middlewares/ST/STM32_USB_Device_Library/Core/Src/usbd_core.c ****   USBD_EpDescTypeDef *pEpDesc = NULL;
 1570              		.loc 1 1141 3 view .LVU469
1142:Middlewares/ST/STM32_USB_Device_Library/Core/Src/usbd_core.c ****   uint16_t ptr;
 1571              		.loc 1 1142 3 view .LVU470
1143:Middlewares/ST/STM32_USB_Device_Library/Core/Src/usbd_core.c **** 
 1572              		.loc 1 1143 3 view .LVU471
1145:Middlewares/ST/STM32_USB_Device_Library/Core/Src/usbd_core.c ****   {
 1573              		.loc 1 1145 3 view .LVU472
1145:Middlewares/ST/STM32_USB_Device_Library/Core/Src/usbd_core.c ****   {
 1574              		.loc 1 1145 11 is_stmt 0 view .LVU473
 1575 0000 4288     		ldrh	r2, [r0, #2]	@ unaligned
1145:Middlewares/ST/STM32_USB_Device_Library/Core/Src/usbd_core.c ****   {
 1576              		.loc 1 1145 32 view .LVU474
 1577 0002 0378     		ldrb	r3, [r0]	@ zero_extendqisi2
1145:Middlewares/ST/STM32_USB_Device_Library/Core/Src/usbd_core.c ****   {
 1578              		.loc 1 1145 6 view .LVU475
 1579 0004 9A42     		cmp	r2, r3
 1580 0006 18D9     		bls	.L112
1139:Middlewares/ST/STM32_USB_Device_Library/Core/Src/usbd_core.c ****   USBD_DescHeaderTypeDef *pdesc = (USBD_DescHeaderTypeDef *)(void *)pConfDesc;
 1581              		.loc 1 1139 1 view .LVU476
 1582 0008 30B5     		push	{r4, r5, lr}
 1583              	.LCFI19:
 1584              		.cfi_def_cfa_offset 12
 1585              		.cfi_offset 4, -12
 1586              		.cfi_offset 5, -8
 1587              		.cfi_offset 14, -4
 1588 000a 83B0     		sub	sp, sp, #12
 1589              	.LCFI20:
 1590              		.cfi_def_cfa_offset 24
 1591 000c 0446     		mov	r4, r0
 1592 000e 0D46     		mov	r5, r1
1147:Middlewares/ST/STM32_USB_Device_Library/Core/Src/usbd_core.c **** 
 1593              		.loc 1 1147 5 is_stmt 1 view .LVU477
1147:Middlewares/ST/STM32_USB_Device_Library/Core/Src/usbd_core.c **** 
 1594              		.loc 1 1147 9 is_stmt 0 view .LVU478
 1595 0010 ADF80630 		strh	r3, [sp, #6]	@ movhi
1149:Middlewares/ST/STM32_USB_Device_Library/Core/Src/usbd_core.c ****     {
 1596              		.loc 1 1149 5 is_stmt 1 view .LVU479
 1597              	.LVL147:
 1598              	.L110:
1149:Middlewares/ST/STM32_USB_Device_Library/Core/Src/usbd_core.c ****     {
 1599              		.loc 1 1149 16 view .LVU480
1149:Middlewares/ST/STM32_USB_Device_Library/Core/Src/usbd_core.c ****     {
 1600              		.loc 1 1149 22 is_stmt 0 view .LVU481
 1601 0014 6388     		ldrh	r3, [r4, #2]	@ unaligned
1149:Middlewares/ST/STM32_USB_Device_Library/Core/Src/usbd_core.c ****     {
 1602              		.loc 1 1149 16 view .LVU482
 1603 0016 BDF80620 		ldrh	r2, [sp, #6]
 1604 001a 9A42     		cmp	r2, r3
ARM GAS  /tmp/ccgGleel.s 			page 53


 1605 001c 0AD2     		bcs	.L117
1151:Middlewares/ST/STM32_USB_Device_Library/Core/Src/usbd_core.c **** 
 1606              		.loc 1 1151 7 is_stmt 1 view .LVU483
1151:Middlewares/ST/STM32_USB_Device_Library/Core/Src/usbd_core.c **** 
 1607              		.loc 1 1151 15 is_stmt 0 view .LVU484
 1608 001e 0DF10601 		add	r1, sp, #6
 1609 0022 FFF7FEFF 		bl	USBD_GetNextDesc
 1610              	.LVL148:
1153:Middlewares/ST/STM32_USB_Device_Library/Core/Src/usbd_core.c ****       {
 1611              		.loc 1 1153 7 is_stmt 1 view .LVU485
1153:Middlewares/ST/STM32_USB_Device_Library/Core/Src/usbd_core.c ****       {
 1612              		.loc 1 1153 16 is_stmt 0 view .LVU486
 1613 0026 4378     		ldrb	r3, [r0, #1]	@ zero_extendqisi2
1153:Middlewares/ST/STM32_USB_Device_Library/Core/Src/usbd_core.c ****       {
 1614              		.loc 1 1153 10 view .LVU487
 1615 0028 052B     		cmp	r3, #5
 1616 002a F3D1     		bne	.L110
1155:Middlewares/ST/STM32_USB_Device_Library/Core/Src/usbd_core.c **** 
 1617              		.loc 1 1155 9 is_stmt 1 view .LVU488
 1618              	.LVL149:
1157:Middlewares/ST/STM32_USB_Device_Library/Core/Src/usbd_core.c ****         {
 1619              		.loc 1 1157 9 view .LVU489
1157:Middlewares/ST/STM32_USB_Device_Library/Core/Src/usbd_core.c ****         {
 1620              		.loc 1 1157 20 is_stmt 0 view .LVU490
 1621 002c 8378     		ldrb	r3, [r0, #2]	@ zero_extendqisi2
1157:Middlewares/ST/STM32_USB_Device_Library/Core/Src/usbd_core.c ****         {
 1622              		.loc 1 1157 12 view .LVU491
 1623 002e AB42     		cmp	r3, r5
 1624 0030 F0D1     		bne	.L110
 1625 0032 00E0     		b	.L108
 1626              	.LVL150:
 1627              	.L117:
1157:Middlewares/ST/STM32_USB_Device_Library/Core/Src/usbd_core.c ****         {
 1628              		.loc 1 1157 12 view .LVU492
 1629 0034 0020     		movs	r0, #0
 1630              	.LVL151:
 1631              	.L108:
1170:Middlewares/ST/STM32_USB_Device_Library/Core/Src/usbd_core.c **** 
 1632              		.loc 1 1170 1 view .LVU493
 1633 0036 03B0     		add	sp, sp, #12
 1634              	.LCFI21:
 1635              		.cfi_def_cfa_offset 12
 1636              		@ sp needed
 1637 0038 30BD     		pop	{r4, r5, pc}
 1638              	.LVL152:
 1639              	.L112:
 1640              	.LCFI22:
 1641              		.cfi_def_cfa_offset 0
 1642              		.cfi_restore 4
 1643              		.cfi_restore 5
 1644              		.cfi_restore 14
1142:Middlewares/ST/STM32_USB_Device_Library/Core/Src/usbd_core.c ****   uint16_t ptr;
 1645              		.loc 1 1142 23 view .LVU494
 1646 003a 0020     		movs	r0, #0
 1647              	.LVL153:
1169:Middlewares/ST/STM32_USB_Device_Library/Core/Src/usbd_core.c **** }
 1648              		.loc 1 1169 3 is_stmt 1 view .LVU495
ARM GAS  /tmp/ccgGleel.s 			page 54


1170:Middlewares/ST/STM32_USB_Device_Library/Core/Src/usbd_core.c **** 
 1649              		.loc 1 1170 1 is_stmt 0 view .LVU496
 1650 003c 7047     		bx	lr
 1651              		.cfi_endproc
 1652              	.LFE178:
 1654              		.text
 1655              	.Letext0:
 1656              		.file 2 "/home/yul/toolchain/arm-gnu-toolchain-12.2.rel1-x86_64-arm-none-eabi/arm-none-eabi/includ
 1657              		.file 3 "/home/yul/toolchain/arm-gnu-toolchain-12.2.rel1-x86_64-arm-none-eabi/arm-none-eabi/includ
 1658              		.file 4 "Middlewares/ST/STM32_USB_Device_Library/Core/Inc/usbd_def.h"
 1659              		.file 5 "Middlewares/ST/STM32_USB_Device_Library/Core/Inc/usbd_core.h"
 1660              		.file 6 "Middlewares/ST/STM32_USB_Device_Library/Core/Inc/usbd_ioreq.h"
 1661              		.file 7 "Middlewares/ST/STM32_USB_Device_Library/Core/Inc/usbd_ctlreq.h"
ARM GAS  /tmp/ccgGleel.s 			page 55

